---
triple:          'arm64-apple-darwin'
binary-path:     '/Users/eddyli/Desktop/eigenvalue-002/cf2'
relocations:
  - { offset: 0x44, size: 0x8, addend: 0x0, symName: __ZN5EigenL4lastE, symObjAddr: 0xF69A6A, symBinAddr: 0x1000AC020, symSize: 0x0 }
  - { offset: 0x877, size: 0x8, addend: 0x0, symName: __ZN5Eigen8internal20manage_caching_sizesENS_6ActionEPlS2_S2_, symObjAddr: 0x46B74, symBinAddr: 0x100049F2C, symSize: 0x138 }
  - { offset: 0x89C, size: 0x8, addend: 0x0, symName: __ZZN5Eigen8internal20manage_caching_sizesENS_6ActionEPlS2_S2_E12m_cacheSizes, symObjAddr: 0x92598, symBinAddr: 0x1000AC000, symSize: 0x0 }
  - { offset: 0x1FFFE, size: 0x8, addend: 0x0, symName: __ZN5Eigen8internal37evaluateProductBlockingSizesHeuristicIddLi4ElEEvRT2_S3_S3_S2_, symObjAddr: 0x46388, symBinAddr: 0x100049740, symSize: 0x7EC }
  - { offset: 0x3B79C, size: 0x8, addend: 0x0, symName: __ZN5Eigen8internal31conditional_aligned_delete_autoINSt3__17complexIdEELb1EEEvPT_m, symObjAddr: 0x1804, symBinAddr: 0x100004BBC, symSize: 0x28 }
  - { offset: 0x3B7E8, size: 0x8, addend: 0x0, symName: __ZN5Eigen8internal24conditional_aligned_freeILb1EEEvPv, symObjAddr: 0x183C, symBinAddr: 0x100004BF4, symSize: 0x24 }
  - { offset: 0x3B81C, size: 0x8, addend: 0x0, symName: __ZN5Eigen8internal12aligned_freeEPv, symObjAddr: 0x1860, symBinAddr: 0x100004C18, symSize: 0x24 }
  - { offset: 0x3B84B, size: 0x8, addend: 0x0, symName: __ZN5Eigen8internal31conditional_aligned_delete_autoIdLb1EEEvPT_m, symObjAddr: 0x194C, symBinAddr: 0x100004D04, symSize: 0x28 }
  - { offset: 0x3B8F4, size: 0x8, addend: 0x0, symName: __ZN5Eigen8internal19throw_std_bad_allocEv, symObjAddr: 0x2468, symBinAddr: 0x100005820, symSize: 0x34 }
  - { offset: 0x3B930, size: 0x8, addend: 0x0, symName: __ZN5Eigen8internal28conditional_aligned_new_autoIdLb1EEEPT_m, symObjAddr: 0x249C, symBinAddr: 0x100005854, symSize: 0x84 }
  - { offset: 0x3B99E, size: 0x8, addend: 0x0, symName: __ZN5Eigen8internal26conditional_aligned_mallocILb1EEEPvm, symObjAddr: 0x2520, symBinAddr: 0x1000058D8, symSize: 0x24 }
  - { offset: 0x3B9D4, size: 0x8, addend: 0x0, symName: __ZN5Eigen8internal14aligned_mallocEm, symObjAddr: 0x2544, symBinAddr: 0x1000058FC, symSize: 0xDC }
  - { offset: 0x3BA15, size: 0x8, addend: 0x0, symName: __ZN5Eigen8internal28check_that_malloc_is_allowedEv, symObjAddr: 0x2620, symBinAddr: 0x1000059D8, symSize: 0x4 }
  - { offset: 0x3BA60, size: 0x8, addend: 0x0, symName: __ZN5Eigen8internal24call_assignment_no_aliasINS_6MatrixIdLin1ELin1ELi0ELin1ELin1EEES3_NS0_9assign_opIddEEEEvRT_RKT0_RKT1_, symObjAddr: 0x2F04, symBinAddr: 0x1000062BC, symSize: 0x3C }
  - { offset: 0x3BB38, size: 0x8, addend: 0x0, symName: __ZN5Eigen8internal18check_for_aliasingINS_6MatrixIdLin1ELin1ELi0ELin1ELin1EEES3_EEvRKT_RKT0_, symObjAddr: 0x2FAC, symBinAddr: 0x100006364, symSize: 0x60 }
  - { offset: 0x3BB83, size: 0x8, addend: 0x0, symName: __ZN5Eigen8internal26call_dense_assignment_loopINS_6MatrixIdLin1ELin1ELi0ELin1ELin1EEES3_NS0_9assign_opIddEEEEvRT_RKT0_RKT1_, symObjAddr: 0x300C, symBinAddr: 0x1000063C4, symSize: 0xE0 }
  - { offset: 0x3BC75, size: 0x8, addend: 0x0, symName: __ZN5Eigen8internal17resize_if_allowedINS_6MatrixIdLin1ELin1ELi0ELin1ELin1EEES3_ddEEvRT_RKT0_RKNS0_9assign_opIT1_T2_EE, symObjAddr: 0x3100, symBinAddr: 0x1000064B8, symSize: 0xF8 }
  - { offset: 0x3C258, size: 0x8, addend: 0x0, symName: __ZN5Eigen8internal6pstoreId19__simd128_float64_tEEvPT_RKT0_, symObjAddr: 0x3534, symBinAddr: 0x1000068EC, symSize: 0x2C }
  - { offset: 0x3C2C0, size: 0x8, addend: 0x0, symName: __ZN5Eigen8internal5ploadI19__simd128_float64_tEET_PKNS0_15unpacket_traitsIS3_E4typeE, symObjAddr: 0x3560, symBinAddr: 0x100006918, symSize: 0x28 }
  - { offset: 0x3C33E, size: 0x8, addend: 0x0, symName: __ZN5Eigen8internal22ignore_unused_variableIbEEvRKT_, symObjAddr: 0x3FD4, symBinAddr: 0x10000738C, symSize: 0x10 }
  - { offset: 0x3C390, size: 0x8, addend: 0x0, symName: __ZN5Eigen8internal28conditional_aligned_new_autoINSt3__17complexIdEELb1EEEPT_m, symObjAddr: 0x40FC, symBinAddr: 0x1000074B4, symSize: 0x84 }
  - { offset: 0x3C773, size: 0x8, addend: 0x0, symName: __ZN5Eigen8internalL21first_default_alignedINS_12CwiseUnaryOpINS0_13scalar_abs_opIdEEKNS_6MatrixIdLin1ELin1ELi0ELin1ELin1EEEEEEElRKNS_9DenseBaseIT_EE, symObjAddr: 0x7920, symBinAddr: 0x10000ACD8, symSize: 0x24 }
  - { offset: 0x3C7AA, size: 0x8, addend: 0x0, symName: __ZN5Eigen8internalL13first_alignedILi16ENS_12CwiseUnaryOpINS0_13scalar_abs_opIdEEKNS_6MatrixIdLin1ELin1ELi0ELin1ELin1EEEEEEElRKNS_9DenseBaseIT0_EE, symObjAddr: 0x7A68, symBinAddr: 0x10000AE20, symSize: 0x28 }
  - { offset: 0x3C829, size: 0x8, addend: 0x0, symName: __ZN5Eigen8internal4pabsI19__simd128_float64_tEET_RKS3_, symObjAddr: 0x7AE0, symBinAddr: 0x10000AE98, symSize: 0x2C }
  - { offset: 0x3C860, size: 0x8, addend: 0x0, symName: __ZN5Eigen8internal4pmaxILi0E19__simd128_float64_tEET0_RKS3_S5_, symObjAddr: 0x7B0C, symBinAddr: 0x10000AEC4, symSize: 0x34 }
  - { offset: 0x3C929, size: 0x8, addend: 0x0, symName: __ZN5Eigen8internal4pmaxI19__simd128_float64_tEET_RKS3_S5_, symObjAddr: 0x7B74, symBinAddr: 0x10000AF2C, symSize: 0x40 }
  - { offset: 0x3C96F, size: 0x8, addend: 0x0, symName: __ZN5Eigen8internal10predux_maxILi0E19__simd128_float64_tEENS0_15unpacket_traitsIT0_E4typeERKS4_, symObjAddr: 0x7BB4, symBinAddr: 0x10000AF6C, symSize: 0x2C }
  - { offset: 0x3C9B0, size: 0x8, addend: 0x0, symName: __ZN5Eigen8internal13predux_helperI19__simd128_float64_tPFdRKdS4_EEENS0_15unpacket_traitsIT_E4typeERKS8_T0_, symObjAddr: 0x7BE0, symBinAddr: 0x10000AF98, symSize: 0x118 }
  - { offset: 0x3CA64, size: 0x8, addend: 0x0, symName: __ZN5Eigen8internal4pmaxILi0EdEET0_RKS2_S4_, symObjAddr: 0x7CF8, symBinAddr: 0x10000B0B0, symSize: 0x34 }
  - { offset: 0x3CAB4, size: 0x8, addend: 0x0, symName: __ZN5Eigen8internal7pstoreuId19__simd128_float64_tEEvPT_RKT0_, symObjAddr: 0x7D2C, symBinAddr: 0x10000B0E4, symSize: 0x2C }
  - { offset: 0x3CB1C, size: 0x8, addend: 0x0, symName: __ZN5Eigen8internal4pmaxIdEET_RKS2_S4_, symObjAddr: 0x7D8C, symBinAddr: 0x10000B144, symSize: 0x40 }
  - { offset: 0x3CBB2, size: 0x8, addend: 0x0, symName: __ZN5Eigen8internal15call_assignmentINS_6MatrixIdLin1ELin1ELi0ELin1ELin1EEENS_14CwiseNullaryOpINS0_18scalar_constant_opIdEES3_EEEEvRT_RKT0_, symObjAddr: 0x833C, symBinAddr: 0x10000B6F4, symSize: 0x50 }
  - { offset: 0x3CBFD, size: 0x8, addend: 0x0, symName: __ZN5Eigen8internal15call_assignmentINS_6MatrixIdLin1ELin1ELi0ELin1ELin1EEENS_14CwiseNullaryOpINS0_18scalar_constant_opIdEES3_EENS0_9assign_opIddEEEEvRT_RKT0_RKT1_NS0_9enable_ifIXntsr25evaluator_assume_aliasingISC_EE5valueEPvE4typeE, symObjAddr: 0x83A0, symBinAddr: 0x10000B758, symSize: 0x38 }
  - { offset: 0x3CC6B, size: 0x8, addend: 0x0, symName: __ZN5Eigen8internal24call_assignment_no_aliasINS_6MatrixIdLin1ELin1ELi0ELin1ELin1EEENS_14CwiseNullaryOpINS0_18scalar_constant_opIdEES3_EENS0_9assign_opIddEEEEvRT_RKT0_RKT1_, symObjAddr: 0x83D8, symBinAddr: 0x10000B790, symSize: 0x3C }
  - { offset: 0x3CD39, size: 0x8, addend: 0x0, symName: __ZN5Eigen8internal18check_for_aliasingINS_6MatrixIdLin1ELin1ELi0ELin1ELin1EEENS_14CwiseNullaryOpINS0_18scalar_constant_opIdEES3_EEEEvRKT_RKT0_, symObjAddr: 0x8454, symBinAddr: 0x10000B80C, symSize: 0x60 }
  - { offset: 0x3CD84, size: 0x8, addend: 0x0, symName: __ZN5Eigen8internal26call_dense_assignment_loopINS_6MatrixIdLin1ELin1ELi0ELin1ELin1EEEEEvRT_RKNS_14CwiseNullaryOpINS0_18scalar_constant_opINS4_6ScalarEEES4_EERKNS0_9assign_opIS8_S8_EE, symObjAddr: 0x84B4, symBinAddr: 0x10000B86C, symSize: 0x6C }
  - { offset: 0x3CE13, size: 0x8, addend: 0x0, symName: __ZN5Eigen8internal17resize_if_allowedINS_6MatrixIdLin1ELin1ELi0ELin1ELin1EEENS_14CwiseNullaryOpINS0_18scalar_constant_opIdEES3_EEddEEvRT_RKT0_RKNS0_9assign_opIT1_T2_EE, symObjAddr: 0x8534, symBinAddr: 0x10000B8EC, symSize: 0xF8 }
  - { offset: 0x3CECD, size: 0x8, addend: 0x0, symName: __ZN5Eigen8internal15call_assignmentINS_6MatrixIdLin1ELin1ELi0ELin1ELin1EEENS_14CwiseNullaryOpINS0_18scalar_identity_opIdEES3_EEEEvRT_RKT0_, symObjAddr: 0x8B34, symBinAddr: 0x10000BEEC, symSize: 0x50 }
  - { offset: 0x3CF18, size: 0x8, addend: 0x0, symName: __ZN5Eigen8internal15call_assignmentINS_6MatrixIdLin1ELin1ELi0ELin1ELin1EEENS_14CwiseNullaryOpINS0_18scalar_identity_opIdEES3_EENS0_9assign_opIddEEEEvRT_RKT0_RKT1_NS0_9enable_ifIXntsr25evaluator_assume_aliasingISC_EE5valueEPvE4typeE, symObjAddr: 0x8B98, symBinAddr: 0x10000BF50, symSize: 0x38 }
  - { offset: 0x3CF86, size: 0x8, addend: 0x0, symName: __ZN5Eigen8internal24call_assignment_no_aliasINS_6MatrixIdLin1ELin1ELi0ELin1ELin1EEENS_14CwiseNullaryOpINS0_18scalar_identity_opIdEES3_EENS0_9assign_opIddEEEEvRT_RKT0_RKT1_, symObjAddr: 0x8BD0, symBinAddr: 0x10000BF88, symSize: 0x3C }
  - { offset: 0x3D054, size: 0x8, addend: 0x0, symName: __ZN5Eigen8internal18check_for_aliasingINS_6MatrixIdLin1ELin1ELi0ELin1ELin1EEENS_14CwiseNullaryOpINS0_18scalar_identity_opIdEES3_EEEEvRKT_RKT0_, symObjAddr: 0x8C4C, symBinAddr: 0x10000C004, symSize: 0x60 }
  - { offset: 0x3D09F, size: 0x8, addend: 0x0, symName: __ZN5Eigen8internal26call_dense_assignment_loopINS_6MatrixIdLin1ELin1ELi0ELin1ELin1EEENS_14CwiseNullaryOpINS0_18scalar_identity_opIdEES3_EENS0_9assign_opIddEEEEvRT_RKT0_RKT1_, symObjAddr: 0x8CAC, symBinAddr: 0x10000C064, symSize: 0xD8 }
  - { offset: 0x3D2EA, size: 0x8, addend: 0x0, symName: __ZN5Eigen8internal17resize_if_allowedINS_6MatrixIdLin1ELin1ELi0ELin1ELin1EEENS_14CwiseNullaryOpINS0_18scalar_identity_opIdEES3_EEddEEvRT_RKT0_RKNS0_9assign_opIT1_T2_EE, symObjAddr: 0x8DCC, symBinAddr: 0x10000C184, symSize: 0xF8 }
  - { offset: 0x3D5C2, size: 0x8, addend: 0x0, symName: __ZN5Eigen8internal15call_assignmentINS_6MatrixIdLin1ELin1ELi0ELin1ELin1EEENS_13CwiseBinaryOpINS0_18scalar_quotient_opIddEEKS3_KNS_14CwiseNullaryOpINS0_18scalar_constant_opIdEES7_EEEEEEvRT_RKT0_, symObjAddr: 0x97F0, symBinAddr: 0x10000CBA8, symSize: 0x50 }
  - { offset: 0x3D60D, size: 0x8, addend: 0x0, symName: __ZN5Eigen8internal15call_assignmentINS_6MatrixIdLin1ELin1ELi0ELin1ELin1EEENS_13CwiseBinaryOpINS0_18scalar_quotient_opIddEEKS3_KNS_14CwiseNullaryOpINS0_18scalar_constant_opIdEES7_EEEENS0_9assign_opIddEEEEvRT_RKT0_RKT1_NS0_9enable_ifIXntsr25evaluator_assume_aliasingISI_EE5valueEPvE4typeE, symObjAddr: 0x9840, symBinAddr: 0x10000CBF8, symSize: 0x38 }
  - { offset: 0x3D67B, size: 0x8, addend: 0x0, symName: __ZN5Eigen8internal24call_assignment_no_aliasINS_6MatrixIdLin1ELin1ELi0ELin1ELin1EEENS_13CwiseBinaryOpINS0_18scalar_quotient_opIddEEKS3_KNS_14CwiseNullaryOpINS0_18scalar_constant_opIdEES7_EEEENS0_9assign_opIddEEEEvRT_RKT0_RKT1_, symObjAddr: 0x9878, symBinAddr: 0x10000CC30, symSize: 0x3C }
  - { offset: 0x3D749, size: 0x8, addend: 0x0, symName: __ZN5Eigen8internal18check_for_aliasingINS_6MatrixIdLin1ELin1ELi0ELin1ELin1EEENS_13CwiseBinaryOpINS0_18scalar_quotient_opIddEEKS3_KNS_14CwiseNullaryOpINS0_18scalar_constant_opIdEES7_EEEEEEvRKT_RKT0_, symObjAddr: 0x98F4, symBinAddr: 0x10000CCAC, symSize: 0x60 }
  - { offset: 0x3D794, size: 0x8, addend: 0x0, symName: __ZN5Eigen8internal26call_dense_assignment_loopINS_6MatrixIdLin1ELin1ELi0ELin1ELin1EEENS_13CwiseBinaryOpINS0_18scalar_quotient_opIddEEKS3_KNS_14CwiseNullaryOpINS0_18scalar_constant_opIdEES7_EEEENS0_9assign_opIddEEEEvRT_RKT0_RKT1_, symObjAddr: 0x9954, symBinAddr: 0x10000CD0C, symSize: 0xD8 }
  - { offset: 0x3D886, size: 0x8, addend: 0x0, symName: __ZN5Eigen8internal17resize_if_allowedINS_6MatrixIdLin1ELin1ELi0ELin1ELin1EEENS_13CwiseBinaryOpINS0_18scalar_quotient_opIddEEKS3_KNS_14CwiseNullaryOpINS0_18scalar_constant_opIdEES7_EEEEddEEvRT_RKT0_RKNS0_9assign_opIT1_T2_EE, symObjAddr: 0x9A74, symBinAddr: 0x10000CE2C, symSize: 0xF8 }
  - { offset: 0x3D90C, size: 0x8, addend: 0x0, symName: __ZN5Eigen8internal4pdivI19__simd128_float64_tEET_RKS3_S5_, symObjAddr: 0xA2C8, symBinAddr: 0x10000D680, symSize: 0x40 }
  - { offset: 0x3D952, size: 0x8, addend: 0x0, symName: __ZN5Eigen8internal5pset1I19__simd128_float64_tEET_RKNS0_15unpacket_traitsIS3_E4typeE, symObjAddr: 0xA35C, symBinAddr: 0x10000D714, symSize: 0x44 }
  - { offset: 0x3D9B3, size: 0x8, addend: 0x0, symName: __ZN5Eigen8internal17get_runtime_valueIlEElRKT_, symObjAddr: 0xB2A4, symBinAddr: 0x10000E65C, symSize: 0x18 }
  - { offset: 0x3DC9D, size: 0x8, addend: 0x0, symName: __ZN5Eigen8internalL21first_default_alignedINS_12CwiseUnaryOpINS0_14scalar_abs2_opIdEEKNS_5BlockIKNS5_INS5_INS_6MatrixIdLin1ELin1ELi0ELin1ELin1EEELin1ELi1ELb1EEELin1ELi1ELb0EEELin1ELi1ELb0EEEEEEElRKNS_9DenseBaseIT_EE, symObjAddr: 0xD6C0, symBinAddr: 0x100010A78, symSize: 0x24 }
  - { offset: 0x3DCD4, size: 0x8, addend: 0x0, symName: __ZN5Eigen8internalL13first_alignedILi16ENS_12CwiseUnaryOpINS0_14scalar_abs2_opIdEEKNS_5BlockIKNS5_INS5_INS_6MatrixIdLin1ELin1ELi0ELin1ELin1EEELin1ELi1ELb1EEELin1ELi1ELb0EEELin1ELi1ELb0EEEEEEElRKNS_9DenseBaseIT0_EE, symObjAddr: 0xD808, symBinAddr: 0x100010BC0, symSize: 0x28 }
  - { offset: 0x3DD84, size: 0x8, addend: 0x0, symName: __ZN5Eigen8internal4pmulI19__simd128_float64_tEET_RKS3_S5_, symObjAddr: 0xD8D8, symBinAddr: 0x100010C90, symSize: 0x40 }
  - { offset: 0x3DDCA, size: 0x8, addend: 0x0, symName: __ZN5Eigen8internal6ploaduI19__simd128_float64_tEET_PKNS0_15unpacket_traitsIS3_E4typeE, symObjAddr: 0xD918, symBinAddr: 0x100010CD0, symSize: 0x28 }
  - { offset: 0x3DE1E, size: 0x8, addend: 0x0, symName: __ZN5Eigen8internal4paddI19__simd128_float64_tEET_RKS3_S5_, symObjAddr: 0xD940, symBinAddr: 0x100010CF8, symSize: 0x40 }
  - { offset: 0x3DE64, size: 0x8, addend: 0x0, symName: __ZN5Eigen8internal6preduxI19__simd128_float64_tEENS0_15unpacket_traitsIT_E4typeERKS4_, symObjAddr: 0xD980, symBinAddr: 0x100010D38, symSize: 0x50 }
  - { offset: 0x3DF4E, size: 0x8, addend: 0x0, symName: __ZN5Eigen8internal15call_assignmentINS_5BlockINS2_INS2_INS_6MatrixIdLin1ELin1ELi0ELin1ELin1EEELin1ELi1ELb1EEELin1ELi1ELb0EEELin1ELi1ELb0EEENS_14CwiseNullaryOpINS0_18scalar_constant_opIdEENS3_IdLin1ELi1ELi0ELin1ELi1EEEEEEEvRT_RKT0_, symObjAddr: 0xE3C0, symBinAddr: 0x100011778, symSize: 0x50 }
  - { offset: 0x3DF99, size: 0x8, addend: 0x0, symName: __ZN5Eigen8internal15call_assignmentINS_5BlockINS2_INS2_INS_6MatrixIdLin1ELin1ELi0ELin1ELin1EEELin1ELi1ELb1EEELin1ELi1ELb0EEELin1ELi1ELb0EEENS_14CwiseNullaryOpINS0_18scalar_constant_opIdEENS3_IdLin1ELi1ELi0ELin1ELi1EEEEENS0_9assign_opIddEEEEvRT_RKT0_RKT1_NS0_9enable_ifIXntsr25evaluator_assume_aliasingISH_EE5valueEPvE4typeE, symObjAddr: 0xE410, symBinAddr: 0x1000117C8, symSize: 0x38 }
  - { offset: 0x3E007, size: 0x8, addend: 0x0, symName: __ZN5Eigen8internal24call_assignment_no_aliasINS_5BlockINS2_INS2_INS_6MatrixIdLin1ELin1ELi0ELin1ELin1EEELin1ELi1ELb1EEELin1ELi1ELb0EEELin1ELi1ELb0EEENS_14CwiseNullaryOpINS0_18scalar_constant_opIdEENS3_IdLin1ELi1ELi0ELin1ELi1EEEEENS0_9assign_opIddEEEEvRT_RKT0_RKT1_, symObjAddr: 0xE448, symBinAddr: 0x100011800, symSize: 0x3C }
  - { offset: 0x3E0D5, size: 0x8, addend: 0x0, symName: __ZN5Eigen8internal18check_for_aliasingINS_5BlockINS2_INS2_INS_6MatrixIdLin1ELin1ELi0ELin1ELin1EEELin1ELi1ELb1EEELin1ELi1ELb0EEELin1ELi1ELb0EEENS_14CwiseNullaryOpINS0_18scalar_constant_opIdEENS3_IdLin1ELi1ELi0ELin1ELi1EEEEEEEvRKT_RKT0_, symObjAddr: 0xE4C4, symBinAddr: 0x10001187C, symSize: 0x14 }
  - { offset: 0x3E120, size: 0x8, addend: 0x0, symName: __ZN5Eigen8internal26call_dense_assignment_loopINS_5BlockINS2_INS2_INS_6MatrixIdLin1ELin1ELi0ELin1ELin1EEELin1ELi1ELb1EEELin1ELi1ELb0EEELin1ELi1ELb0EEENS_14CwiseNullaryOpINS0_18scalar_constant_opIdEENS3_IdLin1ELi1ELi0ELin1ELi1EEEEENS0_9assign_opIddEEEEvRT_RKT0_RKT1_, symObjAddr: 0xE4D8, symBinAddr: 0x100011890, symSize: 0xE0 }
  - { offset: 0x3E1D4, size: 0x8, addend: 0x0, symName: __ZN5Eigen8internal17resize_if_allowedINS_5BlockINS2_INS2_INS_6MatrixIdLin1ELin1ELi0ELin1ELin1EEELin1ELi1ELb1EEELin1ELi1ELb0EEELin1ELi1ELb0EEENS_14CwiseNullaryOpINS0_18scalar_constant_opIdEENS3_IdLin1ELi1ELi0ELin1ELi1EEEEEddEEvRT_RKT0_RKNS0_9assign_opIT1_T2_EE, symObjAddr: 0xE5EC, symBinAddr: 0x1000119A4, symSize: 0xF8 }
  - { offset: 0x3E25A, size: 0x8, addend: 0x0, symName: __ZN5Eigen8internal13first_alignedILi16EdlEET1_PKT0_S2_, symObjAddr: 0xED2C, symBinAddr: 0x1000120E4, symSize: 0xAC }
  - { offset: 0x3E2FD, size: 0x8, addend: 0x0, symName: __ZN5Eigen8internal15call_assignmentINS_5BlockINS2_INS2_INS_6MatrixIdLin1ELin1ELi0ELin1ELin1EEELin1ELi1ELb1EEELin1ELi1ELb0EEELin1ELi1ELb0EEENS_13CwiseBinaryOpINS0_18scalar_quotient_opIddEEKNS2_IKS6_Lin1ELi1ELb0EEEKNS_14CwiseNullaryOpINS0_18scalar_constant_opIdEEKNS3_IdLin1ELi1ELi0ELin1ELi1EEEEEEEEEvRT_RKT0_, symObjAddr: 0xF5C8, symBinAddr: 0x100012980, symSize: 0x50 }
  - { offset: 0x3E348, size: 0x8, addend: 0x0, symName: __ZN5Eigen8internal15call_assignmentINS_5BlockINS2_INS2_INS_6MatrixIdLin1ELin1ELi0ELin1ELin1EEELin1ELi1ELb1EEELin1ELi1ELb0EEELin1ELi1ELb0EEENS_13CwiseBinaryOpINS0_18scalar_quotient_opIddEEKNS2_IKS6_Lin1ELi1ELb0EEEKNS_14CwiseNullaryOpINS0_18scalar_constant_opIdEEKNS3_IdLin1ELi1ELi0ELin1ELi1EEEEEEENS0_9assign_opIddEEEEvRT_RKT0_RKT1_NS0_9enable_ifIXntsr25evaluator_assume_aliasingISQ_EE5valueEPvE4typeE, symObjAddr: 0xF618, symBinAddr: 0x1000129D0, symSize: 0x38 }
  - { offset: 0x3E3B6, size: 0x8, addend: 0x0, symName: __ZN5Eigen8internal24call_assignment_no_aliasINS_5BlockINS2_INS2_INS_6MatrixIdLin1ELin1ELi0ELin1ELin1EEELin1ELi1ELb1EEELin1ELi1ELb0EEELin1ELi1ELb0EEENS_13CwiseBinaryOpINS0_18scalar_quotient_opIddEEKNS2_IKS6_Lin1ELi1ELb0EEEKNS_14CwiseNullaryOpINS0_18scalar_constant_opIdEEKNS3_IdLin1ELi1ELi0ELin1ELi1EEEEEEENS0_9assign_opIddEEEEvRT_RKT0_RKT1_, symObjAddr: 0xF650, symBinAddr: 0x100012A08, symSize: 0x3C }
  - { offset: 0x3E484, size: 0x8, addend: 0x0, symName: __ZN5Eigen8internal18check_for_aliasingINS_5BlockINS2_INS2_INS_6MatrixIdLin1ELin1ELi0ELin1ELin1EEELin1ELi1ELb1EEELin1ELi1ELb0EEELin1ELi1ELb0EEENS_13CwiseBinaryOpINS0_18scalar_quotient_opIddEEKNS2_IKS6_Lin1ELi1ELb0EEEKNS_14CwiseNullaryOpINS0_18scalar_constant_opIdEEKNS3_IdLin1ELi1ELi0ELin1ELi1EEEEEEEEEvRKT_RKT0_, symObjAddr: 0xF6CC, symBinAddr: 0x100012A84, symSize: 0x14 }
  - { offset: 0x3E4CF, size: 0x8, addend: 0x0, symName: __ZN5Eigen8internal26call_dense_assignment_loopINS_5BlockINS2_INS2_INS_6MatrixIdLin1ELin1ELi0ELin1ELin1EEELin1ELi1ELb1EEELin1ELi1ELb0EEELin1ELi1ELb0EEENS_13CwiseBinaryOpINS0_18scalar_quotient_opIddEEKNS2_IKS6_Lin1ELi1ELb0EEEKNS_14CwiseNullaryOpINS0_18scalar_constant_opIdEEKNS3_IdLin1ELi1ELi0ELin1ELi1EEEEEEENS0_9assign_opIddEEEEvRT_RKT0_RKT1_, symObjAddr: 0xF6E0, symBinAddr: 0x100012A98, symSize: 0xD8 }
  - { offset: 0x3E584, size: 0x8, addend: 0x0, symName: __ZN5Eigen8internal17resize_if_allowedINS_5BlockINS2_INS2_INS_6MatrixIdLin1ELin1ELi0ELin1ELin1EEELin1ELi1ELb1EEELin1ELi1ELb0EEELin1ELi1ELb0EEENS_13CwiseBinaryOpINS0_18scalar_quotient_opIddEEKNS2_IKS6_Lin1ELi1ELb0EEEKNS_14CwiseNullaryOpINS0_18scalar_constant_opIdEEKNS3_IdLin1ELi1ELi0ELin1ELi1EEEEEEEddEEvRT_RKT0_RKNS0_9assign_opIT1_T2_EE, symObjAddr: 0xF7EC, symBinAddr: 0x100012BA4, symSize: 0xF8 }
  - { offset: 0x3E60A, size: 0x8, addend: 0x0, symName: __ZN5Eigen8internal15call_assignmentINS_5BlockINS_6MatrixIdLin1ELin1ELi0ELin1ELin1EEELin1ELin1ELb0EEENS_14CwiseNullaryOpINS0_18scalar_constant_opIdEES4_EENS0_13mul_assign_opIddEEEEvRT_RKT0_RKT1_NS0_9enable_ifIXntsr25evaluator_assume_aliasingISE_EE5valueEPvE4typeE, symObjAddr: 0x10CC4, symBinAddr: 0x10001407C, symSize: 0x38 }
  - { offset: 0x3E678, size: 0x8, addend: 0x0, symName: __ZN5Eigen8internal24call_assignment_no_aliasINS_5BlockINS_6MatrixIdLin1ELin1ELi0ELin1ELin1EEELin1ELin1ELb0EEENS_14CwiseNullaryOpINS0_18scalar_constant_opIdEES4_EENS0_13mul_assign_opIddEEEEvRT_RKT0_RKT1_, symObjAddr: 0x10D28, symBinAddr: 0x1000140E0, symSize: 0x3C }
  - { offset: 0x3E746, size: 0x8, addend: 0x0, symName: __ZN5Eigen8internal18check_for_aliasingINS_5BlockINS_6MatrixIdLin1ELin1ELi0ELin1ELin1EEELin1ELin1ELb0EEENS_14CwiseNullaryOpINS0_18scalar_constant_opIdEES4_EEEEvRKT_RKT0_, symObjAddr: 0x10DA4, symBinAddr: 0x10001415C, symSize: 0x60 }
  - { offset: 0x3E791, size: 0x8, addend: 0x0, symName: __ZN5Eigen8internal26call_dense_assignment_loopINS_5BlockINS_6MatrixIdLin1ELin1ELi0ELin1ELin1EEELin1ELin1ELb0EEENS_14CwiseNullaryOpINS0_18scalar_constant_opIdEES4_EENS0_13mul_assign_opIddEEEEvRT_RKT0_RKT1_, symObjAddr: 0x10E04, symBinAddr: 0x1000141BC, symSize: 0xE0 }
  - { offset: 0x3E883, size: 0x8, addend: 0x0, symName: __ZN5Eigen8internal17resize_if_allowedINS_5BlockINS_6MatrixIdLin1ELin1ELi0ELin1ELin1EEELin1ELin1ELb0EEENS_14CwiseNullaryOpINS0_18scalar_constant_opIdEES4_EENS0_13mul_assign_opIddEEEEvRT_RKT0_RKT1_, symObjAddr: 0x10F54, symBinAddr: 0x10001430C, symSize: 0xB4 }
  - { offset: 0x3E91C, size: 0x8, addend: 0x0, symName: __ZN5Eigen8internal24call_assignment_no_aliasINS_3MapINS_6MatrixIdLi1ELin1ELi1ELi1ELin1EEELi0ENS_6StrideILi0ELi0EEEEENS_7ProductINS_9TransposeIKNS_5BlockINSA_INS3_IdLin1ELin1ELi0ELin1ELin1EEELin1ELi1ELb1EEELin1ELi1ELb0EEEEENSA_INSA_ISB_Lin1ELin1ELb0EEELin1ELin1ELb0EEELi0EEENS0_9assign_opIddEEEEvRT_RKT0_RKT1_, symObjAddr: 0x1283C, symBinAddr: 0x100015BF4, symSize: 0x3C }
  - { offset: 0x3EB01, size: 0x8, addend: 0x0, symName: __ZN5Eigen8internal15call_assignmentINS_3MapINS_6MatrixIdLi1ELin1ELi1ELi1ELin1EEELi0ENS_6StrideILi0ELi0EEEEENS_14CwiseNullaryOpINS0_18scalar_constant_opIdEES4_EEEEvRT_RKT0_, symObjAddr: 0x12F5C, symBinAddr: 0x100016314, symSize: 0x50 }
  - { offset: 0x3EB4C, size: 0x8, addend: 0x0, symName: __ZN5Eigen8internal15call_assignmentINS_3MapINS_6MatrixIdLi1ELin1ELi1ELi1ELin1EEELi0ENS_6StrideILi0ELi0EEEEENS_14CwiseNullaryOpINS0_18scalar_constant_opIdEES4_EENS0_9assign_opIddEEEEvRT_RKT0_RKT1_NS0_9enable_ifIXntsr25evaluator_assume_aliasingISG_EE5valueEPvE4typeE, symObjAddr: 0x12FAC, symBinAddr: 0x100016364, symSize: 0x38 }
  - { offset: 0x3EBBA, size: 0x8, addend: 0x0, symName: __ZN5Eigen8internal24call_assignment_no_aliasINS_3MapINS_6MatrixIdLi1ELin1ELi1ELi1ELin1EEELi0ENS_6StrideILi0ELi0EEEEENS_14CwiseNullaryOpINS0_18scalar_constant_opIdEES4_EENS0_9assign_opIddEEEEvRT_RKT0_RKT1_, symObjAddr: 0x12FE4, symBinAddr: 0x10001639C, symSize: 0x3C }
  - { offset: 0x3EC88, size: 0x8, addend: 0x0, symName: __ZN5Eigen8internal18check_for_aliasingINS_3MapINS_6MatrixIdLi1ELin1ELi1ELi1ELin1EEELi0ENS_6StrideILi0ELi0EEEEENS_14CwiseNullaryOpINS0_18scalar_constant_opIdEES4_EEEEvRKT_RKT0_, symObjAddr: 0x13060, symBinAddr: 0x100016418, symSize: 0x14 }
  - { offset: 0x3ECD3, size: 0x8, addend: 0x0, symName: __ZN5Eigen8internal26call_dense_assignment_loopINS_3MapINS_6MatrixIdLi1ELin1ELi1ELi1ELin1EEELi0ENS_6StrideILi0ELi0EEEEENS_14CwiseNullaryOpINS0_18scalar_constant_opIdEES4_EENS0_9assign_opIddEEEEvRT_RKT0_RKT1_, symObjAddr: 0x13074, symBinAddr: 0x10001642C, symSize: 0xE0 }
  - { offset: 0x3ED87, size: 0x8, addend: 0x0, symName: __ZN5Eigen8internal17resize_if_allowedINS_3MapINS_6MatrixIdLi1ELin1ELi1ELi1ELin1EEELi0ENS_6StrideILi0ELi0EEEEENS_14CwiseNullaryOpINS0_18scalar_constant_opIdEES4_EEddEEvRT_RKT0_RKNS0_9assign_opIT1_T2_EE, symObjAddr: 0x13188, symBinAddr: 0x100016540, symSize: 0xF8 }
  - { offset: 0x3F58B, size: 0x8, addend: 0x0, symName: __ZN5Eigen8internalL21first_default_alignedINS_13CwiseBinaryOpINS0_22scalar_conj_product_opIddEEKNS_9TransposeIKNS_5BlockIKNS5_IKNS6_INS6_INS_6MatrixIdLin1ELin1ELi0ELin1ELin1EEELin1ELi1ELb1EEELin1ELi1ELb0EEEEELi1ELin1ELb1EEEEEKNS6_IKNS6_INS6_IS8_Lin1ELin1ELb0EEELin1ELin1ELb0EEELin1ELi1ELb1EEEEEEElRKNS_9DenseBaseIT_EE, symObjAddr: 0x15914, symBinAddr: 0x100018CCC, symSize: 0x24 }
  - { offset: 0x3F5C2, size: 0x8, addend: 0x0, symName: __ZN5Eigen8internalL13first_alignedILi16ENS_13CwiseBinaryOpINS0_22scalar_conj_product_opIddEEKNS_9TransposeIKNS_5BlockIKNS5_IKNS6_INS6_INS_6MatrixIdLin1ELin1ELi0ELin1ELin1EEELin1ELi1ELb1EEELin1ELi1ELb0EEEEELi1ELin1ELb1EEEEEKNS6_IKNS6_INS6_IS8_Lin1ELin1ELb0EEELin1ELin1ELb0EEELin1ELi1ELb1EEEEEEElRKNS_9DenseBaseIT0_EE, symObjAddr: 0x15A18, symBinAddr: 0x100018DD0, symSize: 0x28 }
  - { offset: 0x3F7A4, size: 0x8, addend: 0x0, symName: __ZN5Eigen8internal4pmulIdEET_RKS2_S4_, symObjAddr: 0x15CC8, symBinAddr: 0x100019080, symSize: 0x28 }
  - { offset: 0x3F961, size: 0x8, addend: 0x0, symName: __ZN5Eigen8internal5pmaddI19__simd128_float64_tEET_RKS3_S5_S5_, symObjAddr: 0x1889C, symBinAddr: 0x10001BC54, symSize: 0x54 }
  - { offset: 0x3F9B6, size: 0x8, addend: 0x0, symName: __ZN5Eigen8internal15call_assignmentINS_3MapINS_6MatrixIdLi1ELin1ELi1ELi1ELin1EEELi0ENS_6StrideILi0ELi0EEEEENS_5BlockINS8_INS3_IdLin1ELin1ELi0ELin1ELin1EEELin1ELin1ELb0EEELi1ELin1ELb0EEENS0_13add_assign_opIddEEEEvRT_RKT0_RKT1_NS0_9enable_ifIXntsr25evaluator_assume_aliasingISG_EE5valueEPvE4typeE, symObjAddr: 0x19284, symBinAddr: 0x10001C63C, symSize: 0x38 }
  - { offset: 0x3FA24, size: 0x8, addend: 0x0, symName: __ZN5Eigen8internal24call_assignment_no_aliasINS_3MapINS_6MatrixIdLi1ELin1ELi1ELi1ELin1EEELi0ENS_6StrideILi0ELi0EEEEENS_5BlockINS8_INS3_IdLin1ELin1ELi0ELin1ELin1EEELin1ELin1ELb0EEELi1ELin1ELb0EEENS0_13add_assign_opIddEEEEvRT_RKT0_RKT1_, symObjAddr: 0x192FC, symBinAddr: 0x10001C6B4, symSize: 0x3C }
  - { offset: 0x3FAF2, size: 0x8, addend: 0x0, symName: __ZN5Eigen8internal18check_for_aliasingINS_3MapINS_6MatrixIdLi1ELin1ELi1ELi1ELin1EEELi0ENS_6StrideILi0ELi0EEEEENS_5BlockINS8_INS3_IdLin1ELin1ELi0ELin1ELin1EEELin1ELin1ELb0EEELi1ELin1ELb0EEEEEvRKT_RKT0_, symObjAddr: 0x19378, symBinAddr: 0x10001C730, symSize: 0x14 }
  - { offset: 0x3FB3D, size: 0x8, addend: 0x0, symName: __ZN5Eigen8internal26call_dense_assignment_loopINS_3MapINS_6MatrixIdLi1ELin1ELi1ELi1ELin1EEELi0ENS_6StrideILi0ELi0EEEEENS_5BlockINS8_INS3_IdLin1ELin1ELi0ELin1ELin1EEELin1ELin1ELb0EEELi1ELin1ELb0EEENS0_13add_assign_opIddEEEEvRT_RKT0_RKT1_, symObjAddr: 0x1938C, symBinAddr: 0x10001C744, symSize: 0xD8 }
  - { offset: 0x3FCAD, size: 0x8, addend: 0x0, symName: __ZN5Eigen8internal17resize_if_allowedINS_3MapINS_6MatrixIdLi1ELin1ELi1ELi1ELin1EEELi0ENS_6StrideILi0ELi0EEEEENS_5BlockINS8_INS3_IdLin1ELin1ELi0ELin1ELin1EEELin1ELin1ELb0EEELi1ELin1ELb0EEENS0_13add_assign_opIddEEEEvRT_RKT0_RKT1_, symObjAddr: 0x19498, symBinAddr: 0x10001C850, symSize: 0xB4 }
  - { offset: 0x3FF5E, size: 0x8, addend: 0x0, symName: __ZN5Eigen8internal15call_assignmentINS_5BlockINS2_INS_6MatrixIdLin1ELin1ELi0ELin1ELin1EEELin1ELin1ELb0EEELi1ELin1ELb0EEENS_13CwiseBinaryOpINS0_17scalar_product_opIddEEKNS_14CwiseNullaryOpINS0_18scalar_constant_opIdEEKNS3_IdLi1ELin1ELi1ELi1ELin1EEEEEKNS_3MapISD_Li0ENS_6StrideILi0ELi0EEEEEEENS0_13sub_assign_opIddEEEEvRT_RKT0_RKT1_NS0_9enable_ifIXntsr25evaluator_assume_aliasingISR_EE5valueEPvE4typeE, symObjAddr: 0x19F20, symBinAddr: 0x10001D2D8, symSize: 0x38 }
  - { offset: 0x3FFCC, size: 0x8, addend: 0x0, symName: __ZN5Eigen8internal24call_assignment_no_aliasINS_5BlockINS2_INS_6MatrixIdLin1ELin1ELi0ELin1ELin1EEELin1ELin1ELb0EEELi1ELin1ELb0EEENS_13CwiseBinaryOpINS0_17scalar_product_opIddEEKNS_14CwiseNullaryOpINS0_18scalar_constant_opIdEEKNS3_IdLi1ELin1ELi1ELi1ELin1EEEEEKNS_3MapISD_Li0ENS_6StrideILi0ELi0EEEEEEENS0_13sub_assign_opIddEEEEvRT_RKT0_RKT1_, symObjAddr: 0x19FAC, symBinAddr: 0x10001D364, symSize: 0x3C }
  - { offset: 0x4009A, size: 0x8, addend: 0x0, symName: __ZN5Eigen8internal18check_for_aliasingINS_5BlockINS2_INS_6MatrixIdLin1ELin1ELi0ELin1ELin1EEELin1ELin1ELb0EEELi1ELin1ELb0EEENS_13CwiseBinaryOpINS0_17scalar_product_opIddEEKNS_14CwiseNullaryOpINS0_18scalar_constant_opIdEEKNS3_IdLi1ELin1ELi1ELi1ELin1EEEEEKNS_3MapISD_Li0ENS_6StrideILi0ELi0EEEEEEEEEvRKT_RKT0_, symObjAddr: 0x1A028, symBinAddr: 0x10001D3E0, symSize: 0x14 }
  - { offset: 0x400E5, size: 0x8, addend: 0x0, symName: __ZN5Eigen8internal26call_dense_assignment_loopINS_5BlockINS2_INS_6MatrixIdLin1ELin1ELi0ELin1ELin1EEELin1ELin1ELb0EEELi1ELin1ELb0EEENS_13CwiseBinaryOpINS0_17scalar_product_opIddEEKNS_14CwiseNullaryOpINS0_18scalar_constant_opIdEEKNS3_IdLi1ELin1ELi1ELi1ELin1EEEEEKNS_3MapISD_Li0ENS_6StrideILi0ELi0EEEEEEENS0_13sub_assign_opIddEEEEvRT_RKT0_RKT1_, symObjAddr: 0x1A03C, symBinAddr: 0x10001D3F4, symSize: 0xE0 }
  - { offset: 0x40393, size: 0x8, addend: 0x0, symName: __ZN5Eigen8internal17resize_if_allowedINS_5BlockINS2_INS_6MatrixIdLin1ELin1ELi0ELin1ELin1EEELin1ELin1ELb0EEELi1ELin1ELb0EEENS_13CwiseBinaryOpINS0_17scalar_product_opIddEEKNS_14CwiseNullaryOpINS0_18scalar_constant_opIdEEKNS3_IdLi1ELin1ELi1ELi1ELin1EEEEEKNS_3MapISD_Li0ENS_6StrideILi0ELi0EEEEEEENS0_13sub_assign_opIddEEEEvRT_RKT0_RKT1_, symObjAddr: 0x1A150, symBinAddr: 0x10001D508, symSize: 0xB4 }
  - { offset: 0x40644, size: 0x8, addend: 0x0, symName: __ZN5Eigen8internal24call_assignment_no_aliasINS_5BlockINS2_INS_6MatrixIdLin1ELin1ELi0ELin1ELin1EEELin1ELin1ELb0EEELin1ELin1ELb0EEENS_7ProductINS_13CwiseBinaryOpINS0_17scalar_product_opIddEEKNS_14CwiseNullaryOpINS0_18scalar_constant_opIdEEKNS3_IdLin1ELi1ELi0ELin1ELi1EEEEEKNS2_INS2_IS4_Lin1ELi1ELb1EEELin1ELi1ELb0EEEEENS_3MapINS3_IdLi1ELin1ELi1ELi1ELin1EEELi0ENS_6StrideILi0ELi0EEEEELi0EEENS0_13sub_assign_opIddEEEEvRT_RKT0_RKT1_, symObjAddr: 0x1AFF4, symBinAddr: 0x10001E3AC, symSize: 0x3C }
  - { offset: 0x407B2, size: 0x8, addend: 0x0, symName: __ZN5Eigen8internal26outer_product_selector_runINS_5BlockINS2_INS_6MatrixIdLin1ELin1ELi0ELin1ELin1EEELin1ELin1ELb0EEELin1ELin1ELb0EEENS_13CwiseBinaryOpINS0_17scalar_product_opIddEEKNS_14CwiseNullaryOpINS0_18scalar_constant_opIdEEKNS3_IdLin1ELi1ELi0ELin1ELi1EEEEEKNS2_INS2_IS4_Lin1ELi1ELb1EEELin1ELi1ELb0EEEEENS_3MapINS3_IdLi1ELin1ELi1ELi1ELin1EEELi0ENS_6StrideILi0ELi0EEEEENS0_20generic_product_implISK_SP_NS_10DenseShapeESR_Li5EE3subEEEvRT_RKT0_RKT1_RKT2_RKNS0_10false_typeE, symObjAddr: 0x1B200, symBinAddr: 0x10001E5B8, symSize: 0x228 }
  - { offset: 0x4089B, size: 0x8, addend: 0x0, symName: __ZN5Eigen8internal15call_assignmentINS_3MapINS_6MatrixIdLin1ELi1ELi0ELin1ELi1EEELi16ENS_6StrideILi0ELi0EEEEENS_13CwiseBinaryOpINS0_17scalar_product_opIddEEKNS_14CwiseNullaryOpINS0_18scalar_constant_opIdEEKS4_EEKNS_5BlockINSH_INS3_IdLin1ELin1ELi0ELin1ELin1EEELin1ELi1ELb1EEELin1ELi1ELb0EEEEEEEvRT_RKT0_, symObjAddr: 0x1BBCC, symBinAddr: 0x10001EF84, symSize: 0x50 }
  - { offset: 0x408E6, size: 0x8, addend: 0x0, symName: __ZN5Eigen8internal15call_assignmentINS_3MapINS_6MatrixIdLin1ELi1ELi0ELin1ELi1EEELi16ENS_6StrideILi0ELi0EEEEENS_13CwiseBinaryOpINS0_17scalar_product_opIddEEKNS_14CwiseNullaryOpINS0_18scalar_constant_opIdEEKS4_EEKNS_5BlockINSH_INS3_IdLin1ELin1ELi0ELin1ELin1EEELin1ELi1ELb1EEELin1ELi1ELb0EEEEENS0_9assign_opIddEEEEvRT_RKT0_RKT1_NS0_9enable_ifIXntsr25evaluator_assume_aliasingISR_EE5valueEPvE4typeE, symObjAddr: 0x1BC30, symBinAddr: 0x10001EFE8, symSize: 0x38 }
  - { offset: 0x40954, size: 0x8, addend: 0x0, symName: __ZN5Eigen8internal24call_assignment_no_aliasINS_3MapINS_6MatrixIdLin1ELi1ELi0ELin1ELi1EEELi16ENS_6StrideILi0ELi0EEEEENS_13CwiseBinaryOpINS0_17scalar_product_opIddEEKNS_14CwiseNullaryOpINS0_18scalar_constant_opIdEEKS4_EEKNS_5BlockINSH_INS3_IdLin1ELin1ELi0ELin1ELin1EEELin1ELi1ELb1EEELin1ELi1ELb0EEEEENS0_9assign_opIddEEEEvRT_RKT0_RKT1_, symObjAddr: 0x1BC68, symBinAddr: 0x10001F020, symSize: 0x3C }
  - { offset: 0x40A22, size: 0x8, addend: 0x0, symName: __ZN5Eigen8internal18check_for_aliasingINS_3MapINS_6MatrixIdLin1ELi1ELi0ELin1ELi1EEELi16ENS_6StrideILi0ELi0EEEEENS_13CwiseBinaryOpINS0_17scalar_product_opIddEEKNS_14CwiseNullaryOpINS0_18scalar_constant_opIdEEKS4_EEKNS_5BlockINSH_INS3_IdLin1ELin1ELi0ELin1ELin1EEELin1ELi1ELb1EEELin1ELi1ELb0EEEEEEEvRKT_RKT0_, symObjAddr: 0x1BCE4, symBinAddr: 0x10001F09C, symSize: 0x14 }
  - { offset: 0x40A6D, size: 0x8, addend: 0x0, symName: __ZN5Eigen8internal26call_dense_assignment_loopINS_3MapINS_6MatrixIdLin1ELi1ELi0ELin1ELi1EEELi16ENS_6StrideILi0ELi0EEEEENS_13CwiseBinaryOpINS0_17scalar_product_opIddEEKNS_14CwiseNullaryOpINS0_18scalar_constant_opIdEEKS4_EEKNS_5BlockINSH_INS3_IdLin1ELin1ELi0ELin1ELin1EEELin1ELi1ELb1EEELin1ELi1ELb0EEEEENS0_9assign_opIddEEEEvRT_RKT0_RKT1_, symObjAddr: 0x1BCF8, symBinAddr: 0x10001F0B0, symSize: 0xE0 }
  - { offset: 0x40B22, size: 0x8, addend: 0x0, symName: __ZN5Eigen8internal17resize_if_allowedINS_3MapINS_6MatrixIdLin1ELi1ELi0ELin1ELi1EEELi16ENS_6StrideILi0ELi0EEEEENS_13CwiseBinaryOpINS0_17scalar_product_opIddEEKNS_14CwiseNullaryOpINS0_18scalar_constant_opIdEEKS4_EEKNS_5BlockINSH_INS3_IdLin1ELin1ELi0ELin1ELin1EEELin1ELi1ELb1EEELin1ELi1ELb0EEEEEddEEvRT_RKT0_RKNS0_9assign_opIT1_T2_EE, symObjAddr: 0x1BE0C, symBinAddr: 0x10001F1C4, symSize: 0xF8 }
  - { offset: 0x40BA8, size: 0x8, addend: 0x0, symName: __ZN5Eigen8internal15call_assignmentINS_5BlockINS2_INS2_INS_6MatrixIdLin1ELin1ELi0ELin1ELin1EEELin1ELin1ELb0EEELin1ELin1ELb0EEELin1ELi1ELb1EEENS_13CwiseBinaryOpINS0_17scalar_product_opIddEEKNS_14CwiseNullaryOpINS0_18scalar_constant_opIdEEKNS3_IdLin1ELi1ELi0ELin1ELi1EEEEEKNS_3MapISE_Li16ENS_6StrideILi0ELi0EEEEEEENS0_13sub_assign_opIddEEEEvRT_RKT0_RKT1_NS0_9enable_ifIXntsr25evaluator_assume_aliasingISS_EE5valueEPvE4typeE, symObjAddr: 0x1CB8C, symBinAddr: 0x10001FF44, symSize: 0x38 }
  - { offset: 0x40C16, size: 0x8, addend: 0x0, symName: __ZN5Eigen8internal24call_assignment_no_aliasINS_5BlockINS2_INS2_INS_6MatrixIdLin1ELin1ELi0ELin1ELin1EEELin1ELin1ELb0EEELin1ELin1ELb0EEELin1ELi1ELb1EEENS_13CwiseBinaryOpINS0_17scalar_product_opIddEEKNS_14CwiseNullaryOpINS0_18scalar_constant_opIdEEKNS3_IdLin1ELi1ELi0ELin1ELi1EEEEEKNS_3MapISE_Li16ENS_6StrideILi0ELi0EEEEEEENS0_13sub_assign_opIddEEEEvRT_RKT0_RKT1_, symObjAddr: 0x1CBEC, symBinAddr: 0x10001FFA4, symSize: 0x3C }
  - { offset: 0x40CE4, size: 0x8, addend: 0x0, symName: __ZN5Eigen8internal18check_for_aliasingINS_5BlockINS2_INS2_INS_6MatrixIdLin1ELin1ELi0ELin1ELin1EEELin1ELin1ELb0EEELin1ELin1ELb0EEELin1ELi1ELb1EEENS_13CwiseBinaryOpINS0_17scalar_product_opIddEEKNS_14CwiseNullaryOpINS0_18scalar_constant_opIdEEKNS3_IdLin1ELi1ELi0ELin1ELi1EEEEEKNS_3MapISE_Li16ENS_6StrideILi0ELi0EEEEEEEEEvRKT_RKT0_, symObjAddr: 0x1CC68, symBinAddr: 0x100020020, symSize: 0x14 }
  - { offset: 0x40D2F, size: 0x8, addend: 0x0, symName: __ZN5Eigen8internal26call_dense_assignment_loopINS_5BlockINS2_INS2_INS_6MatrixIdLin1ELin1ELi0ELin1ELin1EEELin1ELin1ELb0EEELin1ELin1ELb0EEELin1ELi1ELb1EEENS_13CwiseBinaryOpINS0_17scalar_product_opIddEEKNS_14CwiseNullaryOpINS0_18scalar_constant_opIdEEKNS3_IdLin1ELi1ELi0ELin1ELi1EEEEEKNS_3MapISE_Li16ENS_6StrideILi0ELi0EEEEEEENS0_13sub_assign_opIddEEEEvRT_RKT0_RKT1_, symObjAddr: 0x1CC7C, symBinAddr: 0x100020034, symSize: 0xD8 }
  - { offset: 0x40DE4, size: 0x8, addend: 0x0, symName: __ZN5Eigen8internal17resize_if_allowedINS_5BlockINS2_INS2_INS_6MatrixIdLin1ELin1ELi0ELin1ELin1EEELin1ELin1ELb0EEELin1ELin1ELb0EEELin1ELi1ELb1EEENS_13CwiseBinaryOpINS0_17scalar_product_opIddEEKNS_14CwiseNullaryOpINS0_18scalar_constant_opIdEEKNS3_IdLin1ELi1ELi0ELin1ELi1EEEEEKNS_3MapISE_Li16ENS_6StrideILi0ELi0EEEEEEENS0_13sub_assign_opIddEEEEvRT_RKT0_RKT1_, symObjAddr: 0x1CD88, symBinAddr: 0x100020140, symSize: 0xB4 }
  - { offset: 0x40E43, size: 0x8, addend: 0x0, symName: __ZN5Eigen8internal4psubI19__simd128_float64_tEET_RKS3_S5_, symObjAddr: 0x1D9AC, symBinAddr: 0x100020D64, symSize: 0x40 }
  - { offset: 0x40E89, size: 0x8, addend: 0x0, symName: __ZN5Eigen8internal15call_assignmentINS_5BlockINS_6MatrixIdLin1ELin1ELi0ELin1ELin1EEELin1ELin1ELb1EEENS_14CwiseNullaryOpINS0_18scalar_constant_opIdEES4_EENS0_13mul_assign_opIddEEEEvRT_RKT0_RKT1_NS0_9enable_ifIXntsr25evaluator_assume_aliasingISE_EE5valueEPvE4typeE, symObjAddr: 0x1EBE0, symBinAddr: 0x100021F98, symSize: 0x38 }
  - { offset: 0x40EF7, size: 0x8, addend: 0x0, symName: __ZN5Eigen8internal24call_assignment_no_aliasINS_5BlockINS_6MatrixIdLin1ELin1ELi0ELin1ELin1EEELin1ELin1ELb1EEENS_14CwiseNullaryOpINS0_18scalar_constant_opIdEES4_EENS0_13mul_assign_opIddEEEEvRT_RKT0_RKT1_, symObjAddr: 0x1EC18, symBinAddr: 0x100021FD0, symSize: 0x3C }
  - { offset: 0x40FC5, size: 0x8, addend: 0x0, symName: __ZN5Eigen8internal18check_for_aliasingINS_5BlockINS_6MatrixIdLin1ELin1ELi0ELin1ELin1EEELin1ELin1ELb1EEENS_14CwiseNullaryOpINS0_18scalar_constant_opIdEES4_EEEEvRKT_RKT0_, symObjAddr: 0x1EC94, symBinAddr: 0x10002204C, symSize: 0x60 }
  - { offset: 0x41010, size: 0x8, addend: 0x0, symName: __ZN5Eigen8internal26call_dense_assignment_loopINS_5BlockINS_6MatrixIdLin1ELin1ELi0ELin1ELin1EEELin1ELin1ELb1EEENS_14CwiseNullaryOpINS0_18scalar_constant_opIdEES4_EENS0_13mul_assign_opIddEEEEvRT_RKT0_RKT1_, symObjAddr: 0x1ECF4, symBinAddr: 0x1000220AC, symSize: 0xE0 }
  - { offset: 0x41102, size: 0x8, addend: 0x0, symName: __ZN5Eigen8internal17resize_if_allowedINS_5BlockINS_6MatrixIdLin1ELin1ELi0ELin1ELin1EEELin1ELin1ELb1EEENS_14CwiseNullaryOpINS0_18scalar_constant_opIdEES4_EENS0_13mul_assign_opIddEEEEvRT_RKT0_RKT1_, symObjAddr: 0x1EE10, symBinAddr: 0x1000221C8, symSize: 0xB4 }
  - { offset: 0x41161, size: 0x8, addend: 0x0, symName: __ZN5Eigen8internal24call_assignment_no_aliasINS_3MapINS_6MatrixIdLin1ELi1ELi0ELin1ELi1EEELi0ENS_6StrideILi0ELi0EEEEENS_7ProductINS_5BlockINS9_INS3_IdLin1ELin1ELi0ELin1ELin1EEELin1ELin1ELb1EEELin1ELin1ELb0EEENS9_INS9_ISA_Lin1ELi1ELb1EEELin1ELi1ELb0EEELi0EEENS0_9assign_opIddEEEEvRT_RKT0_RKT1_, symObjAddr: 0x1FEB0, symBinAddr: 0x100023268, symSize: 0x3C }
  - { offset: 0x41346, size: 0x8, addend: 0x0, symName: __ZN5Eigen8internal15call_assignmentINS_3MapINS_6MatrixIdLin1ELi1ELi0ELin1ELi1EEELi0ENS_6StrideILi0ELi0EEEEENS_14CwiseNullaryOpINS0_18scalar_constant_opIdEES4_EEEEvRT_RKT0_, symObjAddr: 0x20418, symBinAddr: 0x1000237D0, symSize: 0x50 }
  - { offset: 0x41391, size: 0x8, addend: 0x0, symName: __ZN5Eigen8internal15call_assignmentINS_3MapINS_6MatrixIdLin1ELi1ELi0ELin1ELi1EEELi0ENS_6StrideILi0ELi0EEEEENS_14CwiseNullaryOpINS0_18scalar_constant_opIdEES4_EENS0_9assign_opIddEEEEvRT_RKT0_RKT1_NS0_9enable_ifIXntsr25evaluator_assume_aliasingISG_EE5valueEPvE4typeE, symObjAddr: 0x20468, symBinAddr: 0x100023820, symSize: 0x38 }
  - { offset: 0x413FF, size: 0x8, addend: 0x0, symName: __ZN5Eigen8internal24call_assignment_no_aliasINS_3MapINS_6MatrixIdLin1ELi1ELi0ELin1ELi1EEELi0ENS_6StrideILi0ELi0EEEEENS_14CwiseNullaryOpINS0_18scalar_constant_opIdEES4_EENS0_9assign_opIddEEEEvRT_RKT0_RKT1_, symObjAddr: 0x204A0, symBinAddr: 0x100023858, symSize: 0x3C }
  - { offset: 0x414CD, size: 0x8, addend: 0x0, symName: __ZN5Eigen8internal18check_for_aliasingINS_3MapINS_6MatrixIdLin1ELi1ELi0ELin1ELi1EEELi0ENS_6StrideILi0ELi0EEEEENS_14CwiseNullaryOpINS0_18scalar_constant_opIdEES4_EEEEvRKT_RKT0_, symObjAddr: 0x2051C, symBinAddr: 0x1000238D4, symSize: 0x14 }
  - { offset: 0x41518, size: 0x8, addend: 0x0, symName: __ZN5Eigen8internal26call_dense_assignment_loopINS_3MapINS_6MatrixIdLin1ELi1ELi0ELin1ELi1EEELi0ENS_6StrideILi0ELi0EEEEENS_14CwiseNullaryOpINS0_18scalar_constant_opIdEES4_EENS0_9assign_opIddEEEEvRT_RKT0_RKT1_, symObjAddr: 0x20530, symBinAddr: 0x1000238E8, symSize: 0xE0 }
  - { offset: 0x415CC, size: 0x8, addend: 0x0, symName: __ZN5Eigen8internal17resize_if_allowedINS_3MapINS_6MatrixIdLin1ELi1ELi0ELin1ELi1EEELi0ENS_6StrideILi0ELi0EEEEENS_14CwiseNullaryOpINS0_18scalar_constant_opIdEES4_EEddEEvRT_RKT0_RKNS0_9assign_opIT1_T2_EE, symObjAddr: 0x20610, symBinAddr: 0x1000239C8, symSize: 0xF8 }
  - { offset: 0x41E87, size: 0x8, addend: 0x0, symName: __ZN5Eigen8internal22ignore_unused_variableIlEEvRKT_, symObjAddr: 0x249CC, symBinAddr: 0x100027D84, symSize: 0x10 }
  - { offset: 0x41EB6, size: 0x8, addend: 0x0, symName: __ZN5Eigen8internal15call_assignmentINS_3MapINS_6MatrixIdLin1ELi1ELi0ELin1ELi1EEELi0ENS_6StrideILi0ELi0EEEEENS_5BlockINS8_INS3_IdLin1ELin1ELi0ELin1ELin1EEELin1ELin1ELb1EEELin1ELi1ELb1EEENS0_13add_assign_opIddEEEEvRT_RKT0_RKT1_NS0_9enable_ifIXntsr25evaluator_assume_aliasingISG_EE5valueEPvE4typeE, symObjAddr: 0x24DB8, symBinAddr: 0x100028170, symSize: 0x38 }
  - { offset: 0x41F24, size: 0x8, addend: 0x0, symName: __ZN5Eigen8internal24call_assignment_no_aliasINS_3MapINS_6MatrixIdLin1ELi1ELi0ELin1ELi1EEELi0ENS_6StrideILi0ELi0EEEEENS_5BlockINS8_INS3_IdLin1ELin1ELi0ELin1ELin1EEELin1ELin1ELb1EEELin1ELi1ELb1EEENS0_13add_assign_opIddEEEEvRT_RKT0_RKT1_, symObjAddr: 0x24E04, symBinAddr: 0x1000281BC, symSize: 0x3C }
  - { offset: 0x41FF2, size: 0x8, addend: 0x0, symName: __ZN5Eigen8internal18check_for_aliasingINS_3MapINS_6MatrixIdLin1ELi1ELi0ELin1ELi1EEELi0ENS_6StrideILi0ELi0EEEEENS_5BlockINS8_INS3_IdLin1ELin1ELi0ELin1ELin1EEELin1ELin1ELb1EEELin1ELi1ELb1EEEEEvRKT_RKT0_, symObjAddr: 0x24E80, symBinAddr: 0x100028238, symSize: 0x14 }
  - { offset: 0x4203D, size: 0x8, addend: 0x0, symName: __ZN5Eigen8internal26call_dense_assignment_loopINS_3MapINS_6MatrixIdLin1ELi1ELi0ELin1ELi1EEELi0ENS_6StrideILi0ELi0EEEEENS_5BlockINS8_INS3_IdLin1ELin1ELi0ELin1ELin1EEELin1ELin1ELb1EEELin1ELi1ELb1EEENS0_13add_assign_opIddEEEEvRT_RKT0_RKT1_, symObjAddr: 0x24E94, symBinAddr: 0x10002824C, symSize: 0xD8 }
  - { offset: 0x420F1, size: 0x8, addend: 0x0, symName: __ZN5Eigen8internal17resize_if_allowedINS_3MapINS_6MatrixIdLin1ELi1ELi0ELin1ELi1EEELi0ENS_6StrideILi0ELi0EEEEENS_5BlockINS8_INS3_IdLin1ELin1ELi0ELin1ELin1EEELin1ELin1ELb1EEELin1ELi1ELb1EEENS0_13add_assign_opIddEEEEvRT_RKT0_RKT1_, symObjAddr: 0x24FA0, symBinAddr: 0x100028358, symSize: 0xB4 }
  - { offset: 0x42150, size: 0x8, addend: 0x0, symName: __ZN5Eigen8internal15call_assignmentINS_5BlockINS2_INS_6MatrixIdLin1ELin1ELi0ELin1ELin1EEELin1ELin1ELb1EEELin1ELi1ELb1EEENS_13CwiseBinaryOpINS0_17scalar_product_opIddEEKNS_14CwiseNullaryOpINS0_18scalar_constant_opIdEEKNS3_IdLin1ELi1ELi0ELin1ELi1EEEEEKNS_3MapISD_Li0ENS_6StrideILi0ELi0EEEEEEENS0_13sub_assign_opIddEEEEvRT_RKT0_RKT1_NS0_9enable_ifIXntsr25evaluator_assume_aliasingISR_EE5valueEPvE4typeE, symObjAddr: 0x259A0, symBinAddr: 0x100028D58, symSize: 0x38 }
  - { offset: 0x421BE, size: 0x8, addend: 0x0, symName: __ZN5Eigen8internal24call_assignment_no_aliasINS_5BlockINS2_INS_6MatrixIdLin1ELin1ELi0ELin1ELin1EEELin1ELin1ELb1EEELin1ELi1ELb1EEENS_13CwiseBinaryOpINS0_17scalar_product_opIddEEKNS_14CwiseNullaryOpINS0_18scalar_constant_opIdEEKNS3_IdLin1ELi1ELi0ELin1ELi1EEEEEKNS_3MapISD_Li0ENS_6StrideILi0ELi0EEEEEEENS0_13sub_assign_opIddEEEEvRT_RKT0_RKT1_, symObjAddr: 0x25A00, symBinAddr: 0x100028DB8, symSize: 0x3C }
  - { offset: 0x4228C, size: 0x8, addend: 0x0, symName: __ZN5Eigen8internal18check_for_aliasingINS_5BlockINS2_INS_6MatrixIdLin1ELin1ELi0ELin1ELin1EEELin1ELin1ELb1EEELin1ELi1ELb1EEENS_13CwiseBinaryOpINS0_17scalar_product_opIddEEKNS_14CwiseNullaryOpINS0_18scalar_constant_opIdEEKNS3_IdLin1ELi1ELi0ELin1ELi1EEEEEKNS_3MapISD_Li0ENS_6StrideILi0ELi0EEEEEEEEEvRKT_RKT0_, symObjAddr: 0x25A7C, symBinAddr: 0x100028E34, symSize: 0x14 }
  - { offset: 0x422D7, size: 0x8, addend: 0x0, symName: __ZN5Eigen8internal26call_dense_assignment_loopINS_5BlockINS2_INS_6MatrixIdLin1ELin1ELi0ELin1ELin1EEELin1ELin1ELb1EEELin1ELi1ELb1EEENS_13CwiseBinaryOpINS0_17scalar_product_opIddEEKNS_14CwiseNullaryOpINS0_18scalar_constant_opIdEEKNS3_IdLin1ELi1ELi0ELin1ELi1EEEEEKNS_3MapISD_Li0ENS_6StrideILi0ELi0EEEEEEENS0_13sub_assign_opIddEEEEvRT_RKT0_RKT1_, symObjAddr: 0x25A90, symBinAddr: 0x100028E48, symSize: 0xE0 }
  - { offset: 0x4238C, size: 0x8, addend: 0x0, symName: __ZN5Eigen8internal17resize_if_allowedINS_5BlockINS2_INS_6MatrixIdLin1ELin1ELi0ELin1ELin1EEELin1ELin1ELb1EEELin1ELi1ELb1EEENS_13CwiseBinaryOpINS0_17scalar_product_opIddEEKNS_14CwiseNullaryOpINS0_18scalar_constant_opIdEEKNS3_IdLin1ELi1ELi0ELin1ELi1EEEEEKNS_3MapISD_Li0ENS_6StrideILi0ELi0EEEEEEENS0_13sub_assign_opIddEEEEvRT_RKT0_RKT1_, symObjAddr: 0x25BA4, symBinAddr: 0x100028F5C, symSize: 0xB4 }
  - { offset: 0x423EB, size: 0x8, addend: 0x0, symName: __ZN5Eigen8internal24call_assignment_no_aliasINS_5BlockINS2_INS_6MatrixIdLin1ELin1ELi0ELin1ELin1EEELin1ELin1ELb1EEELin1ELin1ELb0EEENS_7ProductINS_13CwiseBinaryOpINS0_17scalar_product_opIddEEKNS_14CwiseNullaryOpINS0_18scalar_constant_opIdEEKNS3_IdLin1ELi1ELi0ELin1ELi1EEEEEKNS_3MapISE_Li0ENS_6StrideILi0ELi0EEEEEEENS_9TransposeIKNS2_INS2_IS4_Lin1ELi1ELb1EEELin1ELi1ELb0EEEEELi0EEENS0_13sub_assign_opIddEEEEvRT_RKT0_RKT1_, symObjAddr: 0x26838, symBinAddr: 0x100029BF0, symSize: 0x3C }
  - { offset: 0x42559, size: 0x8, addend: 0x0, symName: __ZN5Eigen8internal26outer_product_selector_runINS_5BlockINS2_INS_6MatrixIdLin1ELin1ELi0ELin1ELin1EEELin1ELin1ELb1EEELin1ELin1ELb0EEENS_13CwiseBinaryOpINS0_17scalar_product_opIddEEKNS_14CwiseNullaryOpINS0_18scalar_constant_opIdEEKNS3_IdLin1ELi1ELi0ELin1ELi1EEEEEKNS_3MapISD_Li0ENS_6StrideILi0ELi0EEEEEEENS_9TransposeIKNS2_INS2_IS4_Lin1ELi1ELb1EEELin1ELi1ELb0EEEEENS0_20generic_product_implISM_SR_NS_10DenseShapeEST_Li5EE3subEEEvRT_RKT0_RKT1_RKT2_RKNS0_10false_typeE, symObjAddr: 0x26A1C, symBinAddr: 0x100029DD4, symSize: 0x230 }
  - { offset: 0x427C5, size: 0x8, addend: 0x0, symName: __ZN5Eigen8internal15call_assignmentINS_3MapINS_6MatrixIdLin1ELi1ELi0ELin1ELi1EEELi16ENS_6StrideILi0ELi0EEEEENS_13CwiseBinaryOpINS0_17scalar_product_opIddEEKNS_14CwiseNullaryOpINS0_18scalar_constant_opIdEEKS4_EEKNS2_IS4_Li0ES6_EEEEEEvRT_RKT0_, symObjAddr: 0x27080, symBinAddr: 0x10002A438, symSize: 0x50 }
  - { offset: 0x42810, size: 0x8, addend: 0x0, symName: __ZN5Eigen8internal15call_assignmentINS_3MapINS_6MatrixIdLin1ELi1ELi0ELin1ELi1EEELi16ENS_6StrideILi0ELi0EEEEENS_13CwiseBinaryOpINS0_17scalar_product_opIddEEKNS_14CwiseNullaryOpINS0_18scalar_constant_opIdEEKS4_EEKNS2_IS4_Li0ES6_EEEENS0_9assign_opIddEEEEvRT_RKT0_RKT1_NS0_9enable_ifIXntsr25evaluator_assume_aliasingISO_EE5valueEPvE4typeE, symObjAddr: 0x270D0, symBinAddr: 0x10002A488, symSize: 0x38 }
  - { offset: 0x4287E, size: 0x8, addend: 0x0, symName: __ZN5Eigen8internal24call_assignment_no_aliasINS_3MapINS_6MatrixIdLin1ELi1ELi0ELin1ELi1EEELi16ENS_6StrideILi0ELi0EEEEENS_13CwiseBinaryOpINS0_17scalar_product_opIddEEKNS_14CwiseNullaryOpINS0_18scalar_constant_opIdEEKS4_EEKNS2_IS4_Li0ES6_EEEENS0_9assign_opIddEEEEvRT_RKT0_RKT1_, symObjAddr: 0x27108, symBinAddr: 0x10002A4C0, symSize: 0x3C }
  - { offset: 0x4294C, size: 0x8, addend: 0x0, symName: __ZN5Eigen8internal18check_for_aliasingINS_3MapINS_6MatrixIdLin1ELi1ELi0ELin1ELi1EEELi16ENS_6StrideILi0ELi0EEEEENS_13CwiseBinaryOpINS0_17scalar_product_opIddEEKNS_14CwiseNullaryOpINS0_18scalar_constant_opIdEEKS4_EEKNS2_IS4_Li0ES6_EEEEEEvRKT_RKT0_, symObjAddr: 0x27184, symBinAddr: 0x10002A53C, symSize: 0x14 }
  - { offset: 0x42997, size: 0x8, addend: 0x0, symName: __ZN5Eigen8internal26call_dense_assignment_loopINS_3MapINS_6MatrixIdLin1ELi1ELi0ELin1ELi1EEELi16ENS_6StrideILi0ELi0EEEEENS_13CwiseBinaryOpINS0_17scalar_product_opIddEEKNS_14CwiseNullaryOpINS0_18scalar_constant_opIdEEKS4_EEKNS2_IS4_Li0ES6_EEEENS0_9assign_opIddEEEEvRT_RKT0_RKT1_, symObjAddr: 0x27198, symBinAddr: 0x10002A550, symSize: 0xD8 }
  - { offset: 0x42A4C, size: 0x8, addend: 0x0, symName: __ZN5Eigen8internal17resize_if_allowedINS_3MapINS_6MatrixIdLin1ELi1ELi0ELin1ELi1EEELi16ENS_6StrideILi0ELi0EEEEENS_13CwiseBinaryOpINS0_17scalar_product_opIddEEKNS_14CwiseNullaryOpINS0_18scalar_constant_opIdEEKS4_EEKNS2_IS4_Li0ES6_EEEEddEEvRT_RKT0_RKNS0_9assign_opIT1_T2_EE, symObjAddr: 0x27270, symBinAddr: 0x10002A628, symSize: 0xF8 }
  - { offset: 0x42AD2, size: 0x8, addend: 0x0, symName: __ZN5Eigen8internal15call_assignmentINS_5BlockINS2_INS2_INS_6MatrixIdLin1ELin1ELi0ELin1ELin1EEELin1ELin1ELb1EEELin1ELin1ELb0EEELin1ELi1ELb1EEENS_13CwiseBinaryOpINS0_17scalar_product_opIddEEKNS_14CwiseNullaryOpINS0_18scalar_constant_opIdEEKNS3_IdLin1ELi1ELi0ELin1ELi1EEEEEKNS_3MapISE_Li16ENS_6StrideILi0ELi0EEEEEEENS0_13sub_assign_opIddEEEEvRT_RKT0_RKT1_NS0_9enable_ifIXntsr25evaluator_assume_aliasingISS_EE5valueEPvE4typeE, symObjAddr: 0x27688, symBinAddr: 0x10002AA40, symSize: 0x38 }
  - { offset: 0x42B40, size: 0x8, addend: 0x0, symName: __ZN5Eigen8internal24call_assignment_no_aliasINS_5BlockINS2_INS2_INS_6MatrixIdLin1ELin1ELi0ELin1ELin1EEELin1ELin1ELb1EEELin1ELin1ELb0EEELin1ELi1ELb1EEENS_13CwiseBinaryOpINS0_17scalar_product_opIddEEKNS_14CwiseNullaryOpINS0_18scalar_constant_opIdEEKNS3_IdLin1ELi1ELi0ELin1ELi1EEEEEKNS_3MapISE_Li16ENS_6StrideILi0ELi0EEEEEEENS0_13sub_assign_opIddEEEEvRT_RKT0_RKT1_, symObjAddr: 0x276D4, symBinAddr: 0x10002AA8C, symSize: 0x3C }
  - { offset: 0x42C0E, size: 0x8, addend: 0x0, symName: __ZN5Eigen8internal18check_for_aliasingINS_5BlockINS2_INS2_INS_6MatrixIdLin1ELin1ELi0ELin1ELin1EEELin1ELin1ELb1EEELin1ELin1ELb0EEELin1ELi1ELb1EEENS_13CwiseBinaryOpINS0_17scalar_product_opIddEEKNS_14CwiseNullaryOpINS0_18scalar_constant_opIdEEKNS3_IdLin1ELi1ELi0ELin1ELi1EEEEEKNS_3MapISE_Li16ENS_6StrideILi0ELi0EEEEEEEEEvRKT_RKT0_, symObjAddr: 0x27750, symBinAddr: 0x10002AB08, symSize: 0x14 }
  - { offset: 0x42C59, size: 0x8, addend: 0x0, symName: __ZN5Eigen8internal26call_dense_assignment_loopINS_5BlockINS2_INS2_INS_6MatrixIdLin1ELin1ELi0ELin1ELin1EEELin1ELin1ELb1EEELin1ELin1ELb0EEELin1ELi1ELb1EEENS_13CwiseBinaryOpINS0_17scalar_product_opIddEEKNS_14CwiseNullaryOpINS0_18scalar_constant_opIdEEKNS3_IdLin1ELi1ELi0ELin1ELi1EEEEEKNS_3MapISE_Li16ENS_6StrideILi0ELi0EEEEEEENS0_13sub_assign_opIddEEEEvRT_RKT0_RKT1_, symObjAddr: 0x27764, symBinAddr: 0x10002AB1C, symSize: 0xD8 }
  - { offset: 0x42D0E, size: 0x8, addend: 0x0, symName: __ZN5Eigen8internal17resize_if_allowedINS_5BlockINS2_INS2_INS_6MatrixIdLin1ELin1ELi0ELin1ELin1EEELin1ELin1ELb1EEELin1ELin1ELb0EEELin1ELi1ELb1EEENS_13CwiseBinaryOpINS0_17scalar_product_opIddEEKNS_14CwiseNullaryOpINS0_18scalar_constant_opIdEEKNS3_IdLin1ELi1ELi0ELin1ELi1EEEEEKNS_3MapISE_Li16ENS_6StrideILi0ELi0EEEEEEENS0_13sub_assign_opIddEEEEvRT_RKT0_RKT1_, symObjAddr: 0x2783C, symBinAddr: 0x10002ABF4, symSize: 0xB4 }
  - { offset: 0x42D9F, size: 0x8, addend: 0x0, symName: __ZN5Eigen8internal13is_same_denseINS_6MatrixIdLin1ELin1ELi0ELin1ELin1EEES3_EEbRKT_RKT0_PNS0_9enable_ifIXsr19possibly_same_denseIS4_S7_EE5valueEvE4typeE, symObjAddr: 0x28B64, symBinAddr: 0x10002BF1C, symSize: 0xC0 }
  - { offset: 0x42DF9, size: 0x8, addend: 0x0, symName: __ZN5Eigen8internal15call_assignmentINS_8DiagonalINS_6MatrixIdLin1ELin1ELi0ELin1ELin1EEELi0EEENS_14CwiseNullaryOpINS0_18scalar_constant_opIdEENS3_IdLin1ELi1ELi0ELin1ELi1EEEEEEEvRT_RKT0_, symObjAddr: 0x29C84, symBinAddr: 0x10002D03C, symSize: 0x50 }
  - { offset: 0x42E44, size: 0x8, addend: 0x0, symName: __ZN5Eigen8internal15call_assignmentINS_8DiagonalINS_6MatrixIdLin1ELin1ELi0ELin1ELin1EEELi0EEENS_14CwiseNullaryOpINS0_18scalar_constant_opIdEENS3_IdLin1ELi1ELi0ELin1ELi1EEEEENS0_9assign_opIddEEEEvRT_RKT0_RKT1_NS0_9enable_ifIXntsr25evaluator_assume_aliasingISF_EE5valueEPvE4typeE, symObjAddr: 0x29CD4, symBinAddr: 0x10002D08C, symSize: 0x38 }
  - { offset: 0x42EB2, size: 0x8, addend: 0x0, symName: __ZN5Eigen8internal24call_assignment_no_aliasINS_8DiagonalINS_6MatrixIdLin1ELin1ELi0ELin1ELin1EEELi0EEENS_14CwiseNullaryOpINS0_18scalar_constant_opIdEENS3_IdLin1ELi1ELi0ELin1ELi1EEEEENS0_9assign_opIddEEEEvRT_RKT0_RKT1_, symObjAddr: 0x29D0C, symBinAddr: 0x10002D0C4, symSize: 0x3C }
  - { offset: 0x42F80, size: 0x8, addend: 0x0, symName: __ZN5Eigen8internal18check_for_aliasingINS_8DiagonalINS_6MatrixIdLin1ELin1ELi0ELin1ELin1EEELi0EEENS_14CwiseNullaryOpINS0_18scalar_constant_opIdEENS3_IdLin1ELi1ELi0ELin1ELi1EEEEEEEvRKT_RKT0_, symObjAddr: 0x29D88, symBinAddr: 0x10002D140, symSize: 0x14 }
  - { offset: 0x42FCB, size: 0x8, addend: 0x0, symName: __ZN5Eigen8internal26call_dense_assignment_loopINS_8DiagonalINS_6MatrixIdLin1ELin1ELi0ELin1ELin1EEELi0EEENS_14CwiseNullaryOpINS0_18scalar_constant_opIdEENS3_IdLin1ELi1ELi0ELin1ELi1EEEEENS0_9assign_opIddEEEEvRT_RKT0_RKT1_, symObjAddr: 0x29D9C, symBinAddr: 0x10002D154, symSize: 0xE0 }
  - { offset: 0x4307F, size: 0x8, addend: 0x0, symName: __ZN5Eigen8internal17resize_if_allowedINS_8DiagonalINS_6MatrixIdLin1ELin1ELi0ELin1ELin1EEELi0EEENS_14CwiseNullaryOpINS0_18scalar_constant_opIdEENS3_IdLin1ELi1ELi0ELin1ELi1EEEEEddEEvRT_RKT0_RKNS0_9assign_opIT1_T2_EE, symObjAddr: 0x29E7C, symBinAddr: 0x10002D234, symSize: 0xF8 }
  - { offset: 0x434CE, size: 0x8, addend: 0x0, symName: __ZN5Eigen8internal24call_assignment_no_aliasINS_14TriangularViewINS_6MatrixIdLin1ELin1ELi0ELin1ELin1EEELj10EEENS_14CwiseNullaryOpINS0_18scalar_constant_opIdEES4_EENS0_9assign_opIddEEEEvRT_RKT0_RKT1_, symObjAddr: 0x2A6A0, symBinAddr: 0x10002DA58, symSize: 0x3C }
  - { offset: 0x435A6, size: 0x8, addend: 0x0, symName: __ZN5Eigen8internal31call_triangular_assignment_loopILi10ELb0ENS_14TriangularViewINS_6MatrixIdLin1ELin1ELi0ELin1ELin1EEELj10EEENS_14CwiseNullaryOpINS0_18scalar_constant_opIdEES4_EENS0_9assign_opIddEEEEvRT1_RKT2_RKT3_, symObjAddr: 0x2A710, symBinAddr: 0x10002DAC8, symSize: 0x140 }
  - { offset: 0x43A49, size: 0x8, addend: 0x0, symName: __ZN5Eigen8internal24call_assignment_no_aliasINS_3MapINS_6MatrixIdLin1ELi1ELi0ELin1ELi1EEELi0ENS_6StrideILi0ELi0EEEEENS_7ProductINS_5BlockINS9_INS3_IdLin1ELin1ELi0ELin1ELin1EEELin1ELin1ELb0EEELin1ELin1ELb0EEENS9_IKSA_Lin1ELi1ELb0EEELi0EEENS0_9assign_opIddEEEEvRT_RKT0_RKT1_, symObjAddr: 0x2B1F4, symBinAddr: 0x10002E5AC, symSize: 0x3C }
  - { offset: 0x44359, size: 0x8, addend: 0x0, symName: __ZN5Eigen8internal15call_assignmentINS_3MapINS_6MatrixIdLin1ELi1ELi0ELin1ELi1EEELi0ENS_6StrideILi0ELi0EEEEENS_5BlockINS8_INS3_IdLin1ELin1ELi0ELin1ELin1EEELin1ELin1ELb0EEELin1ELi1ELb1EEENS0_13add_assign_opIddEEEEvRT_RKT0_RKT1_NS0_9enable_ifIXntsr25evaluator_assume_aliasingISG_EE5valueEPvE4typeE, symObjAddr: 0x2DDC0, symBinAddr: 0x100031178, symSize: 0x38 }
  - { offset: 0x443C7, size: 0x8, addend: 0x0, symName: __ZN5Eigen8internal24call_assignment_no_aliasINS_3MapINS_6MatrixIdLin1ELi1ELi0ELin1ELi1EEELi0ENS_6StrideILi0ELi0EEEEENS_5BlockINS8_INS3_IdLin1ELin1ELi0ELin1ELin1EEELin1ELin1ELb0EEELin1ELi1ELb1EEENS0_13add_assign_opIddEEEEvRT_RKT0_RKT1_, symObjAddr: 0x2DE0C, symBinAddr: 0x1000311C4, symSize: 0x3C }
  - { offset: 0x44495, size: 0x8, addend: 0x0, symName: __ZN5Eigen8internal18check_for_aliasingINS_3MapINS_6MatrixIdLin1ELi1ELi0ELin1ELi1EEELi0ENS_6StrideILi0ELi0EEEEENS_5BlockINS8_INS3_IdLin1ELin1ELi0ELin1ELin1EEELin1ELin1ELb0EEELin1ELi1ELb1EEEEEvRKT_RKT0_, symObjAddr: 0x2DE88, symBinAddr: 0x100031240, symSize: 0x14 }
  - { offset: 0x444E0, size: 0x8, addend: 0x0, symName: __ZN5Eigen8internal26call_dense_assignment_loopINS_3MapINS_6MatrixIdLin1ELi1ELi0ELin1ELi1EEELi0ENS_6StrideILi0ELi0EEEEENS_5BlockINS8_INS3_IdLin1ELin1ELi0ELin1ELin1EEELin1ELin1ELb0EEELin1ELi1ELb1EEENS0_13add_assign_opIddEEEEvRT_RKT0_RKT1_, symObjAddr: 0x2DE9C, symBinAddr: 0x100031254, symSize: 0xD8 }
  - { offset: 0x44594, size: 0x8, addend: 0x0, symName: __ZN5Eigen8internal17resize_if_allowedINS_3MapINS_6MatrixIdLin1ELi1ELi0ELin1ELi1EEELi0ENS_6StrideILi0ELi0EEEEENS_5BlockINS8_INS3_IdLin1ELin1ELi0ELin1ELin1EEELin1ELin1ELb0EEELin1ELi1ELb1EEENS0_13add_assign_opIddEEEEvRT_RKT0_RKT1_, symObjAddr: 0x2DFA8, symBinAddr: 0x100031360, symSize: 0xB4 }
  - { offset: 0x445F3, size: 0x8, addend: 0x0, symName: __ZN5Eigen8internal15call_assignmentINS_5BlockINS2_INS_6MatrixIdLin1ELin1ELi0ELin1ELin1EEELin1ELin1ELb0EEELin1ELi1ELb1EEENS_13CwiseBinaryOpINS0_17scalar_product_opIddEEKNS_14CwiseNullaryOpINS0_18scalar_constant_opIdEEKNS3_IdLin1ELi1ELi0ELin1ELi1EEEEEKNS_3MapISD_Li0ENS_6StrideILi0ELi0EEEEEEENS0_13sub_assign_opIddEEEEvRT_RKT0_RKT1_NS0_9enable_ifIXntsr25evaluator_assume_aliasingISR_EE5valueEPvE4typeE, symObjAddr: 0x2E70C, symBinAddr: 0x100031AC4, symSize: 0x38 }
  - { offset: 0x44661, size: 0x8, addend: 0x0, symName: __ZN5Eigen8internal24call_assignment_no_aliasINS_5BlockINS2_INS_6MatrixIdLin1ELin1ELi0ELin1ELin1EEELin1ELin1ELb0EEELin1ELi1ELb1EEENS_13CwiseBinaryOpINS0_17scalar_product_opIddEEKNS_14CwiseNullaryOpINS0_18scalar_constant_opIdEEKNS3_IdLin1ELi1ELi0ELin1ELi1EEEEEKNS_3MapISD_Li0ENS_6StrideILi0ELi0EEEEEEENS0_13sub_assign_opIddEEEEvRT_RKT0_RKT1_, symObjAddr: 0x2E758, symBinAddr: 0x100031B10, symSize: 0x3C }
  - { offset: 0x4472F, size: 0x8, addend: 0x0, symName: __ZN5Eigen8internal18check_for_aliasingINS_5BlockINS2_INS_6MatrixIdLin1ELin1ELi0ELin1ELin1EEELin1ELin1ELb0EEELin1ELi1ELb1EEENS_13CwiseBinaryOpINS0_17scalar_product_opIddEEKNS_14CwiseNullaryOpINS0_18scalar_constant_opIdEEKNS3_IdLin1ELi1ELi0ELin1ELi1EEEEEKNS_3MapISD_Li0ENS_6StrideILi0ELi0EEEEEEEEEvRKT_RKT0_, symObjAddr: 0x2E7D4, symBinAddr: 0x100031B8C, symSize: 0x14 }
  - { offset: 0x4477A, size: 0x8, addend: 0x0, symName: __ZN5Eigen8internal26call_dense_assignment_loopINS_5BlockINS2_INS_6MatrixIdLin1ELin1ELi0ELin1ELin1EEELin1ELin1ELb0EEELin1ELi1ELb1EEENS_13CwiseBinaryOpINS0_17scalar_product_opIddEEKNS_14CwiseNullaryOpINS0_18scalar_constant_opIdEEKNS3_IdLin1ELi1ELi0ELin1ELi1EEEEEKNS_3MapISD_Li0ENS_6StrideILi0ELi0EEEEEEENS0_13sub_assign_opIddEEEEvRT_RKT0_RKT1_, symObjAddr: 0x2E7E8, symBinAddr: 0x100031BA0, symSize: 0xE0 }
  - { offset: 0x4482F, size: 0x8, addend: 0x0, symName: __ZN5Eigen8internal17resize_if_allowedINS_5BlockINS2_INS_6MatrixIdLin1ELin1ELi0ELin1ELin1EEELin1ELin1ELb0EEELin1ELi1ELb1EEENS_13CwiseBinaryOpINS0_17scalar_product_opIddEEKNS_14CwiseNullaryOpINS0_18scalar_constant_opIdEEKNS3_IdLin1ELi1ELi0ELin1ELi1EEEEEKNS_3MapISD_Li0ENS_6StrideILi0ELi0EEEEEEENS0_13sub_assign_opIddEEEEvRT_RKT0_RKT1_, symObjAddr: 0x2E8C8, symBinAddr: 0x100031C80, symSize: 0xB4 }
  - { offset: 0x4488E, size: 0x8, addend: 0x0, symName: __ZN5Eigen8internal24call_assignment_no_aliasINS_5BlockINS2_INS_6MatrixIdLin1ELin1ELi0ELin1ELin1EEELin1ELin1ELb0EEELin1ELin1ELb0EEENS_7ProductINS_13CwiseBinaryOpINS0_17scalar_product_opIddEEKNS_14CwiseNullaryOpINS0_18scalar_constant_opIdEEKNS3_IdLin1ELi1ELi0ELin1ELi1EEEEEKNS_3MapISE_Li0ENS_6StrideILi0ELi0EEEEEEENS_9TransposeIKNS2_IKS4_Lin1ELi1ELb0EEEEELi0EEENS0_13sub_assign_opIddEEEEvRT_RKT0_RKT1_, symObjAddr: 0x2F03C, symBinAddr: 0x1000323F4, symSize: 0x3C }
  - { offset: 0x449FC, size: 0x8, addend: 0x0, symName: __ZN5Eigen8internal26outer_product_selector_runINS_5BlockINS2_INS_6MatrixIdLin1ELin1ELi0ELin1ELin1EEELin1ELin1ELb0EEELin1ELin1ELb0EEENS_13CwiseBinaryOpINS0_17scalar_product_opIddEEKNS_14CwiseNullaryOpINS0_18scalar_constant_opIdEEKNS3_IdLin1ELi1ELi0ELin1ELi1EEEEEKNS_3MapISD_Li0ENS_6StrideILi0ELi0EEEEEEENS_9TransposeIKNS2_IKS4_Lin1ELi1ELb0EEEEENS0_20generic_product_implISM_SR_NS_10DenseShapeEST_Li5EE3subEEEvRT_RKT0_RKT1_RKT2_RKNS0_10false_typeE, symObjAddr: 0x2F244, symBinAddr: 0x1000325FC, symSize: 0x230 }
  - { offset: 0x44C68, size: 0x8, addend: 0x0, symName: __ZN5Eigen8internal24call_assignment_no_aliasINS_3MapINS_6MatrixIdLi1ELin1ELi1ELi1ELin1EEELi0ENS_6StrideILi0ELi0EEEEENS_7ProductINS_9TransposeIKNS_5BlockIKNS3_IdLin1ELin1ELi0ELin1ELin1EEELin1ELi1ELb0EEEEENSA_INSA_ISB_Lin1ELin1ELb0EEELin1ELin1ELb0EEELi0EEENS0_9assign_opIddEEEEvRT_RKT0_RKT1_, symObjAddr: 0x30328, symBinAddr: 0x1000336E0, symSize: 0x3C }
  - { offset: 0x45447, size: 0x8, addend: 0x0, symName: __ZN5Eigen8internalL21first_default_alignedINS_13CwiseBinaryOpINS0_22scalar_conj_product_opIddEEKNS_9TransposeIKNS_5BlockIKNS5_IKNS6_IKNS_6MatrixIdLin1ELin1ELi0ELin1ELin1EEELin1ELi1ELb0EEEEELi1ELin1ELb1EEEEEKNS6_IKNS6_INS6_IS8_Lin1ELin1ELb0EEELin1ELin1ELb0EEELin1ELi1ELb1EEEEEEElRKNS_9DenseBaseIT_EE, symObjAddr: 0x31E9C, symBinAddr: 0x100035254, symSize: 0x24 }
  - { offset: 0x4547E, size: 0x8, addend: 0x0, symName: __ZN5Eigen8internalL13first_alignedILi16ENS_13CwiseBinaryOpINS0_22scalar_conj_product_opIddEEKNS_9TransposeIKNS_5BlockIKNS5_IKNS6_IKNS_6MatrixIdLin1ELin1ELi0ELin1ELin1EEELin1ELi1ELb0EEEEELi1ELin1ELb1EEEEEKNS6_IKNS6_INS6_IS8_Lin1ELin1ELb0EEELin1ELin1ELb0EEELin1ELi1ELb1EEEEEEElRKNS_9DenseBaseIT0_EE, symObjAddr: 0x31FA0, symBinAddr: 0x100035358, symSize: 0x28 }
  - { offset: 0x455AF, size: 0x8, addend: 0x0, symName: __ZN5Eigen8internal24call_assignment_no_aliasINS_5BlockINS2_INS_6MatrixIdLin1ELin1ELi0ELin1ELin1EEELin1ELin1ELb0EEELin1ELin1ELb0EEENS_7ProductINS_13CwiseBinaryOpINS0_17scalar_product_opIddEEKNS_14CwiseNullaryOpINS0_18scalar_constant_opIdEEKNS3_IdLin1ELi1ELi0ELin1ELi1EEEEEKNS2_IKS4_Lin1ELi1ELb0EEEEENS_3MapINS3_IdLi1ELin1ELi1ELi1ELin1EEELi0ENS_6StrideILi0ELi0EEEEELi0EEENS0_13sub_assign_opIddEEEEvRT_RKT0_RKT1_, symObjAddr: 0x32DC8, symBinAddr: 0x100036180, symSize: 0x3C }
  - { offset: 0x4571D, size: 0x8, addend: 0x0, symName: __ZN5Eigen8internal26outer_product_selector_runINS_5BlockINS2_INS_6MatrixIdLin1ELin1ELi0ELin1ELin1EEELin1ELin1ELb0EEELin1ELin1ELb0EEENS_13CwiseBinaryOpINS0_17scalar_product_opIddEEKNS_14CwiseNullaryOpINS0_18scalar_constant_opIdEEKNS3_IdLin1ELi1ELi0ELin1ELi1EEEEEKNS2_IKS4_Lin1ELi1ELb0EEEEENS_3MapINS3_IdLi1ELin1ELi1ELi1ELin1EEELi0ENS_6StrideILi0ELi0EEEEENS0_20generic_product_implISK_SP_NS_10DenseShapeESR_Li5EE3subEEEvRT_RKT0_RKT1_RKT2_RKNS0_10false_typeE, symObjAddr: 0x32FD4, symBinAddr: 0x10003638C, symSize: 0x21C }
  - { offset: 0x45806, size: 0x8, addend: 0x0, symName: __ZN5Eigen8internal15call_assignmentINS_3MapINS_6MatrixIdLin1ELi1ELi0ELin1ELi1EEELi16ENS_6StrideILi0ELi0EEEEENS_13CwiseBinaryOpINS0_17scalar_product_opIddEEKNS_14CwiseNullaryOpINS0_18scalar_constant_opIdEEKS4_EEKNS_5BlockIKNS3_IdLin1ELin1ELi0ELin1ELin1EEELin1ELi1ELb0EEEEEEEvRT_RKT0_, symObjAddr: 0x33488, symBinAddr: 0x100036840, symSize: 0x50 }
  - { offset: 0x45851, size: 0x8, addend: 0x0, symName: __ZN5Eigen8internal15call_assignmentINS_3MapINS_6MatrixIdLin1ELi1ELi0ELin1ELi1EEELi16ENS_6StrideILi0ELi0EEEEENS_13CwiseBinaryOpINS0_17scalar_product_opIddEEKNS_14CwiseNullaryOpINS0_18scalar_constant_opIdEEKS4_EEKNS_5BlockIKNS3_IdLin1ELin1ELi0ELin1ELin1EEELin1ELi1ELb0EEEEENS0_9assign_opIddEEEEvRT_RKT0_RKT1_NS0_9enable_ifIXntsr25evaluator_assume_aliasingISR_EE5valueEPvE4typeE, symObjAddr: 0x334D8, symBinAddr: 0x100036890, symSize: 0x38 }
  - { offset: 0x458BF, size: 0x8, addend: 0x0, symName: __ZN5Eigen8internal24call_assignment_no_aliasINS_3MapINS_6MatrixIdLin1ELi1ELi0ELin1ELi1EEELi16ENS_6StrideILi0ELi0EEEEENS_13CwiseBinaryOpINS0_17scalar_product_opIddEEKNS_14CwiseNullaryOpINS0_18scalar_constant_opIdEEKS4_EEKNS_5BlockIKNS3_IdLin1ELin1ELi0ELin1ELin1EEELin1ELi1ELb0EEEEENS0_9assign_opIddEEEEvRT_RKT0_RKT1_, symObjAddr: 0x33510, symBinAddr: 0x1000368C8, symSize: 0x3C }
  - { offset: 0x4598D, size: 0x8, addend: 0x0, symName: __ZN5Eigen8internal18check_for_aliasingINS_3MapINS_6MatrixIdLin1ELi1ELi0ELin1ELi1EEELi16ENS_6StrideILi0ELi0EEEEENS_13CwiseBinaryOpINS0_17scalar_product_opIddEEKNS_14CwiseNullaryOpINS0_18scalar_constant_opIdEEKS4_EEKNS_5BlockIKNS3_IdLin1ELin1ELi0ELin1ELin1EEELin1ELi1ELb0EEEEEEEvRKT_RKT0_, symObjAddr: 0x3358C, symBinAddr: 0x100036944, symSize: 0x14 }
  - { offset: 0x459D8, size: 0x8, addend: 0x0, symName: __ZN5Eigen8internal26call_dense_assignment_loopINS_3MapINS_6MatrixIdLin1ELi1ELi0ELin1ELi1EEELi16ENS_6StrideILi0ELi0EEEEENS_13CwiseBinaryOpINS0_17scalar_product_opIddEEKNS_14CwiseNullaryOpINS0_18scalar_constant_opIdEEKS4_EEKNS_5BlockIKNS3_IdLin1ELin1ELi0ELin1ELin1EEELin1ELi1ELb0EEEEENS0_9assign_opIddEEEEvRT_RKT0_RKT1_, symObjAddr: 0x335A0, symBinAddr: 0x100036958, symSize: 0xD8 }
  - { offset: 0x45A8D, size: 0x8, addend: 0x0, symName: __ZN5Eigen8internal17resize_if_allowedINS_3MapINS_6MatrixIdLin1ELi1ELi0ELin1ELi1EEELi16ENS_6StrideILi0ELi0EEEEENS_13CwiseBinaryOpINS0_17scalar_product_opIddEEKNS_14CwiseNullaryOpINS0_18scalar_constant_opIdEEKS4_EEKNS_5BlockIKNS3_IdLin1ELin1ELi0ELin1ELin1EEELin1ELi1ELb0EEEEEddEEvRT_RKT0_RKNS0_9assign_opIT1_T2_EE, symObjAddr: 0x336AC, symBinAddr: 0x100036A64, symSize: 0xF8 }
  - { offset: 0x45B13, size: 0x8, addend: 0x0, symName: __ZN5Eigen8internal15call_assignmentINS_5BlockINS2_INS_6MatrixIdLin1ELin1ELi0ELin1ELin1EEELin1ELi1ELb1EEELin1ELi1ELb0EEENS_14CwiseNullaryOpINS0_18scalar_constant_opIdEENS3_IdLin1ELi1ELi0ELin1ELi1EEEEEEEvRT_RKT0_, symObjAddr: 0x34118, symBinAddr: 0x1000374D0, symSize: 0x50 }
  - { offset: 0x45B5E, size: 0x8, addend: 0x0, symName: __ZN5Eigen8internal15call_assignmentINS_5BlockINS2_INS_6MatrixIdLin1ELin1ELi0ELin1ELin1EEELin1ELi1ELb1EEELin1ELi1ELb0EEENS_14CwiseNullaryOpINS0_18scalar_constant_opIdEENS3_IdLin1ELi1ELi0ELin1ELi1EEEEENS0_9assign_opIddEEEEvRT_RKT0_RKT1_NS0_9enable_ifIXntsr25evaluator_assume_aliasingISG_EE5valueEPvE4typeE, symObjAddr: 0x34168, symBinAddr: 0x100037520, symSize: 0x38 }
  - { offset: 0x45BCC, size: 0x8, addend: 0x0, symName: __ZN5Eigen8internal24call_assignment_no_aliasINS_5BlockINS2_INS_6MatrixIdLin1ELin1ELi0ELin1ELin1EEELin1ELi1ELb1EEELin1ELi1ELb0EEENS_14CwiseNullaryOpINS0_18scalar_constant_opIdEENS3_IdLin1ELi1ELi0ELin1ELi1EEEEENS0_9assign_opIddEEEEvRT_RKT0_RKT1_, symObjAddr: 0x341A0, symBinAddr: 0x100037558, symSize: 0x3C }
  - { offset: 0x45C9A, size: 0x8, addend: 0x0, symName: __ZN5Eigen8internal18check_for_aliasingINS_5BlockINS2_INS_6MatrixIdLin1ELin1ELi0ELin1ELin1EEELin1ELi1ELb1EEELin1ELi1ELb0EEENS_14CwiseNullaryOpINS0_18scalar_constant_opIdEENS3_IdLin1ELi1ELi0ELin1ELi1EEEEEEEvRKT_RKT0_, symObjAddr: 0x3421C, symBinAddr: 0x1000375D4, symSize: 0x14 }
  - { offset: 0x45CE5, size: 0x8, addend: 0x0, symName: __ZN5Eigen8internal26call_dense_assignment_loopINS_5BlockINS2_INS_6MatrixIdLin1ELin1ELi0ELin1ELin1EEELin1ELi1ELb1EEELin1ELi1ELb0EEENS_14CwiseNullaryOpINS0_18scalar_constant_opIdEENS3_IdLin1ELi1ELi0ELin1ELi1EEEEENS0_9assign_opIddEEEEvRT_RKT0_RKT1_, symObjAddr: 0x34230, symBinAddr: 0x1000375E8, symSize: 0xE0 }
  - { offset: 0x45D99, size: 0x8, addend: 0x0, symName: __ZN5Eigen8internal17resize_if_allowedINS_5BlockINS2_INS_6MatrixIdLin1ELin1ELi0ELin1ELin1EEELin1ELi1ELb1EEELin1ELi1ELb0EEENS_14CwiseNullaryOpINS0_18scalar_constant_opIdEENS3_IdLin1ELi1ELi0ELin1ELi1EEEEEddEEvRT_RKT0_RKNS0_9assign_opIT1_T2_EE, symObjAddr: 0x34310, symBinAddr: 0x1000376C8, symSize: 0xF8 }
  - { offset: 0x45E1F, size: 0x8, addend: 0x0, symName: __ZN5Eigen8internal35apply_block_householder_on_the_leftINS_5BlockINS_6MatrixIdLin1ELin1ELi0ELin1ELin1EEELin1ELin1ELb0EEES5_NS_11VectorBlockIKNS3_IdLin1ELi1ELi0ELin1ELi1EEELin1EEEEEvRT_RKT0_RKT1_b, symObjAddr: 0x3481C, symBinAddr: 0x100037BD4, symSize: 0x240 }
  - { offset: 0x45EC7, size: 0x8, addend: 0x0, symName: __ZN5Eigen8internal40make_block_householder_triangular_factorINS_6MatrixIdLin1ELin1ELi1ELin1ELin1EEENS_5BlockINS2_IdLin1ELin1ELi0ELin1ELin1EEELin1ELin1ELb0EEENS_11VectorBlockIKNS2_IdLin1ELi1ELi0ELin1ELi1EEELin1EEEEEvRT_RKT0_RKT1_, symObjAddr: 0x34B50, symBinAddr: 0x100037F08, symSize: 0x3CC }
  - { offset: 0x45FBB, size: 0x8, addend: 0x0, symName: __ZN5Eigen8internal40make_block_householder_triangular_factorINS_6MatrixIdLin1ELin1ELi1ELin1ELin1EEENS_5BlockINS2_IdLin1ELin1ELi0ELin1ELin1EEELin1ELin1ELb0EEENS4_IKNS2_IdLin1ELi1ELi0ELin1ELi1EEELin1ELi1ELb0EEEEEvRT_RKT0_RKT1_, symObjAddr: 0x34F1C, symBinAddr: 0x1000382D4, symSize: 0x3CC }
  - { offset: 0x460AF, size: 0x8, addend: 0x0, symName: __ZN5Eigen8internal24call_assignment_no_aliasINS_5BlockINS2_INS_6MatrixIdLin1ELin1ELi1ELin1ELin1EEELi1ELin1ELb1EEELi1ELin1ELb0EEENS_7ProductINS_13CwiseBinaryOpINS0_17scalar_product_opIddEEKNS_14CwiseNullaryOpINS0_18scalar_constant_opIdEEKNS3_IdLi1ELin1ELi1ELi1ELin1EEEEEKNS_9TransposeIKNS2_IKNS2_IKNS2_INS3_IdLin1ELin1ELi0ELin1ELin1EEELin1ELin1ELb0EEELin1ELi1ELb1EEELin1ELi1ELb0EEEEEEENS_14TriangularViewIKNS2_ISL_Lin1ELin1ELb0EEELj5EEELi0EEENS0_9assign_opIddEEEEvRT_RKT0_RKT1_, symObjAddr: 0x38988, symBinAddr: 0x10003BD40, symSize: 0x3C }
  - { offset: 0x4627C, size: 0x8, addend: 0x0, symName: __ZN5Eigen8internal15call_assignmentINS_5BlockINS2_INS_6MatrixIdLin1ELin1ELi1ELin1ELin1EEELi1ELin1ELb1EEELi1ELin1ELb0EEENS_14CwiseNullaryOpINS0_18scalar_constant_opIdEENS3_IdLi1ELin1ELi1ELi1ELin1EEEEEEEvRT_RKT0_, symObjAddr: 0x38FBC, symBinAddr: 0x10003C374, symSize: 0x50 }
  - { offset: 0x462C7, size: 0x8, addend: 0x0, symName: __ZN5Eigen8internal15call_assignmentINS_5BlockINS2_INS_6MatrixIdLin1ELin1ELi1ELin1ELin1EEELi1ELin1ELb1EEELi1ELin1ELb0EEENS_14CwiseNullaryOpINS0_18scalar_constant_opIdEENS3_IdLi1ELin1ELi1ELi1ELin1EEEEENS0_9assign_opIddEEEEvRT_RKT0_RKT1_NS0_9enable_ifIXntsr25evaluator_assume_aliasingISG_EE5valueEPvE4typeE, symObjAddr: 0x3900C, symBinAddr: 0x10003C3C4, symSize: 0x38 }
  - { offset: 0x46335, size: 0x8, addend: 0x0, symName: __ZN5Eigen8internal24call_assignment_no_aliasINS_5BlockINS2_INS_6MatrixIdLin1ELin1ELi1ELin1ELin1EEELi1ELin1ELb1EEELi1ELin1ELb0EEENS_14CwiseNullaryOpINS0_18scalar_constant_opIdEENS3_IdLi1ELin1ELi1ELi1ELin1EEEEENS0_9assign_opIddEEEEvRT_RKT0_RKT1_, symObjAddr: 0x39044, symBinAddr: 0x10003C3FC, symSize: 0x3C }
  - { offset: 0x46403, size: 0x8, addend: 0x0, symName: __ZN5Eigen8internal18check_for_aliasingINS_5BlockINS2_INS_6MatrixIdLin1ELin1ELi1ELin1ELin1EEELi1ELin1ELb1EEELi1ELin1ELb0EEENS_14CwiseNullaryOpINS0_18scalar_constant_opIdEENS3_IdLi1ELin1ELi1ELi1ELin1EEEEEEEvRKT_RKT0_, symObjAddr: 0x390C0, symBinAddr: 0x10003C478, symSize: 0x14 }
  - { offset: 0x4644E, size: 0x8, addend: 0x0, symName: __ZN5Eigen8internal26call_dense_assignment_loopINS_5BlockINS2_INS_6MatrixIdLin1ELin1ELi1ELin1ELin1EEELi1ELin1ELb1EEELi1ELin1ELb0EEENS_14CwiseNullaryOpINS0_18scalar_constant_opIdEENS3_IdLi1ELin1ELi1ELi1ELin1EEEEENS0_9assign_opIddEEEEvRT_RKT0_RKT1_, symObjAddr: 0x390D4, symBinAddr: 0x10003C48C, symSize: 0xE0 }
  - { offset: 0x46502, size: 0x8, addend: 0x0, symName: __ZN5Eigen8internal17resize_if_allowedINS_5BlockINS2_INS_6MatrixIdLin1ELin1ELi1ELin1ELin1EEELi1ELin1ELb1EEELi1ELin1ELb0EEENS_14CwiseNullaryOpINS0_18scalar_constant_opIdEENS3_IdLi1ELin1ELi1ELi1ELin1EEEEEddEEvRT_RKT0_RKNS0_9assign_opIT1_T2_EE, symObjAddr: 0x391B4, symBinAddr: 0x10003C56C, symSize: 0xF8 }
  - { offset: 0x46C8A, size: 0x8, addend: 0x0, symName: __ZN5Eigen8internalL21first_default_alignedINS_13CwiseBinaryOpINS0_17scalar_product_opIddEEKNS_5BlockIKNS5_IKNS_3MapIKNS_6MatrixIdLin1ELin1ELi1ELin1ELin1EEELi0ENS_11OuterStrideILin1EEEEELi1ELin1ELb1EEELi1ELin1ELb0EEEKNS_9TransposeIKNS5_IKNS6_IKNS7_IdLin1ELi1ELi0ELin1ELi1EEELi0ENS_6StrideILi0ELi0EEEEELin1ELi1ELb0EEEEEEEEElRKNS_9DenseBaseIT_EE, symObjAddr: 0x3FB00, symBinAddr: 0x100042EB8, symSize: 0x24 }
  - { offset: 0x46CC1, size: 0x8, addend: 0x0, symName: __ZN5Eigen8internalL13first_alignedILi16ENS_13CwiseBinaryOpINS0_17scalar_product_opIddEEKNS_5BlockIKNS5_IKNS_3MapIKNS_6MatrixIdLin1ELin1ELi1ELin1ELin1EEELi0ENS_11OuterStrideILin1EEEEELi1ELin1ELb1EEELi1ELin1ELb0EEEKNS_9TransposeIKNS5_IKNS6_IKNS7_IdLin1ELi1ELi0ELin1ELi1EEELi0ENS_6StrideILi0ELi0EEEEELin1ELi1ELb0EEEEEEEEElRKNS_9DenseBaseIT0_EE, symObjAddr: 0x3FC04, symBinAddr: 0x100042FBC, symSize: 0x28 }
  - { offset: 0x46D40, size: 0x8, addend: 0x0, symName: __ZN5Eigen8internal15call_assignmentINS_5BlockINS_9TransposeINS2_INS2_INS_6MatrixIdLin1ELin1ELi1ELin1ELin1EEELi1ELin1ELb1EEELi1ELin1ELb0EEEEELin1ELi1ELb0EEENS_13CwiseBinaryOpINS0_17scalar_product_opIddEEKNS_14CwiseNullaryOpINS0_18scalar_constant_opIdEEKNS4_IdLin1ELi1ELi0ELin1ELi1EEEEEKNS2_IKNS3_IKNSA_ISC_KNSD_ISF_KNS4_IdLi1ELin1ELi1ELi1ELin1EEEEEKNS3_IKNS2_IKNS2_IKNS2_INS4_IdLin1ELin1ELi0ELin1ELin1EEELin1ELin1ELb0EEELin1ELi1ELb1EEELin1ELi1ELb0EEEEEEEEELin1ELi1ELb0EEEEENS0_13sub_assign_opIddEEEEvRT_RKT0_RKT1_NS0_9enable_ifIXntsr25evaluator_assume_aliasingIS18_EE5valueEPvE4typeE, symObjAddr: 0x40EB0, symBinAddr: 0x100044268, symSize: 0x38 }
  - { offset: 0x46DAE, size: 0x8, addend: 0x0, symName: __ZN5Eigen8internal24call_assignment_no_aliasINS_5BlockINS_9TransposeINS2_INS2_INS_6MatrixIdLin1ELin1ELi1ELin1ELin1EEELi1ELin1ELb1EEELi1ELin1ELb0EEEEELin1ELi1ELb0EEENS_13CwiseBinaryOpINS0_17scalar_product_opIddEEKNS_14CwiseNullaryOpINS0_18scalar_constant_opIdEEKNS4_IdLin1ELi1ELi0ELin1ELi1EEEEEKNS2_IKNS3_IKNSA_ISC_KNSD_ISF_KNS4_IdLi1ELin1ELi1ELi1ELin1EEEEEKNS3_IKNS2_IKNS2_IKNS2_INS4_IdLin1ELin1ELi0ELin1ELin1EEELin1ELin1ELb0EEELin1ELi1ELb1EEELin1ELi1ELb0EEEEEEEEELin1ELi1ELb0EEEEENS0_13sub_assign_opIddEEEEvRT_RKT0_RKT1_, symObjAddr: 0x40F10, symBinAddr: 0x1000442C8, symSize: 0x3C }
  - { offset: 0x46E7C, size: 0x8, addend: 0x0, symName: __ZN5Eigen8internal18check_for_aliasingINS_5BlockINS_9TransposeINS2_INS2_INS_6MatrixIdLin1ELin1ELi1ELin1ELin1EEELi1ELin1ELb1EEELi1ELin1ELb0EEEEELin1ELi1ELb0EEENS_13CwiseBinaryOpINS0_17scalar_product_opIddEEKNS_14CwiseNullaryOpINS0_18scalar_constant_opIdEEKNS4_IdLin1ELi1ELi0ELin1ELi1EEEEEKNS2_IKNS3_IKNSA_ISC_KNSD_ISF_KNS4_IdLi1ELin1ELi1ELi1ELin1EEEEEKNS3_IKNS2_IKNS2_IKNS2_INS4_IdLin1ELin1ELi0ELin1ELin1EEELin1ELin1ELb0EEELin1ELi1ELb1EEELin1ELi1ELb0EEEEEEEEELin1ELi1ELb0EEEEEEEvRKT_RKT0_, symObjAddr: 0x40F8C, symBinAddr: 0x100044344, symSize: 0x14 }
  - { offset: 0x46EC7, size: 0x8, addend: 0x0, symName: __ZN5Eigen8internal26call_dense_assignment_loopINS_5BlockINS_9TransposeINS2_INS2_INS_6MatrixIdLin1ELin1ELi1ELin1ELin1EEELi1ELin1ELb1EEELi1ELin1ELb0EEEEELin1ELi1ELb0EEENS_13CwiseBinaryOpINS0_17scalar_product_opIddEEKNS_14CwiseNullaryOpINS0_18scalar_constant_opIdEEKNS4_IdLin1ELi1ELi0ELin1ELi1EEEEEKNS2_IKNS3_IKNSA_ISC_KNSD_ISF_KNS4_IdLi1ELin1ELi1ELi1ELin1EEEEEKNS3_IKNS2_IKNS2_IKNS2_INS4_IdLin1ELin1ELi0ELin1ELin1EEELin1ELin1ELb0EEELin1ELi1ELb1EEELin1ELi1ELb0EEEEEEEEELin1ELi1ELb0EEEEENS0_13sub_assign_opIddEEEEvRT_RKT0_RKT1_, symObjAddr: 0x40FA0, symBinAddr: 0x100044358, symSize: 0xE0 }
  - { offset: 0x46F7C, size: 0x8, addend: 0x0, symName: __ZN5Eigen8internal17resize_if_allowedINS_5BlockINS_9TransposeINS2_INS2_INS_6MatrixIdLin1ELin1ELi1ELin1ELin1EEELi1ELin1ELb1EEELi1ELin1ELb0EEEEELin1ELi1ELb0EEENS_13CwiseBinaryOpINS0_17scalar_product_opIddEEKNS_14CwiseNullaryOpINS0_18scalar_constant_opIdEEKNS4_IdLin1ELi1ELi0ELin1ELi1EEEEEKNS2_IKNS3_IKNSA_ISC_KNSD_ISF_KNS4_IdLi1ELin1ELi1ELi1ELin1EEEEEKNS3_IKNS2_IKNS2_IKNS2_INS4_IdLin1ELin1ELi0ELin1ELin1EEELin1ELin1ELb0EEELin1ELi1ELb1EEELin1ELi1ELb0EEEEEEEEELin1ELi1ELb0EEEEENS0_13sub_assign_opIddEEEEvRT_RKT0_RKT1_, symObjAddr: 0x410B4, symBinAddr: 0x10004446C, symSize: 0xB4 }
  - { offset: 0x46FDB, size: 0x8, addend: 0x0, symName: __ZN5Eigen8internal15call_assignmentINS_5BlockINS2_INS_6MatrixIdLin1ELin1ELi1ELin1ELin1EEELi1ELin1ELb1EEELi1ELin1ELb0EEENS_13CwiseBinaryOpINS0_17scalar_product_opIddEEKNS_14CwiseNullaryOpINS0_18scalar_constant_opIdEEKNS3_IdLi1ELin1ELi1ELi1ELin1EEEEEKS6_EENS0_13add_assign_opIddEEEEvRT_RKT0_RKT1_NS0_9enable_ifIXntsr25evaluator_assume_aliasingISN_EE5valueEPvE4typeE, symObjAddr: 0x43370, symBinAddr: 0x100046728, symSize: 0x38 }
  - { offset: 0x47049, size: 0x8, addend: 0x0, symName: __ZN5Eigen8internal24call_assignment_no_aliasINS_5BlockINS2_INS_6MatrixIdLin1ELin1ELi1ELin1ELin1EEELi1ELin1ELb1EEELi1ELin1ELb0EEENS_13CwiseBinaryOpINS0_17scalar_product_opIddEEKNS_14CwiseNullaryOpINS0_18scalar_constant_opIdEEKNS3_IdLi1ELin1ELi1ELi1ELin1EEEEEKS6_EENS0_13add_assign_opIddEEEEvRT_RKT0_RKT1_, symObjAddr: 0x433BC, symBinAddr: 0x100046774, symSize: 0x3C }
  - { offset: 0x47117, size: 0x8, addend: 0x0, symName: __ZN5Eigen8internal18check_for_aliasingINS_5BlockINS2_INS_6MatrixIdLin1ELin1ELi1ELin1ELin1EEELi1ELin1ELb1EEELi1ELin1ELb0EEENS_13CwiseBinaryOpINS0_17scalar_product_opIddEEKNS_14CwiseNullaryOpINS0_18scalar_constant_opIdEEKNS3_IdLi1ELin1ELi1ELi1ELin1EEEEEKS6_EEEEvRKT_RKT0_, symObjAddr: 0x43438, symBinAddr: 0x1000467F0, symSize: 0x14 }
  - { offset: 0x47162, size: 0x8, addend: 0x0, symName: __ZN5Eigen8internal26call_dense_assignment_loopINS_5BlockINS2_INS_6MatrixIdLin1ELin1ELi1ELin1ELin1EEELi1ELin1ELb1EEELi1ELin1ELb0EEENS_13CwiseBinaryOpINS0_17scalar_product_opIddEEKNS_14CwiseNullaryOpINS0_18scalar_constant_opIdEEKNS3_IdLi1ELin1ELi1ELi1ELin1EEEEEKS6_EENS0_13add_assign_opIddEEEEvRT_RKT0_RKT1_, symObjAddr: 0x4344C, symBinAddr: 0x100046804, symSize: 0xD8 }
  - { offset: 0x47217, size: 0x8, addend: 0x0, symName: __ZN5Eigen8internal17resize_if_allowedINS_5BlockINS2_INS_6MatrixIdLin1ELin1ELi1ELin1ELin1EEELi1ELin1ELb1EEELi1ELin1ELb0EEENS_13CwiseBinaryOpINS0_17scalar_product_opIddEEKNS_14CwiseNullaryOpINS0_18scalar_constant_opIdEEKNS3_IdLi1ELin1ELi1ELi1ELin1EEEEEKS6_EENS0_13add_assign_opIddEEEEvRT_RKT0_RKT1_, symObjAddr: 0x43558, symBinAddr: 0x100046910, symSize: 0xB4 }
  - { offset: 0x47276, size: 0x8, addend: 0x0, symName: __ZN5Eigen8internal24call_assignment_no_aliasINS_6MatrixIdLin1ELin1ELi0ELin1ELin1EEENS_7ProductINS_14TriangularViewIKNS_9TransposeIKNS_5BlockIS3_Lin1ELin1ELb0EEEEELj6EEES8_Li0EEENS0_9assign_opIddEEEEvRT_RKT0_RKT1_, symObjAddr: 0x44598, symBinAddr: 0x100047950, symSize: 0x3C }
  - { offset: 0x47554, size: 0x8, addend: 0x0, symName: __ZN5Eigen8internal27computeProductBlockingSizesIddLi4ElEEvRT2_S3_S3_S2_, symObjAddr: 0x462EC, symBinAddr: 0x1000496A4, symSize: 0x58 }
  - { offset: 0x475D0, size: 0x8, addend: 0x0, symName: __ZN5Eigen8internal24useSpecificBlockingSizesIlEEbRT_S3_S3_, symObjAddr: 0x46344, symBinAddr: 0x1000496FC, symSize: 0x44 }
  - { offset: 0x47625, size: 0x8, addend: 0x0, symName: __ZN5Eigen8internal15queryCacheSizesERiS1_S1_, symObjAddr: 0x46D98, symBinAddr: 0x10004A150, symSize: 0x34 }
  - { offset: 0x4766D, size: 0x8, addend: 0x0, symName: __ZN5Eigen8internal27manage_caching_sizes_helperEll, symObjAddr: 0x46DCC, symBinAddr: 0x10004A184, symSize: 0x44 }
  - { offset: 0x476E9, size: 0x8, addend: 0x0, symName: __ZN5Eigen8internal28check_static_allocation_sizeIdLi144EEEvv, symObjAddr: 0x4D4D8, symBinAddr: 0x100050890, symSize: 0x4 }
  - { offset: 0x47717, size: 0x8, addend: 0x0, symName: __ZN5Eigen8internal15call_assignmentINS_6MatrixIdLi12ELi12ELi1ELi12ELi12EEENS_14CwiseNullaryOpINS0_18scalar_constant_opIdEES3_EEEEvRT_RKT0_, symObjAddr: 0x4D95C, symBinAddr: 0x100050D14, symSize: 0x50 }
  - { offset: 0x47762, size: 0x8, addend: 0x0, symName: __ZN5Eigen8internal15call_assignmentINS_6MatrixIdLi12ELi12ELi1ELi12ELi12EEENS_14CwiseNullaryOpINS0_18scalar_constant_opIdEES3_EENS0_9assign_opIddEEEEvRT_RKT0_RKT1_NS0_9enable_ifIXntsr25evaluator_assume_aliasingISC_EE5valueEPvE4typeE, symObjAddr: 0x4D9C0, symBinAddr: 0x100050D78, symSize: 0x38 }
  - { offset: 0x477D0, size: 0x8, addend: 0x0, symName: __ZN5Eigen8internal24call_assignment_no_aliasINS_6MatrixIdLi12ELi12ELi1ELi12ELi12EEENS_14CwiseNullaryOpINS0_18scalar_constant_opIdEES3_EENS0_9assign_opIddEEEEvRT_RKT0_RKT1_, symObjAddr: 0x4D9F8, symBinAddr: 0x100050DB0, symSize: 0x3C }
  - { offset: 0x4789E, size: 0x8, addend: 0x0, symName: __ZN5Eigen8internal18check_for_aliasingINS_6MatrixIdLi12ELi12ELi1ELi12ELi12EEENS_14CwiseNullaryOpINS0_18scalar_constant_opIdEES3_EEEEvRKT_RKT0_, symObjAddr: 0x4DA74, symBinAddr: 0x100050E2C, symSize: 0x60 }
  - { offset: 0x478E9, size: 0x8, addend: 0x0, symName: __ZN5Eigen8internal26call_dense_assignment_loopINS_6MatrixIdLi12ELi12ELi1ELi12ELi12EEEEEvRT_RKNS_14CwiseNullaryOpINS0_18scalar_constant_opINS4_6ScalarEEES4_EERKNS0_9assign_opIS8_S8_EE, symObjAddr: 0x4DAD4, symBinAddr: 0x100050E8C, symSize: 0x6C }
  - { offset: 0x47978, size: 0x8, addend: 0x0, symName: __ZN5Eigen8internal17resize_if_allowedINS_6MatrixIdLi12ELi12ELi1ELi12ELi12EEENS_14CwiseNullaryOpINS0_18scalar_constant_opIdEES3_EEddEEvRT_RKT0_RKNS0_9assign_opIT1_T2_EE, symObjAddr: 0x4DB54, symBinAddr: 0x100050F0C, symSize: 0xF8 }
  - { offset: 0x479FE, size: 0x8, addend: 0x0, symName: __ZN5Eigen8internal15call_assignmentINS_8DiagonalINS_6MatrixIdLi12ELi12ELi1ELi12ELi12EEELi0EEENS_14CwiseNullaryOpINS0_18scalar_constant_opIdEENS3_IdLi12ELi1ELi0ELi12ELi1EEEEEEEvRT_RKT0_, symObjAddr: 0x4E454, symBinAddr: 0x10005180C, symSize: 0x50 }
  - { offset: 0x47A49, size: 0x8, addend: 0x0, symName: __ZN5Eigen8internal15call_assignmentINS_8DiagonalINS_6MatrixIdLi12ELi12ELi1ELi12ELi12EEELi0EEENS_14CwiseNullaryOpINS0_18scalar_constant_opIdEENS3_IdLi12ELi1ELi0ELi12ELi1EEEEENS0_9assign_opIddEEEEvRT_RKT0_RKT1_NS0_9enable_ifIXntsr25evaluator_assume_aliasingISF_EE5valueEPvE4typeE, symObjAddr: 0x4E4A4, symBinAddr: 0x10005185C, symSize: 0x38 }
  - { offset: 0x47AB7, size: 0x8, addend: 0x0, symName: __ZN5Eigen8internal24call_assignment_no_aliasINS_8DiagonalINS_6MatrixIdLi12ELi12ELi1ELi12ELi12EEELi0EEENS_14CwiseNullaryOpINS0_18scalar_constant_opIdEENS3_IdLi12ELi1ELi0ELi12ELi1EEEEENS0_9assign_opIddEEEEvRT_RKT0_RKT1_, symObjAddr: 0x4E4DC, symBinAddr: 0x100051894, symSize: 0x3C }
  - { offset: 0x47B85, size: 0x8, addend: 0x0, symName: __ZN5Eigen8internal18check_for_aliasingINS_8DiagonalINS_6MatrixIdLi12ELi12ELi1ELi12ELi12EEELi0EEENS_14CwiseNullaryOpINS0_18scalar_constant_opIdEENS3_IdLi12ELi1ELi0ELi12ELi1EEEEEEEvRKT_RKT0_, symObjAddr: 0x4E558, symBinAddr: 0x100051910, symSize: 0x14 }
  - { offset: 0x47BD0, size: 0x8, addend: 0x0, symName: __ZN5Eigen8internal26call_dense_assignment_loopINS_8DiagonalINS_6MatrixIdLi12ELi12ELi1ELi12ELi12EEELi0EEENS_14CwiseNullaryOpINS0_18scalar_constant_opIdEENS3_IdLi12ELi1ELi0ELi12ELi1EEEEENS0_9assign_opIddEEEEvRT_RKT0_RKT1_, symObjAddr: 0x4E56C, symBinAddr: 0x100051924, symSize: 0xE0 }
  - { offset: 0x47D6F, size: 0x8, addend: 0x0, symName: __ZN5Eigen8internal17resize_if_allowedINS_8DiagonalINS_6MatrixIdLi12ELi12ELi1ELi12ELi12EEELi0EEENS_14CwiseNullaryOpINS0_18scalar_constant_opIdEENS3_IdLi12ELi1ELi0ELi12ELi1EEEEEddEEvRT_RKT0_RKNS0_9assign_opIT1_T2_EE, symObjAddr: 0x4E680, symBinAddr: 0x100051A38, symSize: 0xF8 }
  - { offset: 0x484E8, size: 0x8, addend: 0x0, symName: __ZN5Eigen8internal10ptransposeERNS0_11PacketBlockI19__simd128_float64_tLi2EEE, symObjAddr: 0x4F2F4, symBinAddr: 0x1000526AC, symSize: 0x88 }
  - { offset: 0x48530, size: 0x8, addend: 0x0, symName: __ZN5Eigen8internal8prefetchIdEEvPKT_, symObjAddr: 0x4F3A0, symBinAddr: 0x100052758, symSize: 0x18 }
  - { offset: 0x48919, size: 0x8, addend: 0x0, symName: __ZN5Eigen8internal5pmaddIdEET_RKS2_S4_S4_, symObjAddr: 0x50B30, symBinAddr: 0x100053EE8, symSize: 0x40 }
  - { offset: 0x4896E, size: 0x8, addend: 0x0, symName: __ZN5Eigen8internal4paddIdEET_RKS2_S4_, symObjAddr: 0x50B70, symBinAddr: 0x100053F28, symSize: 0x28 }
  - { offset: 0x489B1, size: 0x8, addend: 0x0, symName: __ZN5Eigen8internal15call_assignmentINS_5BlockINS_6MatrixIdLin1ELin1ELi0ELin1ELin1EEELin1ELin1ELb0EEENS2_IKNS_13CwiseBinaryOpINS0_17scalar_product_opIddEEKNS_14CwiseNullaryOpINS0_18scalar_constant_opIdEEKS4_EEKS5_EELin1ELin1ELb0EEENS0_13sub_assign_opIddEEEEvRT_RKT0_RKT1_NS0_9enable_ifIXntsr25evaluator_assume_aliasingISN_EE5valueEPvE4typeE, symObjAddr: 0x511E4, symBinAddr: 0x10005459C, symSize: 0x38 }
  - { offset: 0x48A1F, size: 0x8, addend: 0x0, symName: __ZN5Eigen8internal24call_assignment_no_aliasINS_5BlockINS_6MatrixIdLin1ELin1ELi0ELin1ELin1EEELin1ELin1ELb0EEENS2_IKNS_13CwiseBinaryOpINS0_17scalar_product_opIddEEKNS_14CwiseNullaryOpINS0_18scalar_constant_opIdEEKS4_EEKS5_EELin1ELin1ELb0EEENS0_13sub_assign_opIddEEEEvRT_RKT0_RKT1_, symObjAddr: 0x51230, symBinAddr: 0x1000545E8, symSize: 0x3C }
  - { offset: 0x48AED, size: 0x8, addend: 0x0, symName: __ZN5Eigen8internal18check_for_aliasingINS_5BlockINS_6MatrixIdLin1ELin1ELi0ELin1ELin1EEELin1ELin1ELb0EEENS2_IKNS_13CwiseBinaryOpINS0_17scalar_product_opIddEEKNS_14CwiseNullaryOpINS0_18scalar_constant_opIdEEKS4_EEKS5_EELin1ELin1ELb0EEEEEvRKT_RKT0_, symObjAddr: 0x512AC, symBinAddr: 0x100054664, symSize: 0x60 }
  - { offset: 0x48B38, size: 0x8, addend: 0x0, symName: __ZN5Eigen8internal26call_dense_assignment_loopINS_5BlockINS_6MatrixIdLin1ELin1ELi0ELin1ELin1EEELin1ELin1ELb0EEENS2_IKNS_13CwiseBinaryOpINS0_17scalar_product_opIddEEKNS_14CwiseNullaryOpINS0_18scalar_constant_opIdEEKS4_EEKS5_EELin1ELin1ELb0EEENS0_13sub_assign_opIddEEEEvRT_RKT0_RKT1_, symObjAddr: 0x5130C, symBinAddr: 0x1000546C4, symSize: 0xD8 }
  - { offset: 0x48C2B, size: 0x8, addend: 0x0, symName: __ZN5Eigen8internal17resize_if_allowedINS_5BlockINS_6MatrixIdLin1ELin1ELi0ELin1ELin1EEELin1ELin1ELb0EEENS2_IKNS_13CwiseBinaryOpINS0_17scalar_product_opIddEEKNS_14CwiseNullaryOpINS0_18scalar_constant_opIdEEKS4_EEKS5_EELin1ELin1ELb0EEENS0_13sub_assign_opIddEEEEvRT_RKT0_RKT1_, symObjAddr: 0x5142C, symBinAddr: 0x1000547E4, symSize: 0xB4 }
  - { offset: 0x48CC4, size: 0x8, addend: 0x0, symName: __ZN5Eigen8internal14aligned_deleteIdEEvPT_m, symObjAddr: 0x52540, symBinAddr: 0x1000558F8, symSize: 0x34 }
  - { offset: 0x48D06, size: 0x8, addend: 0x0, symName: __ZN5Eigen8internal26destruct_elements_of_arrayIdEEvPT_m, symObjAddr: 0x52574, symBinAddr: 0x10005592C, symSize: 0x54 }
  - { offset: 0x48D48, size: 0x8, addend: 0x0, symName: __ZN5Eigen8internal15call_assignmentINS_6MatrixIdLin1ELin1ELi0ELin1ELin1EEENS_7ProductINS_14TriangularViewINS2_IdLin1ELin1ELi1ELin1ELin1EEELj2EEES3_Li0EEEEEvRT_RKT0_, symObjAddr: 0x52894, symBinAddr: 0x100055C4C, symSize: 0x50 }
  - { offset: 0x48D93, size: 0x8, addend: 0x0, symName: __ZN5Eigen8internal15call_assignmentINS_6MatrixIdLin1ELin1ELi0ELin1ELin1EEENS_7ProductINS_14TriangularViewINS2_IdLin1ELin1ELi1ELin1ELin1EEELj2EEES3_Li0EEENS0_9assign_opIddEEEEvRT_RKT0_RKT1_NS0_9enable_ifIXsr25evaluator_assume_aliasingISD_EE5valueEPvE4typeE, symObjAddr: 0x528F8, symBinAddr: 0x100055CB0, symSize: 0x74 }
  - { offset: 0x48E10, size: 0x8, addend: 0x0, symName: __ZN5Eigen8internal24call_assignment_no_aliasINS_6MatrixIdLin1ELin1ELi0ELin1ELin1EEENS_7ProductINS_14TriangularViewINS2_IdLin1ELin1ELi1ELin1ELin1EEELj2EEES3_Li0EEENS0_9assign_opIddEEEEvRT_RKT0_RKT1_, symObjAddr: 0x52A94, symBinAddr: 0x100055E4C, symSize: 0x3C }
  - { offset: 0x4904C, size: 0x8, addend: 0x0, symName: __ZN5Eigen8internal15call_assignmentINS_6MatrixIdLin1ELin1ELi0ELin1ELin1EEENS_7ProductINS_14TriangularViewIKNS_9TransposeIKNS2_IdLin1ELin1ELi1ELin1ELin1EEEEELj1EEES3_Li0EEEEEvRT_RKT0_, symObjAddr: 0x54770, symBinAddr: 0x100057B28, symSize: 0x50 }
  - { offset: 0x49097, size: 0x8, addend: 0x0, symName: __ZN5Eigen8internal15call_assignmentINS_6MatrixIdLin1ELin1ELi0ELin1ELin1EEENS_7ProductINS_14TriangularViewIKNS_9TransposeIKNS2_IdLin1ELin1ELi1ELin1ELin1EEEEELj1EEES3_Li0EEENS0_9assign_opIddEEEEvRT_RKT0_RKT1_NS0_9enable_ifIXsr25evaluator_assume_aliasingISH_EE5valueEPvE4typeE, symObjAddr: 0x547D4, symBinAddr: 0x100057B8C, symSize: 0x74 }
  - { offset: 0x49114, size: 0x8, addend: 0x0, symName: __ZN5Eigen8internal24call_assignment_no_aliasINS_6MatrixIdLin1ELin1ELi0ELin1ELin1EEENS_7ProductINS_14TriangularViewIKNS_9TransposeIKNS2_IdLin1ELin1ELi1ELin1ELin1EEEEELj1EEES3_Li0EEENS0_9assign_opIddEEEEvRT_RKT0_RKT1_, symObjAddr: 0x54970, symBinAddr: 0x100057D28, symSize: 0x3C }
  - { offset: 0x49350, size: 0x8, addend: 0x0, symName: __ZN5Eigen8internal15call_assignmentINS_6MatrixIdLi12ELi12ELi0ELi12ELi12EEENS_14CwiseNullaryOpINS0_18scalar_constant_opIdEES3_EEEEvRT_RKT0_, symObjAddr: 0x56F88, symBinAddr: 0x10005A340, symSize: 0x50 }
  - { offset: 0x4939B, size: 0x8, addend: 0x0, symName: __ZN5Eigen8internal15call_assignmentINS_6MatrixIdLi12ELi12ELi0ELi12ELi12EEENS_14CwiseNullaryOpINS0_18scalar_constant_opIdEES3_EENS0_9assign_opIddEEEEvRT_RKT0_RKT1_NS0_9enable_ifIXntsr25evaluator_assume_aliasingISC_EE5valueEPvE4typeE, symObjAddr: 0x56FEC, symBinAddr: 0x10005A3A4, symSize: 0x38 }
  - { offset: 0x49409, size: 0x8, addend: 0x0, symName: __ZN5Eigen8internal24call_assignment_no_aliasINS_6MatrixIdLi12ELi12ELi0ELi12ELi12EEENS_14CwiseNullaryOpINS0_18scalar_constant_opIdEES3_EENS0_9assign_opIddEEEEvRT_RKT0_RKT1_, symObjAddr: 0x57024, symBinAddr: 0x10005A3DC, symSize: 0x3C }
  - { offset: 0x494D7, size: 0x8, addend: 0x0, symName: __ZN5Eigen8internal18check_for_aliasingINS_6MatrixIdLi12ELi12ELi0ELi12ELi12EEENS_14CwiseNullaryOpINS0_18scalar_constant_opIdEES3_EEEEvRKT_RKT0_, symObjAddr: 0x570A0, symBinAddr: 0x10005A458, symSize: 0x60 }
  - { offset: 0x49522, size: 0x8, addend: 0x0, symName: __ZN5Eigen8internal26call_dense_assignment_loopINS_6MatrixIdLi12ELi12ELi0ELi12ELi12EEEEEvRT_RKNS_14CwiseNullaryOpINS0_18scalar_constant_opINS4_6ScalarEEES4_EERKNS0_9assign_opIS8_S8_EE, symObjAddr: 0x57100, symBinAddr: 0x10005A4B8, symSize: 0x6C }
  - { offset: 0x495B1, size: 0x8, addend: 0x0, symName: __ZN5Eigen8internal17resize_if_allowedINS_6MatrixIdLi12ELi12ELi0ELi12ELi12EEENS_14CwiseNullaryOpINS0_18scalar_constant_opIdEES3_EEddEEvRT_RKT0_RKNS0_9assign_opIT1_T2_EE, symObjAddr: 0x57180, symBinAddr: 0x10005A538, symSize: 0xF8 }
  - { offset: 0x49637, size: 0x8, addend: 0x0, symName: __ZN5Eigen8internal15call_assignmentINS_8DiagonalINS_6MatrixIdLi12ELi12ELi0ELi12ELi12EEELi0EEENS_14CwiseNullaryOpINS0_18scalar_constant_opIdEENS3_IdLi12ELi1ELi0ELi12ELi1EEEEEEEvRT_RKT0_, symObjAddr: 0x578D8, symBinAddr: 0x10005AC90, symSize: 0x50 }
  - { offset: 0x49682, size: 0x8, addend: 0x0, symName: __ZN5Eigen8internal15call_assignmentINS_8DiagonalINS_6MatrixIdLi12ELi12ELi0ELi12ELi12EEELi0EEENS_14CwiseNullaryOpINS0_18scalar_constant_opIdEENS3_IdLi12ELi1ELi0ELi12ELi1EEEEENS0_9assign_opIddEEEEvRT_RKT0_RKT1_NS0_9enable_ifIXntsr25evaluator_assume_aliasingISF_EE5valueEPvE4typeE, symObjAddr: 0x57928, symBinAddr: 0x10005ACE0, symSize: 0x38 }
  - { offset: 0x496F0, size: 0x8, addend: 0x0, symName: __ZN5Eigen8internal24call_assignment_no_aliasINS_8DiagonalINS_6MatrixIdLi12ELi12ELi0ELi12ELi12EEELi0EEENS_14CwiseNullaryOpINS0_18scalar_constant_opIdEENS3_IdLi12ELi1ELi0ELi12ELi1EEEEENS0_9assign_opIddEEEEvRT_RKT0_RKT1_, symObjAddr: 0x57960, symBinAddr: 0x10005AD18, symSize: 0x3C }
  - { offset: 0x497BE, size: 0x8, addend: 0x0, symName: __ZN5Eigen8internal18check_for_aliasingINS_8DiagonalINS_6MatrixIdLi12ELi12ELi0ELi12ELi12EEELi0EEENS_14CwiseNullaryOpINS0_18scalar_constant_opIdEENS3_IdLi12ELi1ELi0ELi12ELi1EEEEEEEvRKT_RKT0_, symObjAddr: 0x579DC, symBinAddr: 0x10005AD94, symSize: 0x14 }
  - { offset: 0x49809, size: 0x8, addend: 0x0, symName: __ZN5Eigen8internal26call_dense_assignment_loopINS_8DiagonalINS_6MatrixIdLi12ELi12ELi0ELi12ELi12EEELi0EEENS_14CwiseNullaryOpINS0_18scalar_constant_opIdEENS3_IdLi12ELi1ELi0ELi12ELi1EEEEENS0_9assign_opIddEEEEvRT_RKT0_RKT1_, symObjAddr: 0x579F0, symBinAddr: 0x10005ADA8, symSize: 0xE0 }
  - { offset: 0x498BD, size: 0x8, addend: 0x0, symName: __ZN5Eigen8internal17resize_if_allowedINS_8DiagonalINS_6MatrixIdLi12ELi12ELi0ELi12ELi12EEELi0EEENS_14CwiseNullaryOpINS0_18scalar_constant_opIdEENS3_IdLi12ELi1ELi0ELi12ELi1EEEEEddEEvRT_RKT0_RKNS0_9assign_opIT1_T2_EE, symObjAddr: 0x57AD0, symBinAddr: 0x10005AE88, symSize: 0xF8 }
  - { offset: 0x4A036, size: 0x8, addend: 0x0, symName: __ZN5Eigen8internal24call_assignment_no_aliasINS_5BlockINS_6MatrixIdLin1ELin1ELi0ELin1ELin1EEELin1ELin1ELb0EEENS_7ProductINS_14TriangularViewIKS5_Lj5EEES4_Li0EEENS0_13sub_assign_opIddEEEEvRT_RKT0_RKT1_, symObjAddr: 0x58780, symBinAddr: 0x10005BB38, symSize: 0x3C }
  - { offset: 0x4A203, size: 0x8, addend: 0x0, symName: __ZN5Eigen8internal15call_assignmentINS_5BlockINS2_INS_6MatrixIdLin1ELin1ELi0ELin1ELin1EEELin1ELin1ELb0EEELin1ELin1ELb0EEENS2_IKNS_13CwiseBinaryOpINS0_17scalar_product_opIddEEKNS_14CwiseNullaryOpINS0_18scalar_constant_opIdEEKS4_EESD_EELin1ELin1ELb0EEENS0_13sub_assign_opIddEEEEvRT_RKT0_RKT1_NS0_9enable_ifIXntsr25evaluator_assume_aliasingISN_EE5valueEPvE4typeE, symObjAddr: 0x5A724, symBinAddr: 0x10005DADC, symSize: 0x38 }
  - { offset: 0x4A271, size: 0x8, addend: 0x0, symName: __ZN5Eigen8internal24call_assignment_no_aliasINS_5BlockINS2_INS_6MatrixIdLin1ELin1ELi0ELin1ELin1EEELin1ELin1ELb0EEELin1ELin1ELb0EEENS2_IKNS_13CwiseBinaryOpINS0_17scalar_product_opIddEEKNS_14CwiseNullaryOpINS0_18scalar_constant_opIdEEKS4_EESD_EELin1ELin1ELb0EEENS0_13sub_assign_opIddEEEEvRT_RKT0_RKT1_, symObjAddr: 0x5A770, symBinAddr: 0x10005DB28, symSize: 0x3C }
  - { offset: 0x4A33F, size: 0x8, addend: 0x0, symName: __ZN5Eigen8internal18check_for_aliasingINS_5BlockINS2_INS_6MatrixIdLin1ELin1ELi0ELin1ELin1EEELin1ELin1ELb0EEELin1ELin1ELb0EEENS2_IKNS_13CwiseBinaryOpINS0_17scalar_product_opIddEEKNS_14CwiseNullaryOpINS0_18scalar_constant_opIdEEKS4_EESD_EELin1ELin1ELb0EEEEEvRKT_RKT0_, symObjAddr: 0x5A7EC, symBinAddr: 0x10005DBA4, symSize: 0x60 }
  - { offset: 0x4A38A, size: 0x8, addend: 0x0, symName: __ZN5Eigen8internal26call_dense_assignment_loopINS_5BlockINS2_INS_6MatrixIdLin1ELin1ELi0ELin1ELin1EEELin1ELin1ELb0EEELin1ELin1ELb0EEENS2_IKNS_13CwiseBinaryOpINS0_17scalar_product_opIddEEKNS_14CwiseNullaryOpINS0_18scalar_constant_opIdEEKS4_EESD_EELin1ELin1ELb0EEENS0_13sub_assign_opIddEEEEvRT_RKT0_RKT1_, symObjAddr: 0x5A84C, symBinAddr: 0x10005DC04, symSize: 0xE0 }
  - { offset: 0x4A47D, size: 0x8, addend: 0x0, symName: __ZN5Eigen8internal17resize_if_allowedINS_5BlockINS2_INS_6MatrixIdLin1ELin1ELi0ELin1ELin1EEELin1ELin1ELb0EEELin1ELin1ELb0EEENS2_IKNS_13CwiseBinaryOpINS0_17scalar_product_opIddEEKNS_14CwiseNullaryOpINS0_18scalar_constant_opIdEEKS4_EESD_EELin1ELin1ELb0EEENS0_13sub_assign_opIddEEEEvRT_RKT0_RKT1_, symObjAddr: 0x5A974, symBinAddr: 0x10005DD2C, symSize: 0xB4 }
  - { offset: 0x4A516, size: 0x8, addend: 0x0, symName: __ZN5Eigen8internal24call_assignment_no_aliasINS_14TriangularViewINS_5BlockINS_6MatrixIdLin1ELin1ELi0ELin1ELin1EEELin1ELin1ELb0EEELj1EEENS_14CwiseNullaryOpINS0_18scalar_constant_opIdEES5_EENS0_9assign_opIddEEEEvRT_RKT0_RKT1_, symObjAddr: 0x5DC08, symBinAddr: 0x100060FC0, symSize: 0x3C }
  - { offset: 0x4A5E4, size: 0x8, addend: 0x0, symName: __ZN5Eigen8internal31call_triangular_assignment_loopILi1ELb0ENS_14TriangularViewINS_5BlockINS_6MatrixIdLin1ELin1ELi0ELin1ELin1EEELin1ELin1ELb0EEELj1EEENS_14CwiseNullaryOpINS0_18scalar_constant_opIdEES5_EENS0_9assign_opIddEEEEvRT1_RKT2_RKT3_, symObjAddr: 0x5DC78, symBinAddr: 0x100061030, symSize: 0x140 }
  - { offset: 0x4AD3D, size: 0x8, addend: 0x0, symName: __ZN5Eigen8internalL21first_default_alignedINS_12CwiseUnaryOpINS0_13scalar_abs_opIdEEKNS_5BlockINS5_INS_6MatrixIdLin1ELin1ELi0ELin1ELin1EEELin1ELi1ELb1EEELin1ELi1ELb0EEEEEEElRKNS_9DenseBaseIT_EE, symObjAddr: 0x5ECC0, symBinAddr: 0x100062078, symSize: 0x24 }
  - { offset: 0x4AD74, size: 0x8, addend: 0x0, symName: __ZN5Eigen8internalL13first_alignedILi16ENS_12CwiseUnaryOpINS0_13scalar_abs_opIdEEKNS_5BlockINS5_INS_6MatrixIdLin1ELin1ELi0ELin1ELin1EEELin1ELi1ELb1EEELin1ELi1ELb0EEEEEEElRKNS_9DenseBaseIT0_EE, symObjAddr: 0x5ED80, symBinAddr: 0x100062138, symSize: 0x28 }
  - { offset: 0x4ADF3, size: 0x8, addend: 0x0, symName: __ZN5Eigen8internal27apply_rotation_in_the_planeINS_5BlockINS2_INS_6MatrixIdLin1ELin1ELi0ELin1ELin1EEELin1ELin1ELb1EEELi1ELin1ELb0EEES6_dEEvRNS_9DenseBaseIT_EERNS7_IT0_EERKNS_14JacobiRotationIT1_EE, symObjAddr: 0x5F40C, symBinAddr: 0x1000627C4, symSize: 0x13C }
  - { offset: 0x4AF45, size: 0x8, addend: 0x0, symName: __ZN5Eigen8internal27apply_rotation_in_the_planeINS_5BlockINS2_INS_6MatrixIdLin1ELin1ELi0ELin1ELin1EEELin1ELin1ELb0EEELin1ELi1ELb1EEES6_dEEvRNS_9DenseBaseIT_EERNS7_IT0_EERKNS_14JacobiRotationIT1_EE, symObjAddr: 0x5FCA4, symBinAddr: 0x10006305C, symSize: 0x13C }
  - { offset: 0x4B02C, size: 0x8, addend: 0x0, symName: __ZN5Eigen8internal27apply_rotation_in_the_planeINS_5BlockINS_6MatrixIdLin1ELin1ELi0ELin1ELin1EEELin1ELi1ELb1EEES5_dEEvRNS_9DenseBaseIT_EERNS6_IT0_EERKNS_14JacobiRotationIT1_EE, symObjAddr: 0x5FE9C, symBinAddr: 0x100063254, symSize: 0x13C }
  - { offset: 0x4B113, size: 0x8, addend: 0x0, symName: __ZN5Eigen8internal28check_static_allocation_sizeIdLi3EEEvv, symObjAddr: 0x60578, symBinAddr: 0x100063930, symSize: 0x4 }
  - { offset: 0x4B140, size: 0x8, addend: 0x0, symName: __ZN5Eigen8internal24call_assignment_no_aliasINS_6MatrixIdLi3ELi1ELi0ELi3ELi1EEENS_14CwiseNullaryOpINS0_18scalar_constant_opIdEES3_EENS0_9assign_opIddEEEEvRT_RKT0_RKT1_, symObjAddr: 0x606E4, symBinAddr: 0x100063A9C, symSize: 0x3C }
  - { offset: 0x4B20E, size: 0x8, addend: 0x0, symName: __ZN5Eigen8internal18check_for_aliasingINS_6MatrixIdLi3ELi1ELi0ELi3ELi1EEENS_14CwiseNullaryOpINS0_18scalar_constant_opIdEES3_EEEEvRKT_RKT0_, symObjAddr: 0x60774, symBinAddr: 0x100063B2C, symSize: 0x14 }
  - { offset: 0x4B259, size: 0x8, addend: 0x0, symName: __ZN5Eigen8internal26call_dense_assignment_loopINS_6MatrixIdLi3ELi1ELi0ELi3ELi1EEEEEvRT_RKNS_14CwiseNullaryOpINS0_18scalar_constant_opINS4_6ScalarEEES4_EERKNS0_9assign_opIS8_S8_EE, symObjAddr: 0x60788, symBinAddr: 0x100063B40, symSize: 0x6C }
  - { offset: 0x4B2AA, size: 0x8, addend: 0x0, symName: __ZN5Eigen8internal17resize_if_allowedINS_6MatrixIdLi3ELi1ELi0ELi3ELi1EEENS_14CwiseNullaryOpINS0_18scalar_constant_opIdEES3_EEddEEvRT_RKT0_RKNS0_9assign_opIT1_T2_EE, symObjAddr: 0x607F4, symBinAddr: 0x100063BAC, symSize: 0xF8 }
  - { offset: 0x4B330, size: 0x8, addend: 0x0, symName: __ZN5Eigen8internal15call_assignmentINS_6MatrixIdLi3ELi1ELi0ELi3ELi1EEENS_14CwiseNullaryOpINS0_18scalar_constant_opIdEES3_EEEEvRT_RKT0_, symObjAddr: 0x60C58, symBinAddr: 0x100064010, symSize: 0x50 }
  - { offset: 0x4B37B, size: 0x8, addend: 0x0, symName: __ZN5Eigen8internal15call_assignmentINS_6MatrixIdLi3ELi1ELi0ELi3ELi1EEENS_14CwiseNullaryOpINS0_18scalar_constant_opIdEES3_EENS0_9assign_opIddEEEEvRT_RKT0_RKT1_NS0_9enable_ifIXntsr25evaluator_assume_aliasingISC_EE5valueEPvE4typeE, symObjAddr: 0x60CA8, symBinAddr: 0x100064060, symSize: 0x38 }
  - { offset: 0x4B3E9, size: 0x8, addend: 0x0, symName: __ZN5Eigen8internal15call_assignmentINS_6MatrixIdLi3ELi1ELi0ELi3ELi1EEES3_EEvRT_RKT0_, symObjAddr: 0x61C40, symBinAddr: 0x100064FF8, symSize: 0x50 }
  - { offset: 0x4B434, size: 0x8, addend: 0x0, symName: __ZN5Eigen8internal15call_assignmentINS_6MatrixIdLi3ELi1ELi0ELi3ELi1EEES3_NS0_9assign_opIddEEEEvRT_RKT0_RKT1_NS0_9enable_ifIXntsr25evaluator_assume_aliasingIS8_EE5valueEPvE4typeE, symObjAddr: 0x61C90, symBinAddr: 0x100065048, symSize: 0x38 }
  - { offset: 0x4B4A2, size: 0x8, addend: 0x0, symName: __ZN5Eigen8internal24call_assignment_no_aliasINS_6MatrixIdLi3ELi1ELi0ELi3ELi1EEES3_NS0_9assign_opIddEEEEvRT_RKT0_RKT1_, symObjAddr: 0x61CC8, symBinAddr: 0x100065080, symSize: 0x3C }
  - { offset: 0x4B570, size: 0x8, addend: 0x0, symName: __ZN5Eigen8internal18check_for_aliasingINS_6MatrixIdLi3ELi1ELi0ELi3ELi1EEES3_EEvRKT_RKT0_, symObjAddr: 0x61D44, symBinAddr: 0x1000650FC, symSize: 0x14 }
  - { offset: 0x4B5BB, size: 0x8, addend: 0x0, symName: __ZN5Eigen8internal26call_dense_assignment_loopINS_6MatrixIdLi3ELi1ELi0ELi3ELi1EEES3_NS0_9assign_opIddEEEEvRT_RKT0_RKT1_, symObjAddr: 0x61D58, symBinAddr: 0x100065110, symSize: 0xE0 }
  - { offset: 0x4B66F, size: 0x8, addend: 0x0, symName: __ZN5Eigen8internal17resize_if_allowedINS_6MatrixIdLi3ELi1ELi0ELi3ELi1EEES3_ddEEvRT_RKT0_RKNS0_9assign_opIT1_T2_EE, symObjAddr: 0x61E6C, symBinAddr: 0x100065224, symSize: 0xF8 }
  - { offset: 0x4B7A1, size: 0x8, addend: 0x0, symName: __ZN5Eigen8internal15call_assignmentINS_6MatrixIdLi3ELi1ELi0ELi3ELi1EEENS_5BlockINS2_IdLin1ELin1ELi0ELin1ELin1EEELi3ELi1ELb0EEEEEvRT_RKT0_, symObjAddr: 0x6299C, symBinAddr: 0x100065D54, symSize: 0x50 }
  - { offset: 0x4B7EC, size: 0x8, addend: 0x0, symName: __ZN5Eigen8internal15call_assignmentINS_6MatrixIdLi3ELi1ELi0ELi3ELi1EEENS_5BlockINS2_IdLin1ELin1ELi0ELin1ELin1EEELi3ELi1ELb0EEENS0_9assign_opIddEEEEvRT_RKT0_RKT1_NS0_9enable_ifIXntsr25evaluator_assume_aliasingISB_EE5valueEPvE4typeE, symObjAddr: 0x62A00, symBinAddr: 0x100065DB8, symSize: 0x38 }
  - { offset: 0x4B85A, size: 0x8, addend: 0x0, symName: __ZN5Eigen8internal24call_assignment_no_aliasINS_6MatrixIdLi3ELi1ELi0ELi3ELi1EEENS_5BlockINS2_IdLin1ELin1ELi0ELin1ELin1EEELi3ELi1ELb0EEENS0_9assign_opIddEEEEvRT_RKT0_RKT1_, symObjAddr: 0x62A38, symBinAddr: 0x100065DF0, symSize: 0x3C }
  - { offset: 0x4B928, size: 0x8, addend: 0x0, symName: __ZN5Eigen8internal18check_for_aliasingINS_6MatrixIdLi3ELi1ELi0ELi3ELi1EEENS_5BlockINS2_IdLin1ELin1ELi0ELin1ELin1EEELi3ELi1ELb0EEEEEvRKT_RKT0_, symObjAddr: 0x62AB4, symBinAddr: 0x100065E6C, symSize: 0x14 }
  - { offset: 0x4B973, size: 0x8, addend: 0x0, symName: __ZN5Eigen8internal26call_dense_assignment_loopINS_6MatrixIdLi3ELi1ELi0ELi3ELi1EEENS_5BlockINS2_IdLin1ELin1ELi0ELin1ELin1EEELi3ELi1ELb0EEENS0_9assign_opIddEEEEvRT_RKT0_RKT1_, symObjAddr: 0x62AC8, symBinAddr: 0x100065E80, symSize: 0xD8 }
  - { offset: 0x4BA27, size: 0x8, addend: 0x0, symName: __ZN5Eigen8internal17resize_if_allowedINS_6MatrixIdLi3ELi1ELi0ELi3ELi1EEENS_5BlockINS2_IdLin1ELin1ELi0ELin1ELin1EEELi3ELi1ELb0EEEddEEvRT_RKT0_RKNS0_9assign_opIT1_T2_EE, symObjAddr: 0x62BD4, symBinAddr: 0x100065F8C, symSize: 0xF8 }
  - { offset: 0x4BB59, size: 0x8, addend: 0x0, symName: __ZN5Eigen8internal28check_static_allocation_sizeIdLi2EEEvv, symObjAddr: 0x63614, symBinAddr: 0x1000669CC, symSize: 0x4 }
  - { offset: 0x4BBEC, size: 0x8, addend: 0x0, symName: __ZN5Eigen8internal15call_assignmentINS_6MatrixIdLi2ELi1ELi0ELi2ELi1EEENS_14CwiseNullaryOpINS0_18scalar_constant_opIdEES3_EEEEvRT_RKT0_, symObjAddr: 0x64EA8, symBinAddr: 0x100068260, symSize: 0x50 }
  - { offset: 0x4BC37, size: 0x8, addend: 0x0, symName: __ZN5Eigen8internal15call_assignmentINS_6MatrixIdLi2ELi1ELi0ELi2ELi1EEENS_14CwiseNullaryOpINS0_18scalar_constant_opIdEES3_EENS0_9assign_opIddEEEEvRT_RKT0_RKT1_NS0_9enable_ifIXntsr25evaluator_assume_aliasingISC_EE5valueEPvE4typeE, symObjAddr: 0x64F0C, symBinAddr: 0x1000682C4, symSize: 0x38 }
  - { offset: 0x4BCA5, size: 0x8, addend: 0x0, symName: __ZN5Eigen8internal24call_assignment_no_aliasINS_6MatrixIdLi2ELi1ELi0ELi2ELi1EEENS_14CwiseNullaryOpINS0_18scalar_constant_opIdEES3_EENS0_9assign_opIddEEEEvRT_RKT0_RKT1_, symObjAddr: 0x64F44, symBinAddr: 0x1000682FC, symSize: 0x3C }
  - { offset: 0x4BD73, size: 0x8, addend: 0x0, symName: __ZN5Eigen8internal18check_for_aliasingINS_6MatrixIdLi2ELi1ELi0ELi2ELi1EEENS_14CwiseNullaryOpINS0_18scalar_constant_opIdEES3_EEEEvRKT_RKT0_, symObjAddr: 0x64FC0, symBinAddr: 0x100068378, symSize: 0x14 }
  - { offset: 0x4BDBE, size: 0x8, addend: 0x0, symName: __ZN5Eigen8internal26call_dense_assignment_loopINS_6MatrixIdLi2ELi1ELi0ELi2ELi1EEEEEvRT_RKNS_14CwiseNullaryOpINS0_18scalar_constant_opINS4_6ScalarEEES4_EERKNS0_9assign_opIS8_S8_EE, symObjAddr: 0x64FD4, symBinAddr: 0x10006838C, symSize: 0x6C }
  - { offset: 0x4BE0F, size: 0x8, addend: 0x0, symName: __ZN5Eigen8internal17resize_if_allowedINS_6MatrixIdLi2ELi1ELi0ELi2ELi1EEENS_14CwiseNullaryOpINS0_18scalar_constant_opIdEES3_EEddEEvRT_RKT0_RKNS0_9assign_opIT1_T2_EE, symObjAddr: 0x65040, symBinAddr: 0x1000683F8, symSize: 0xF8 }
  - { offset: 0x4BE95, size: 0x8, addend: 0x0, symName: __ZN5Eigen8internal15call_assignmentINS_6MatrixIdLi2ELi1ELi0ELi2ELi1EEENS_13CwiseBinaryOpINS0_18scalar_quotient_opIddEEKNS_5BlockIKNS2_IdLi3ELi1ELi0ELi3ELi1EEELi2ELi1ELb0EEEKNS_14CwiseNullaryOpINS0_18scalar_constant_opIdEEKS3_EEEEEEvRT_RKT0_, symObjAddr: 0x6576C, symBinAddr: 0x100068B24, symSize: 0x50 }
  - { offset: 0x4BEE0, size: 0x8, addend: 0x0, symName: __ZN5Eigen8internal15call_assignmentINS_6MatrixIdLi2ELi1ELi0ELi2ELi1EEENS_13CwiseBinaryOpINS0_18scalar_quotient_opIddEEKNS_5BlockIKNS2_IdLi3ELi1ELi0ELi3ELi1EEELi2ELi1ELb0EEEKNS_14CwiseNullaryOpINS0_18scalar_constant_opIdEEKS3_EEEENS0_9assign_opIddEEEEvRT_RKT0_RKT1_NS0_9enable_ifIXntsr25evaluator_assume_aliasingISN_EE5valueEPvE4typeE, symObjAddr: 0x657D0, symBinAddr: 0x100068B88, symSize: 0x38 }
  - { offset: 0x4BF4E, size: 0x8, addend: 0x0, symName: __ZN5Eigen8internal24call_assignment_no_aliasINS_6MatrixIdLi2ELi1ELi0ELi2ELi1EEENS_13CwiseBinaryOpINS0_18scalar_quotient_opIddEEKNS_5BlockIKNS2_IdLi3ELi1ELi0ELi3ELi1EEELi2ELi1ELb0EEEKNS_14CwiseNullaryOpINS0_18scalar_constant_opIdEEKS3_EEEENS0_9assign_opIddEEEEvRT_RKT0_RKT1_, symObjAddr: 0x65808, symBinAddr: 0x100068BC0, symSize: 0x3C }
  - { offset: 0x4C01C, size: 0x8, addend: 0x0, symName: __ZN5Eigen8internal18check_for_aliasingINS_6MatrixIdLi2ELi1ELi0ELi2ELi1EEENS_13CwiseBinaryOpINS0_18scalar_quotient_opIddEEKNS_5BlockIKNS2_IdLi3ELi1ELi0ELi3ELi1EEELi2ELi1ELb0EEEKNS_14CwiseNullaryOpINS0_18scalar_constant_opIdEEKS3_EEEEEEvRKT_RKT0_, symObjAddr: 0x65884, symBinAddr: 0x100068C3C, symSize: 0x14 }
  - { offset: 0x4C067, size: 0x8, addend: 0x0, symName: __ZN5Eigen8internal26call_dense_assignment_loopINS_6MatrixIdLi2ELi1ELi0ELi2ELi1EEENS_13CwiseBinaryOpINS0_18scalar_quotient_opIddEEKNS_5BlockIKNS2_IdLi3ELi1ELi0ELi3ELi1EEELi2ELi1ELb0EEEKNS_14CwiseNullaryOpINS0_18scalar_constant_opIdEEKS3_EEEENS0_9assign_opIddEEEEvRT_RKT0_RKT1_, symObjAddr: 0x65898, symBinAddr: 0x100068C50, symSize: 0xE0 }
  - { offset: 0x4C11B, size: 0x8, addend: 0x0, symName: __ZN5Eigen8internal17resize_if_allowedINS_6MatrixIdLi2ELi1ELi0ELi2ELi1EEENS_13CwiseBinaryOpINS0_18scalar_quotient_opIddEEKNS_5BlockIKNS2_IdLi3ELi1ELi0ELi3ELi1EEELi2ELi1ELb0EEEKNS_14CwiseNullaryOpINS0_18scalar_constant_opIdEEKS3_EEEEddEEvRT_RKT0_RKNS0_9assign_opIT1_T2_EE, symObjAddr: 0x659AC, symBinAddr: 0x100068D64, symSize: 0xF8 }
  - { offset: 0x4C215, size: 0x8, addend: 0x0, symName: __ZN5Eigen8internal17get_runtime_valueIiEElRKT_, symObjAddr: 0x66450, symBinAddr: 0x100069808, symSize: 0x18 }
  - { offset: 0x4C24A, size: 0x8, addend: 0x0, symName: __ZN5Eigen8internal24call_assignment_no_aliasINS_3MapINS_6MatrixIdLi1ELin1ELi1ELi1ELin1EEELi0ENS_6StrideILi0ELi0EEEEENS_7ProductINS_9TransposeIKNS3_IdLi2ELi1ELi0ELi2ELi1EEEEENS_5BlockINSD_INS3_IdLin1ELin1ELi0ELin1ELin1EEELin1ELin1ELb0EEELi2ELin1ELb0EEELi0EEENS0_9assign_opIddEEEEvRT_RKT0_RKT1_, symObjAddr: 0x66EF4, symBinAddr: 0x10006A2AC, symSize: 0x3C }
  - { offset: 0x4C37F, size: 0x8, addend: 0x0, symName: __ZN5Eigen8internal24call_assignment_no_aliasINS_3MapINS_6MatrixIdLi1ELin1ELi1ELi1ELin1EEELi0ENS_6StrideILi0ELi0EEEEENS_7ProductINS_9TransposeIKNS3_IdLi2ELi1ELi0ELi2ELi1EEEEENS_5BlockINSD_INS3_IdLin1ELin1ELi0ELin1ELin1EEELin1ELin1ELb0EEELi2ELin1ELb0EEELi1EEENS0_9assign_opIddEEEEvRT_RKT0_RKT1_, symObjAddr: 0x67120, symBinAddr: 0x10006A4D8, symSize: 0x3C }
  - { offset: 0x4C659, size: 0x8, addend: 0x0, symName: __ZN5Eigen8internal18check_for_aliasingINS_3MapINS_6MatrixIdLi1ELin1ELi1ELi1ELin1EEELi0ENS_6StrideILi0ELi0EEEEENS_7ProductINS_9TransposeIKNS3_IdLi2ELi1ELi0ELi2ELi1EEEEENS_5BlockINSD_INS3_IdLin1ELin1ELi0ELin1ELin1EEELin1ELin1ELb0EEELi2ELin1ELb0EEELi1EEEEEvRKT_RKT0_, symObjAddr: 0x671E4, symBinAddr: 0x10006A59C, symSize: 0x14 }
  - { offset: 0x4C6A4, size: 0x8, addend: 0x0, symName: __ZN5Eigen8internal26call_dense_assignment_loopINS_3MapINS_6MatrixIdLi1ELin1ELi1ELi1ELin1EEELi0ENS_6StrideILi0ELi0EEEEENS_7ProductINS_9TransposeIKNS3_IdLi2ELi1ELi0ELi2ELi1EEEEENS_5BlockINSD_INS3_IdLin1ELin1ELi0ELin1ELin1EEELin1ELin1ELb0EEELi2ELin1ELb0EEELi1EEENS0_9assign_opIddEEEEvRT_RKT0_RKT1_, symObjAddr: 0x671F8, symBinAddr: 0x10006A5B0, symSize: 0xE0 }
  - { offset: 0x4C9E6, size: 0x8, addend: 0x0, symName: __ZN5Eigen8internal17resize_if_allowedINS_3MapINS_6MatrixIdLi1ELin1ELi1ELi1ELin1EEELi0ENS_6StrideILi0ELi0EEEEENS_7ProductINS_9TransposeIKNS3_IdLi2ELi1ELi0ELi2ELi1EEEEENS_5BlockINSD_INS3_IdLin1ELin1ELi0ELin1ELin1EEELin1ELin1ELb0EEELi2ELin1ELb0EEELi1EEEddEEvRT_RKT0_RKNS0_9assign_opIT1_T2_EE, symObjAddr: 0x6730C, symBinAddr: 0x10006A6C4, symSize: 0xF8 }
  - { offset: 0x4CD24, size: 0x8, addend: 0x0, symName: __ZN5Eigen8internal24call_assignment_no_aliasINS_5BlockINS2_INS_6MatrixIdLin1ELin1ELi0ELin1ELin1EEELin1ELin1ELb0EEELi2ELin1ELb0EEENS_7ProductINS_13CwiseBinaryOpINS0_17scalar_product_opIddEEKNS_14CwiseNullaryOpINS0_18scalar_constant_opIdEEKNS3_IdLi2ELi1ELi0ELi2ELi1EEEEESF_EENS_3MapINS3_IdLi1ELin1ELi1ELi1ELin1EEELi0ENS_6StrideILi0ELi0EEEEELi0EEENS0_13sub_assign_opIddEEEEvRT_RKT0_RKT1_, symObjAddr: 0x6A36C, symBinAddr: 0x10006D724, symSize: 0x3C }
  - { offset: 0x4CE59, size: 0x8, addend: 0x0, symName: __ZN5Eigen8internal24call_assignment_no_aliasINS_5BlockINS2_INS_6MatrixIdLin1ELin1ELi0ELin1ELin1EEELin1ELin1ELb0EEELi2ELin1ELb0EEENS_7ProductINS_13CwiseBinaryOpINS0_17scalar_product_opIddEEKNS_14CwiseNullaryOpINS0_18scalar_constant_opIdEEKNS3_IdLi2ELi1ELi0ELi2ELi1EEEEESF_EENS_3MapINS3_IdLi1ELin1ELi1ELi1ELin1EEELi0ENS_6StrideILi0ELi0EEEEELi1EEENS0_13sub_assign_opIddEEEEvRT_RKT0_RKT1_, symObjAddr: 0x6A5CC, symBinAddr: 0x10006D984, symSize: 0x3C }
  - { offset: 0x4D12B, size: 0x8, addend: 0x0, symName: __ZN5Eigen8internal18check_for_aliasingINS_5BlockINS2_INS_6MatrixIdLin1ELin1ELi0ELin1ELin1EEELin1ELin1ELb0EEELi2ELin1ELb0EEENS_7ProductINS_13CwiseBinaryOpINS0_17scalar_product_opIddEEKNS_14CwiseNullaryOpINS0_18scalar_constant_opIdEEKNS3_IdLi2ELi1ELi0ELi2ELi1EEEEESF_EENS_3MapINS3_IdLi1ELin1ELi1ELi1ELin1EEELi0ENS_6StrideILi0ELi0EEEEELi1EEEEEvRKT_RKT0_, symObjAddr: 0x6A694, symBinAddr: 0x10006DA4C, symSize: 0x60 }
  - { offset: 0x4D176, size: 0x8, addend: 0x0, symName: __ZN5Eigen8internal26call_dense_assignment_loopINS_5BlockINS2_INS_6MatrixIdLin1ELin1ELi0ELin1ELin1EEELin1ELin1ELb0EEELi2ELin1ELb0EEENS_7ProductINS_13CwiseBinaryOpINS0_17scalar_product_opIddEEKNS_14CwiseNullaryOpINS0_18scalar_constant_opIdEEKNS3_IdLi2ELi1ELi0ELi2ELi1EEEEESF_EENS_3MapINS3_IdLi1ELin1ELi1ELi1ELin1EEELi0ENS_6StrideILi0ELi0EEEEELi1EEENS0_13sub_assign_opIddEEEEvRT_RKT0_RKT1_, symObjAddr: 0x6A6F4, symBinAddr: 0x10006DAAC, symSize: 0x12C }
  - { offset: 0x4D471, size: 0x8, addend: 0x0, symName: __ZN5Eigen8internal17resize_if_allowedINS_5BlockINS2_INS_6MatrixIdLin1ELin1ELi0ELin1ELin1EEELin1ELin1ELb0EEELi2ELin1ELb0EEENS_7ProductINS_13CwiseBinaryOpINS0_17scalar_product_opIddEEKNS_14CwiseNullaryOpINS0_18scalar_constant_opIdEEKNS3_IdLi2ELi1ELi0ELi2ELi1EEEEESF_EENS_3MapINS3_IdLi1ELin1ELi1ELi1ELin1EEELi0ENS_6StrideILi0ELi0EEEEELi1EEENS0_13sub_assign_opIddEEEEvRT_RKT0_RKT1_, symObjAddr: 0x6A868, symBinAddr: 0x10006DC20, symSize: 0xB4 }
  - { offset: 0x4D796, size: 0x8, addend: 0x0, symName: __ZN5Eigen8internal24call_assignment_no_aliasINS_6MatrixIdLi2ELi1ELi0ELi2ELi1EEENS_13CwiseBinaryOpINS0_17scalar_product_opIddEEKNS_14CwiseNullaryOpINS0_18scalar_constant_opIdEEKS3_EESA_EENS0_9assign_opIddEEEEvRT_RKT0_RKT1_, symObjAddr: 0x6ACC8, symBinAddr: 0x10006E080, symSize: 0x3C }
  - { offset: 0x4D864, size: 0x8, addend: 0x0, symName: __ZN5Eigen8internal18check_for_aliasingINS_6MatrixIdLi2ELi1ELi0ELi2ELi1EEENS_13CwiseBinaryOpINS0_17scalar_product_opIddEEKNS_14CwiseNullaryOpINS0_18scalar_constant_opIdEEKS3_EESA_EEEEvRKT_RKT0_, symObjAddr: 0x6AD44, symBinAddr: 0x10006E0FC, symSize: 0x14 }
  - { offset: 0x4D8AF, size: 0x8, addend: 0x0, symName: __ZN5Eigen8internal26call_dense_assignment_loopINS_6MatrixIdLi2ELi1ELi0ELi2ELi1EEENS_13CwiseBinaryOpINS0_17scalar_product_opIddEEKNS_14CwiseNullaryOpINS0_18scalar_constant_opIdEEKS3_EESA_EENS0_9assign_opIddEEEEvRT_RKT0_RKT1_, symObjAddr: 0x6AD58, symBinAddr: 0x10006E110, symSize: 0xD8 }
  - { offset: 0x4D963, size: 0x8, addend: 0x0, symName: __ZN5Eigen8internal17resize_if_allowedINS_6MatrixIdLi2ELi1ELi0ELi2ELi1EEENS_13CwiseBinaryOpINS0_17scalar_product_opIddEEKNS_14CwiseNullaryOpINS0_18scalar_constant_opIdEEKS3_EESA_EEddEEvRT_RKT0_RKNS0_9assign_opIT1_T2_EE, symObjAddr: 0x6AE64, symBinAddr: 0x10006E21C, symSize: 0xF8 }
  - { offset: 0x4DBAF, size: 0x8, addend: 0x0, symName: __ZN5Eigen8internal24call_assignment_no_aliasINS_3MapINS_6MatrixIdLin1ELi1ELi0ELin1ELi1EEELi0ENS_6StrideILi0ELi0EEEEENS_7ProductINS_5BlockINS9_INS3_IdLin1ELin1ELi0ELin1ELin1EEELin1ELin1ELb0EEELin1ELi2ELb0EEENS3_IdLi2ELi1ELi0ELi2ELi1EEELi0EEENS0_9assign_opIddEEEEvRT_RKT0_RKT1_, symObjAddr: 0x6C474, symBinAddr: 0x10006F82C, symSize: 0x3C }
  - { offset: 0x4DCE4, size: 0x8, addend: 0x0, symName: __ZN5Eigen8internal24call_assignment_no_aliasINS_3MapINS_6MatrixIdLin1ELi1ELi0ELin1ELi1EEELi0ENS_6StrideILi0ELi0EEEEENS_7ProductINS_5BlockINS9_INS3_IdLin1ELin1ELi0ELin1ELin1EEELin1ELin1ELb0EEELin1ELi2ELb0EEENS3_IdLi2ELi1ELi0ELi2ELi1EEELi1EEENS0_9assign_opIddEEEEvRT_RKT0_RKT1_, symObjAddr: 0x6C678, symBinAddr: 0x10006FA30, symSize: 0x3C }
  - { offset: 0x4DDB2, size: 0x8, addend: 0x0, symName: __ZN5Eigen8internal18check_for_aliasingINS_3MapINS_6MatrixIdLin1ELi1ELi0ELin1ELi1EEELi0ENS_6StrideILi0ELi0EEEEENS_7ProductINS_5BlockINS9_INS3_IdLin1ELin1ELi0ELin1ELin1EEELin1ELin1ELb0EEELin1ELi2ELb0EEENS3_IdLi2ELi1ELi0ELi2ELi1EEELi1EEEEEvRKT_RKT0_, symObjAddr: 0x6C73C, symBinAddr: 0x10006FAF4, symSize: 0x14 }
  - { offset: 0x4DDFD, size: 0x8, addend: 0x0, symName: __ZN5Eigen8internal26call_dense_assignment_loopINS_3MapINS_6MatrixIdLin1ELi1ELi0ELin1ELi1EEELi0ENS_6StrideILi0ELi0EEEEENS_7ProductINS_5BlockINS9_INS3_IdLin1ELin1ELi0ELin1ELin1EEELin1ELin1ELb0EEELin1ELi2ELb0EEENS3_IdLi2ELi1ELi0ELi2ELi1EEELi1EEENS0_9assign_opIddEEEEvRT_RKT0_RKT1_, symObjAddr: 0x6C750, symBinAddr: 0x10006FB08, symSize: 0xE0 }
  - { offset: 0x4DEB2, size: 0x8, addend: 0x0, symName: __ZN5Eigen8internal17resize_if_allowedINS_3MapINS_6MatrixIdLin1ELi1ELi0ELin1ELi1EEELi0ENS_6StrideILi0ELi0EEEEENS_7ProductINS_5BlockINS9_INS3_IdLin1ELin1ELi0ELin1ELin1EEELin1ELin1ELb0EEELin1ELi2ELb0EEENS3_IdLi2ELi1ELi0ELi2ELi1EEELi1EEEddEEvRT_RKT0_RKNS0_9assign_opIT1_T2_EE, symObjAddr: 0x6C864, symBinAddr: 0x10006FC1C, symSize: 0xF8 }
  - { offset: 0x4E0D4, size: 0x8, addend: 0x0, symName: __ZN5Eigen8internal24call_assignment_no_aliasINS_5BlockINS2_INS_6MatrixIdLin1ELin1ELi0ELin1ELin1EEELin1ELin1ELb0EEELin1ELi2ELb0EEENS_7ProductINS_13CwiseBinaryOpINS0_17scalar_product_opIddEEKNS_14CwiseNullaryOpINS0_18scalar_constant_opIdEEKNS3_IdLin1ELi1ELi0ELin1ELi1EEEEEKNS_3MapISE_Li0ENS_6StrideILi0ELi0EEEEEEENS_9TransposeIKNS3_IdLi2ELi1ELi0ELi2ELi1EEEEELi0EEENS0_13sub_assign_opIddEEEEvRT_RKT0_RKT1_, symObjAddr: 0x6F6C0, symBinAddr: 0x100072A78, symSize: 0x3C }
  - { offset: 0x4E209, size: 0x8, addend: 0x0, symName: __ZN5Eigen8internal24call_assignment_no_aliasINS_5BlockINS2_INS_6MatrixIdLin1ELin1ELi0ELin1ELin1EEELin1ELin1ELb0EEELin1ELi2ELb0EEENS_7ProductINS_13CwiseBinaryOpINS0_17scalar_product_opIddEEKNS_14CwiseNullaryOpINS0_18scalar_constant_opIdEEKNS3_IdLin1ELi1ELi0ELin1ELi1EEEEEKNS_3MapISE_Li0ENS_6StrideILi0ELi0EEEEEEENS_9TransposeIKNS3_IdLi2ELi1ELi0ELi2ELi1EEEEELi1EEENS0_13sub_assign_opIddEEEEvRT_RKT0_RKT1_, symObjAddr: 0x6F8F8, symBinAddr: 0x100072CB0, symSize: 0x3C }
  - { offset: 0x4E2D7, size: 0x8, addend: 0x0, symName: __ZN5Eigen8internal18check_for_aliasingINS_5BlockINS2_INS_6MatrixIdLin1ELin1ELi0ELin1ELin1EEELin1ELin1ELb0EEELin1ELi2ELb0EEENS_7ProductINS_13CwiseBinaryOpINS0_17scalar_product_opIddEEKNS_14CwiseNullaryOpINS0_18scalar_constant_opIdEEKNS3_IdLin1ELi1ELi0ELin1ELi1EEEEEKNS_3MapISE_Li0ENS_6StrideILi0ELi0EEEEEEENS_9TransposeIKNS3_IdLi2ELi1ELi0ELi2ELi1EEEEELi1EEEEEvRKT_RKT0_, symObjAddr: 0x6F9C0, symBinAddr: 0x100072D78, symSize: 0x60 }
  - { offset: 0x4E322, size: 0x8, addend: 0x0, symName: __ZN5Eigen8internal26call_dense_assignment_loopINS_5BlockINS2_INS_6MatrixIdLin1ELin1ELi0ELin1ELin1EEELin1ELin1ELb0EEELin1ELi2ELb0EEENS_7ProductINS_13CwiseBinaryOpINS0_17scalar_product_opIddEEKNS_14CwiseNullaryOpINS0_18scalar_constant_opIdEEKNS3_IdLin1ELi1ELi0ELin1ELi1EEEEEKNS_3MapISE_Li0ENS_6StrideILi0ELi0EEEEEEENS_9TransposeIKNS3_IdLi2ELi1ELi0ELi2ELi1EEEEELi1EEENS0_13sub_assign_opIddEEEEvRT_RKT0_RKT1_, symObjAddr: 0x6FA20, symBinAddr: 0x100072DD8, symSize: 0x134 }
  - { offset: 0x4E419, size: 0x8, addend: 0x0, symName: __ZN5Eigen8internal17resize_if_allowedINS_5BlockINS2_INS_6MatrixIdLin1ELin1ELi0ELin1ELin1EEELin1ELin1ELb0EEELin1ELi2ELb0EEENS_7ProductINS_13CwiseBinaryOpINS0_17scalar_product_opIddEEKNS_14CwiseNullaryOpINS0_18scalar_constant_opIdEEKNS3_IdLin1ELi1ELi0ELin1ELi1EEEEEKNS_3MapISE_Li0ENS_6StrideILi0ELi0EEEEEEENS_9TransposeIKNS3_IdLi2ELi1ELi0ELi2ELi1EEEEELi1EEENS0_13sub_assign_opIddEEEEvRT_RKT0_RKT1_, symObjAddr: 0x6FB9C, symBinAddr: 0x100072F54, symSize: 0xB4 }
  - { offset: 0x4E587, size: 0x8, addend: 0x0, symName: __ZN5Eigen8internal24call_assignment_no_aliasINS_6MatrixIdLi2ELi1ELi0ELi2ELi1EEENS_5BlockINS2_IdLin1ELin1ELi0ELin1ELin1EEELi2ELi1ELb0EEENS0_9assign_opIddEEEEvRT_RKT0_RKT1_, symObjAddr: 0x72F50, symBinAddr: 0x100076308, symSize: 0x3C }
  - { offset: 0x4E655, size: 0x8, addend: 0x0, symName: __ZN5Eigen8internal18check_for_aliasingINS_6MatrixIdLi2ELi1ELi0ELi2ELi1EEENS_5BlockINS2_IdLin1ELin1ELi0ELin1ELin1EEELi2ELi1ELb0EEEEEvRKT_RKT0_, symObjAddr: 0x72FCC, symBinAddr: 0x100076384, symSize: 0x14 }
  - { offset: 0x4E6A0, size: 0x8, addend: 0x0, symName: __ZN5Eigen8internal26call_dense_assignment_loopINS_6MatrixIdLi2ELi1ELi0ELi2ELi1EEENS_5BlockINS2_IdLin1ELin1ELi0ELin1ELin1EEELi2ELi1ELb0EEENS0_9assign_opIddEEEEvRT_RKT0_RKT1_, symObjAddr: 0x72FE0, symBinAddr: 0x100076398, symSize: 0xD8 }
  - { offset: 0x4E754, size: 0x8, addend: 0x0, symName: __ZN5Eigen8internal17resize_if_allowedINS_6MatrixIdLi2ELi1ELi0ELi2ELi1EEENS_5BlockINS2_IdLin1ELin1ELi0ELin1ELin1EEELi2ELi1ELb0EEEddEEvRT_RKT0_RKNS0_9assign_opIT1_T2_EE, symObjAddr: 0x730EC, symBinAddr: 0x1000764A4, symSize: 0xF8 }
  - { offset: 0x4E84E, size: 0x8, addend: 0x0, symName: __ZN5Eigen8internal28check_static_allocation_sizeIdLi1EEEvv, symObjAddr: 0x73908, symBinAddr: 0x100076CC0, symSize: 0x4 }
  - { offset: 0x4E8E1, size: 0x8, addend: 0x0, symName: __ZN5Eigen8internal15call_assignmentINS_6MatrixIdLi1ELi1ELi0ELi1ELi1EEENS_14CwiseNullaryOpINS0_18scalar_constant_opIdEES3_EEEEvRT_RKT0_, symObjAddr: 0x7504C, symBinAddr: 0x100078404, symSize: 0x50 }
  - { offset: 0x4E92C, size: 0x8, addend: 0x0, symName: __ZN5Eigen8internal15call_assignmentINS_6MatrixIdLi1ELi1ELi0ELi1ELi1EEENS_14CwiseNullaryOpINS0_18scalar_constant_opIdEES3_EENS0_9assign_opIddEEEEvRT_RKT0_RKT1_NS0_9enable_ifIXntsr25evaluator_assume_aliasingISC_EE5valueEPvE4typeE, symObjAddr: 0x750B0, symBinAddr: 0x100078468, symSize: 0x38 }
  - { offset: 0x4E99A, size: 0x8, addend: 0x0, symName: __ZN5Eigen8internal24call_assignment_no_aliasINS_6MatrixIdLi1ELi1ELi0ELi1ELi1EEENS_14CwiseNullaryOpINS0_18scalar_constant_opIdEES3_EENS0_9assign_opIddEEEEvRT_RKT0_RKT1_, symObjAddr: 0x750E8, symBinAddr: 0x1000784A0, symSize: 0x3C }
  - { offset: 0x4EA68, size: 0x8, addend: 0x0, symName: __ZN5Eigen8internal18check_for_aliasingINS_6MatrixIdLi1ELi1ELi0ELi1ELi1EEENS_14CwiseNullaryOpINS0_18scalar_constant_opIdEES3_EEEEvRKT_RKT0_, symObjAddr: 0x75164, symBinAddr: 0x10007851C, symSize: 0x14 }
  - { offset: 0x4EAB3, size: 0x8, addend: 0x0, symName: __ZN5Eigen8internal26call_dense_assignment_loopINS_6MatrixIdLi1ELi1ELi0ELi1ELi1EEEEEvRT_RKNS_14CwiseNullaryOpINS0_18scalar_constant_opINS4_6ScalarEEES4_EERKNS0_9assign_opIS8_S8_EE, symObjAddr: 0x75178, symBinAddr: 0x100078530, symSize: 0x6C }
  - { offset: 0x4EB04, size: 0x8, addend: 0x0, symName: __ZN5Eigen8internal17resize_if_allowedINS_6MatrixIdLi1ELi1ELi0ELi1ELi1EEENS_14CwiseNullaryOpINS0_18scalar_constant_opIdEES3_EEddEEvRT_RKT0_RKNS0_9assign_opIT1_T2_EE, symObjAddr: 0x751E4, symBinAddr: 0x10007859C, symSize: 0xF8 }
  - { offset: 0x4EB8A, size: 0x8, addend: 0x0, symName: __ZN5Eigen8internal15call_assignmentINS_6MatrixIdLi1ELi1ELi0ELi1ELi1EEENS_13CwiseBinaryOpINS0_18scalar_quotient_opIddEEKNS_5BlockIKNS2_IdLi2ELi1ELi0ELi2ELi1EEELi1ELi1ELb0EEEKNS_14CwiseNullaryOpINS0_18scalar_constant_opIdEEKS3_EEEEEEvRT_RKT0_, symObjAddr: 0x75910, symBinAddr: 0x100078CC8, symSize: 0x50 }
  - { offset: 0x4EBD5, size: 0x8, addend: 0x0, symName: __ZN5Eigen8internal15call_assignmentINS_6MatrixIdLi1ELi1ELi0ELi1ELi1EEENS_13CwiseBinaryOpINS0_18scalar_quotient_opIddEEKNS_5BlockIKNS2_IdLi2ELi1ELi0ELi2ELi1EEELi1ELi1ELb0EEEKNS_14CwiseNullaryOpINS0_18scalar_constant_opIdEEKS3_EEEENS0_9assign_opIddEEEEvRT_RKT0_RKT1_NS0_9enable_ifIXntsr25evaluator_assume_aliasingISN_EE5valueEPvE4typeE, symObjAddr: 0x75974, symBinAddr: 0x100078D2C, symSize: 0x38 }
  - { offset: 0x4EC43, size: 0x8, addend: 0x0, symName: __ZN5Eigen8internal24call_assignment_no_aliasINS_6MatrixIdLi1ELi1ELi0ELi1ELi1EEENS_13CwiseBinaryOpINS0_18scalar_quotient_opIddEEKNS_5BlockIKNS2_IdLi2ELi1ELi0ELi2ELi1EEELi1ELi1ELb0EEEKNS_14CwiseNullaryOpINS0_18scalar_constant_opIdEEKS3_EEEENS0_9assign_opIddEEEEvRT_RKT0_RKT1_, symObjAddr: 0x759AC, symBinAddr: 0x100078D64, symSize: 0x3C }
  - { offset: 0x4ED11, size: 0x8, addend: 0x0, symName: __ZN5Eigen8internal18check_for_aliasingINS_6MatrixIdLi1ELi1ELi0ELi1ELi1EEENS_13CwiseBinaryOpINS0_18scalar_quotient_opIddEEKNS_5BlockIKNS2_IdLi2ELi1ELi0ELi2ELi1EEELi1ELi1ELb0EEEKNS_14CwiseNullaryOpINS0_18scalar_constant_opIdEEKS3_EEEEEEvRKT_RKT0_, symObjAddr: 0x75A28, symBinAddr: 0x100078DE0, symSize: 0x14 }
  - { offset: 0x4ED5C, size: 0x8, addend: 0x0, symName: __ZN5Eigen8internal26call_dense_assignment_loopINS_6MatrixIdLi1ELi1ELi0ELi1ELi1EEENS_13CwiseBinaryOpINS0_18scalar_quotient_opIddEEKNS_5BlockIKNS2_IdLi2ELi1ELi0ELi2ELi1EEELi1ELi1ELb0EEEKNS_14CwiseNullaryOpINS0_18scalar_constant_opIdEEKS3_EEEENS0_9assign_opIddEEEEvRT_RKT0_RKT1_, symObjAddr: 0x75A3C, symBinAddr: 0x100078DF4, symSize: 0xE0 }
  - { offset: 0x4EE10, size: 0x8, addend: 0x0, symName: __ZN5Eigen8internal17resize_if_allowedINS_6MatrixIdLi1ELi1ELi0ELi1ELi1EEENS_13CwiseBinaryOpINS0_18scalar_quotient_opIddEEKNS_5BlockIKNS2_IdLi2ELi1ELi0ELi2ELi1EEELi1ELi1ELb0EEEKNS_14CwiseNullaryOpINS0_18scalar_constant_opIdEEKS3_EEEEddEEvRT_RKT0_RKNS0_9assign_opIT1_T2_EE, symObjAddr: 0x75B50, symBinAddr: 0x100078F08, symSize: 0xF8 }
  - { offset: 0x4EF42, size: 0x8, addend: 0x0, symName: __ZN5Eigen8internal24call_assignment_no_aliasINS_3MapINS_6MatrixIdLi1ELin1ELi1ELi1ELin1EEELi0ENS_6StrideILi0ELi0EEEEENS_7ProductINS_9TransposeIKNS3_IdLi1ELi1ELi0ELi1ELi1EEEEENS_5BlockINSD_INS3_IdLin1ELin1ELi0ELin1ELin1EEELin1ELin1ELb0EEELi1ELin1ELb0EEELi0EEENS0_9assign_opIddEEEEvRT_RKT0_RKT1_, symObjAddr: 0x76E68, symBinAddr: 0x10007A220, symSize: 0x3C }
  - { offset: 0x4F077, size: 0x8, addend: 0x0, symName: __ZN5Eigen8internal24call_assignment_no_aliasINS_3MapINS_6MatrixIdLi1ELin1ELi1ELi1ELin1EEELi0ENS_6StrideILi0ELi0EEEEENS_7ProductINS_9TransposeIKNS3_IdLi1ELi1ELi0ELi1ELi1EEEEENS_5BlockINSD_INS3_IdLin1ELin1ELi0ELin1ELin1EEELin1ELin1ELb0EEELi1ELin1ELb0EEELi1EEENS0_9assign_opIddEEEEvRT_RKT0_RKT1_, symObjAddr: 0x7706C, symBinAddr: 0x10007A424, symSize: 0x3C }
  - { offset: 0x4F351, size: 0x8, addend: 0x0, symName: __ZN5Eigen8internal18check_for_aliasingINS_3MapINS_6MatrixIdLi1ELin1ELi1ELi1ELin1EEELi0ENS_6StrideILi0ELi0EEEEENS_7ProductINS_9TransposeIKNS3_IdLi1ELi1ELi0ELi1ELi1EEEEENS_5BlockINSD_INS3_IdLin1ELin1ELi0ELin1ELin1EEELin1ELin1ELb0EEELi1ELin1ELb0EEELi1EEEEEvRKT_RKT0_, symObjAddr: 0x77130, symBinAddr: 0x10007A4E8, symSize: 0x14 }
  - { offset: 0x4F39C, size: 0x8, addend: 0x0, symName: __ZN5Eigen8internal26call_dense_assignment_loopINS_3MapINS_6MatrixIdLi1ELin1ELi1ELi1ELin1EEELi0ENS_6StrideILi0ELi0EEEEENS_7ProductINS_9TransposeIKNS3_IdLi1ELi1ELi0ELi1ELi1EEEEENS_5BlockINSD_INS3_IdLin1ELin1ELi0ELin1ELin1EEELin1ELin1ELb0EEELi1ELin1ELb0EEELi1EEENS0_9assign_opIddEEEEvRT_RKT0_RKT1_, symObjAddr: 0x77144, symBinAddr: 0x10007A4FC, symSize: 0xE0 }
  - { offset: 0x4F622, size: 0x8, addend: 0x0, symName: __ZN5Eigen8internal17resize_if_allowedINS_3MapINS_6MatrixIdLi1ELin1ELi1ELi1ELin1EEELi0ENS_6StrideILi0ELi0EEEEENS_7ProductINS_9TransposeIKNS3_IdLi1ELi1ELi0ELi1ELi1EEEEENS_5BlockINSD_INS3_IdLin1ELin1ELi0ELin1ELin1EEELin1ELin1ELb0EEELi1ELin1ELb0EEELi1EEEddEEvRT_RKT0_RKNS0_9assign_opIT1_T2_EE, symObjAddr: 0x77258, symBinAddr: 0x10007A610, symSize: 0xF8 }
  - { offset: 0x4F963, size: 0x8, addend: 0x0, symName: __ZN5Eigen8internal24call_assignment_no_aliasINS_5BlockINS2_INS_6MatrixIdLin1ELin1ELi0ELin1ELin1EEELin1ELin1ELb0EEELi1ELin1ELb0EEENS_7ProductINS_13CwiseBinaryOpINS0_17scalar_product_opIddEEKNS_14CwiseNullaryOpINS0_18scalar_constant_opIdEEKNS3_IdLi1ELi1ELi0ELi1ELi1EEEEESF_EENS_3MapINS3_IdLi1ELin1ELi1ELi1ELin1EEELi0ENS_6StrideILi0ELi0EEEEELi0EEENS0_13sub_assign_opIddEEEEvRT_RKT0_RKT1_, symObjAddr: 0x79E9C, symBinAddr: 0x10007D254, symSize: 0x3C }
  - { offset: 0x4FA98, size: 0x8, addend: 0x0, symName: __ZN5Eigen8internal24call_assignment_no_aliasINS_5BlockINS2_INS_6MatrixIdLin1ELin1ELi0ELin1ELin1EEELin1ELin1ELb0EEELi1ELin1ELb0EEENS_7ProductINS_13CwiseBinaryOpINS0_17scalar_product_opIddEEKNS_14CwiseNullaryOpINS0_18scalar_constant_opIdEEKNS3_IdLi1ELi1ELi0ELi1ELi1EEEEESF_EENS_3MapINS3_IdLi1ELin1ELi1ELi1ELin1EEELi0ENS_6StrideILi0ELi0EEEEELi1EEENS0_13sub_assign_opIddEEEEvRT_RKT0_RKT1_, symObjAddr: 0x7A0FC, symBinAddr: 0x10007D4B4, symSize: 0x3C }
  - { offset: 0x4FD72, size: 0x8, addend: 0x0, symName: __ZN5Eigen8internal18check_for_aliasingINS_5BlockINS2_INS_6MatrixIdLin1ELin1ELi0ELin1ELin1EEELin1ELin1ELb0EEELi1ELin1ELb0EEENS_7ProductINS_13CwiseBinaryOpINS0_17scalar_product_opIddEEKNS_14CwiseNullaryOpINS0_18scalar_constant_opIdEEKNS3_IdLi1ELi1ELi0ELi1ELi1EEEEESF_EENS_3MapINS3_IdLi1ELin1ELi1ELi1ELin1EEELi0ENS_6StrideILi0ELi0EEEEELi1EEEEEvRKT_RKT0_, symObjAddr: 0x7A1C4, symBinAddr: 0x10007D57C, symSize: 0x14 }
  - { offset: 0x4FDBD, size: 0x8, addend: 0x0, symName: __ZN5Eigen8internal26call_dense_assignment_loopINS_5BlockINS2_INS_6MatrixIdLin1ELin1ELi0ELin1ELin1EEELin1ELin1ELb0EEELi1ELin1ELb0EEENS_7ProductINS_13CwiseBinaryOpINS0_17scalar_product_opIddEEKNS_14CwiseNullaryOpINS0_18scalar_constant_opIdEEKNS3_IdLi1ELi1ELi0ELi1ELi1EEEEESF_EENS_3MapINS3_IdLi1ELin1ELi1ELi1ELin1EEELi0ENS_6StrideILi0ELi0EEEEELi1EEENS0_13sub_assign_opIddEEEEvRT_RKT0_RKT1_, symObjAddr: 0x7A1D8, symBinAddr: 0x10007D590, symSize: 0xD8 }
  - { offset: 0x50025, size: 0x8, addend: 0x0, symName: __ZN5Eigen8internal17resize_if_allowedINS_5BlockINS2_INS_6MatrixIdLin1ELin1ELi0ELin1ELin1EEELin1ELin1ELb0EEELi1ELin1ELb0EEENS_7ProductINS_13CwiseBinaryOpINS0_17scalar_product_opIddEEKNS_14CwiseNullaryOpINS0_18scalar_constant_opIdEEKNS3_IdLi1ELi1ELi0ELi1ELi1EEEEESF_EENS_3MapINS3_IdLi1ELin1ELi1ELi1ELin1EEELi0ENS_6StrideILi0ELi0EEEEELi1EEENS0_13sub_assign_opIddEEEEvRT_RKT0_RKT1_, symObjAddr: 0x7A2E4, symBinAddr: 0x10007D69C, symSize: 0xB4 }
  - { offset: 0x502D6, size: 0x8, addend: 0x0, symName: __ZN5Eigen8internal24call_assignment_no_aliasINS_6MatrixIdLi1ELi1ELi0ELi1ELi1EEENS_13CwiseBinaryOpINS0_17scalar_product_opIddEEKNS_14CwiseNullaryOpINS0_18scalar_constant_opIdEEKS3_EESA_EENS0_9assign_opIddEEEEvRT_RKT0_RKT1_, symObjAddr: 0x7A724, symBinAddr: 0x10007DADC, symSize: 0x3C }
  - { offset: 0x503A4, size: 0x8, addend: 0x0, symName: __ZN5Eigen8internal18check_for_aliasingINS_6MatrixIdLi1ELi1ELi0ELi1ELi1EEENS_13CwiseBinaryOpINS0_17scalar_product_opIddEEKNS_14CwiseNullaryOpINS0_18scalar_constant_opIdEEKS3_EESA_EEEEvRKT_RKT0_, symObjAddr: 0x7A7A0, symBinAddr: 0x10007DB58, symSize: 0x14 }
  - { offset: 0x503EF, size: 0x8, addend: 0x0, symName: __ZN5Eigen8internal26call_dense_assignment_loopINS_6MatrixIdLi1ELi1ELi0ELi1ELi1EEENS_13CwiseBinaryOpINS0_17scalar_product_opIddEEKNS_14CwiseNullaryOpINS0_18scalar_constant_opIdEEKS3_EESA_EENS0_9assign_opIddEEEEvRT_RKT0_RKT1_, symObjAddr: 0x7A7B4, symBinAddr: 0x10007DB6C, symSize: 0xD8 }
  - { offset: 0x504A3, size: 0x8, addend: 0x0, symName: __ZN5Eigen8internal17resize_if_allowedINS_6MatrixIdLi1ELi1ELi0ELi1ELi1EEENS_13CwiseBinaryOpINS0_17scalar_product_opIddEEKNS_14CwiseNullaryOpINS0_18scalar_constant_opIdEEKS3_EESA_EEddEEvRT_RKT0_RKNS0_9assign_opIT1_T2_EE, symObjAddr: 0x7A8C0, symBinAddr: 0x10007DC78, symSize: 0xF8 }
  - { offset: 0x5063B, size: 0x8, addend: 0x0, symName: __ZN5Eigen8internal24call_assignment_no_aliasINS_3MapINS_6MatrixIdLin1ELi1ELi0ELin1ELi1EEELi0ENS_6StrideILi0ELi0EEEEENS_7ProductINS_5BlockINS9_INS3_IdLin1ELin1ELi0ELin1ELin1EEELin1ELin1ELb0EEELin1ELi1ELb0EEENS3_IdLi1ELi1ELi0ELi1ELi1EEELi0EEENS0_9assign_opIddEEEEvRT_RKT0_RKT1_, symObjAddr: 0x7DA34, symBinAddr: 0x100080DEC, symSize: 0x3C }
  - { offset: 0x50770, size: 0x8, addend: 0x0, symName: __ZN5Eigen8internal24call_assignment_no_aliasINS_3MapINS_6MatrixIdLin1ELi1ELi0ELin1ELi1EEELi0ENS_6StrideILi0ELi0EEEEENS_7ProductINS_5BlockINS9_INS3_IdLin1ELin1ELi0ELin1ELin1EEELin1ELin1ELb0EEELin1ELi1ELb0EEENS3_IdLi1ELi1ELi0ELi1ELi1EEELi1EEENS0_9assign_opIddEEEEvRT_RKT0_RKT1_, symObjAddr: 0x7DC38, symBinAddr: 0x100080FF0, symSize: 0x3C }
  - { offset: 0x5083E, size: 0x8, addend: 0x0, symName: __ZN5Eigen8internal18check_for_aliasingINS_3MapINS_6MatrixIdLin1ELi1ELi0ELin1ELi1EEELi0ENS_6StrideILi0ELi0EEEEENS_7ProductINS_5BlockINS9_INS3_IdLin1ELin1ELi0ELin1ELin1EEELin1ELin1ELb0EEELin1ELi1ELb0EEENS3_IdLi1ELi1ELi0ELi1ELi1EEELi1EEEEEvRKT_RKT0_, symObjAddr: 0x7DCFC, symBinAddr: 0x1000810B4, symSize: 0x14 }
  - { offset: 0x50889, size: 0x8, addend: 0x0, symName: __ZN5Eigen8internal26call_dense_assignment_loopINS_3MapINS_6MatrixIdLin1ELi1ELi0ELin1ELi1EEELi0ENS_6StrideILi0ELi0EEEEENS_7ProductINS_5BlockINS9_INS3_IdLin1ELin1ELi0ELin1ELin1EEELin1ELin1ELb0EEELin1ELi1ELb0EEENS3_IdLi1ELi1ELi0ELi1ELi1EEELi1EEENS0_9assign_opIddEEEEvRT_RKT0_RKT1_, symObjAddr: 0x7DD10, symBinAddr: 0x1000810C8, symSize: 0xE0 }
  - { offset: 0x5093E, size: 0x8, addend: 0x0, symName: __ZN5Eigen8internal17resize_if_allowedINS_3MapINS_6MatrixIdLin1ELi1ELi0ELin1ELi1EEELi0ENS_6StrideILi0ELi0EEEEENS_7ProductINS_5BlockINS9_INS3_IdLin1ELin1ELi0ELin1ELin1EEELin1ELin1ELb0EEELin1ELi1ELb0EEENS3_IdLi1ELi1ELi0ELi1ELi1EEELi1EEEddEEvRT_RKT0_RKNS0_9assign_opIT1_T2_EE, symObjAddr: 0x7DE24, symBinAddr: 0x1000811DC, symSize: 0xF8 }
  - { offset: 0x50A9C, size: 0x8, addend: 0x0, symName: __ZN5Eigen8internal24call_assignment_no_aliasINS_5BlockINS2_INS_6MatrixIdLin1ELin1ELi0ELin1ELin1EEELin1ELin1ELb0EEELin1ELi1ELb0EEENS_7ProductINS_13CwiseBinaryOpINS0_17scalar_product_opIddEEKNS_14CwiseNullaryOpINS0_18scalar_constant_opIdEEKNS3_IdLin1ELi1ELi0ELin1ELi1EEEEEKNS_3MapISE_Li0ENS_6StrideILi0ELi0EEEEEEENS_9TransposeIKNS3_IdLi1ELi1ELi0ELi1ELi1EEEEELi0EEENS0_13sub_assign_opIddEEEEvRT_RKT0_RKT1_, symObjAddr: 0x80B18, symBinAddr: 0x100083ED0, symSize: 0x3C }
  - { offset: 0x50BD1, size: 0x8, addend: 0x0, symName: __ZN5Eigen8internal24call_assignment_no_aliasINS_5BlockINS2_INS_6MatrixIdLin1ELin1ELi0ELin1ELin1EEELin1ELin1ELb0EEELin1ELi1ELb0EEENS_7ProductINS_13CwiseBinaryOpINS0_17scalar_product_opIddEEKNS_14CwiseNullaryOpINS0_18scalar_constant_opIdEEKNS3_IdLin1ELi1ELi0ELin1ELi1EEEEEKNS_3MapISE_Li0ENS_6StrideILi0ELi0EEEEEEENS_9TransposeIKNS3_IdLi1ELi1ELi0ELi1ELi1EEEEELi1EEENS0_13sub_assign_opIddEEEEvRT_RKT0_RKT1_, symObjAddr: 0x80D50, symBinAddr: 0x100084108, symSize: 0x3C }
  - { offset: 0x50C9F, size: 0x8, addend: 0x0, symName: __ZN5Eigen8internal18check_for_aliasingINS_5BlockINS2_INS_6MatrixIdLin1ELin1ELi0ELin1ELin1EEELin1ELin1ELb0EEELin1ELi1ELb0EEENS_7ProductINS_13CwiseBinaryOpINS0_17scalar_product_opIddEEKNS_14CwiseNullaryOpINS0_18scalar_constant_opIdEEKNS3_IdLin1ELi1ELi0ELin1ELi1EEEEEKNS_3MapISE_Li0ENS_6StrideILi0ELi0EEEEEEENS_9TransposeIKNS3_IdLi1ELi1ELi0ELi1ELi1EEEEELi1EEEEEvRKT_RKT0_, symObjAddr: 0x80E18, symBinAddr: 0x1000841D0, symSize: 0x14 }
  - { offset: 0x50CEA, size: 0x8, addend: 0x0, symName: __ZN5Eigen8internal26call_dense_assignment_loopINS_5BlockINS2_INS_6MatrixIdLin1ELin1ELi0ELin1ELin1EEELin1ELin1ELb0EEELin1ELi1ELb0EEENS_7ProductINS_13CwiseBinaryOpINS0_17scalar_product_opIddEEKNS_14CwiseNullaryOpINS0_18scalar_constant_opIdEEKNS3_IdLin1ELi1ELi0ELin1ELi1EEEEEKNS_3MapISE_Li0ENS_6StrideILi0ELi0EEEEEEENS_9TransposeIKNS3_IdLi1ELi1ELi0ELi1ELi1EEEEELi1EEENS0_13sub_assign_opIddEEEEvRT_RKT0_RKT1_, symObjAddr: 0x80E2C, symBinAddr: 0x1000841E4, symSize: 0x134 }
  - { offset: 0x50DA3, size: 0x8, addend: 0x0, symName: __ZN5Eigen8internal17resize_if_allowedINS_5BlockINS2_INS_6MatrixIdLin1ELin1ELi0ELin1ELin1EEELin1ELin1ELb0EEELin1ELi1ELb0EEENS_7ProductINS_13CwiseBinaryOpINS0_17scalar_product_opIddEEKNS_14CwiseNullaryOpINS0_18scalar_constant_opIdEEKNS3_IdLin1ELi1ELi0ELin1ELi1EEEEEKNS_3MapISE_Li0ENS_6StrideILi0ELi0EEEEEEENS_9TransposeIKNS3_IdLi1ELi1ELi0ELi1ELi1EEEEELi1EEENS0_13sub_assign_opIddEEEEvRT_RKT0_RKT1_, symObjAddr: 0x80F94, symBinAddr: 0x10008434C, symSize: 0xB4 }
  - { offset: 0x50ED7, size: 0x8, addend: 0x0, symName: __ZN5Eigen8internal15call_assignmentINS_6MatrixIdLin1ELin1ELi0ELin1ELin1EEENS_14CwiseNullaryOpINS0_18scalar_constant_opIdEES3_EENS0_13mul_assign_opIddEEEEvRT_RKT0_RKT1_NS0_9enable_ifIXntsr25evaluator_assume_aliasingISC_EE5valueEPvE4typeE, symObjAddr: 0x82CE4, symBinAddr: 0x10008609C, symSize: 0x38 }
  - { offset: 0x50F45, size: 0x8, addend: 0x0, symName: __ZN5Eigen8internal24call_assignment_no_aliasINS_6MatrixIdLin1ELin1ELi0ELin1ELin1EEENS_14CwiseNullaryOpINS0_18scalar_constant_opIdEES3_EENS0_13mul_assign_opIddEEEEvRT_RKT0_RKT1_, symObjAddr: 0x82D1C, symBinAddr: 0x1000860D4, symSize: 0x3C }
  - { offset: 0x51013, size: 0x8, addend: 0x0, symName: __ZN5Eigen8internal26call_dense_assignment_loopINS_6MatrixIdLin1ELin1ELi0ELin1ELin1EEENS_14CwiseNullaryOpINS0_18scalar_constant_opIdEES3_EENS0_13mul_assign_opIddEEEEvRT_RKT0_RKT1_, symObjAddr: 0x82D98, symBinAddr: 0x100086150, symSize: 0xD8 }
  - { offset: 0x510C7, size: 0x8, addend: 0x0, symName: __ZN5Eigen8internal17resize_if_allowedINS_6MatrixIdLin1ELin1ELi0ELin1ELin1EEENS_14CwiseNullaryOpINS0_18scalar_constant_opIdEES3_EENS0_13mul_assign_opIddEEEEvRT_RKT0_RKT1_, symObjAddr: 0x82E70, symBinAddr: 0x100086228, symSize: 0xB4 }
  - { offset: 0x51126, size: 0x8, addend: 0x0, symName: __ZN5Eigen8internal15call_assignmentINS_6MatrixIdLin1ELin1ELi0ELin1ELin1EEES3_EEvRT_RKT0_, symObjAddr: 0x83250, symBinAddr: 0x100086608, symSize: 0x50 }
  - { offset: 0x51171, size: 0x8, addend: 0x0, symName: __ZN5Eigen8internal15call_assignmentINS_6MatrixIdLin1ELin1ELi0ELin1ELin1EEES3_NS0_9assign_opIddEEEEvRT_RKT0_RKT1_NS0_9enable_ifIXntsr25evaluator_assume_aliasingIS8_EE5valueEPvE4typeE, symObjAddr: 0x832A0, symBinAddr: 0x100086658, symSize: 0x38 }
  - { offset: 0x511DF, size: 0x8, addend: 0x0, symName: __ZN5Eigen8internal13isfinite_implIdEEbRKNSt3__17complexIT_EE, symObjAddr: 0x832F0, symBinAddr: 0x1000866A8, symSize: 0x64 }
  - { offset: 0x51216, size: 0x8, addend: 0x0, symName: __ZN5Eigen8internal13isfinite_implIdEENS0_9enable_ifIXaantsr8internal11is_integralIT_EE5valuentsr9NumTraitsIS3_EE9IsComplexEbE4typeERKS3_, symObjAddr: 0x833C4, symBinAddr: 0x10008677C, symSize: 0x2C }
  - { offset: 0x51AD6, size: 0x8, addend: 0x0, symName: __ZN5Eigen8internal15call_assignmentINS_5BlockINS2_INS_6MatrixIdLin1ELin1ELi0ELin1ELin1EEELin1ELi1ELb1EEELin1ELi1ELb0EEENS_14CwiseNullaryOpINS0_18scalar_constant_opIdEENS3_IdLin1ELi1ELi0ELin1ELi1EEEEENS0_13div_assign_opIddEEEEvRT_RKT0_RKT1_NS0_9enable_ifIXntsr25evaluator_assume_aliasingISG_EE5valueEPvE4typeE, symObjAddr: 0x86550, symBinAddr: 0x100089908, symSize: 0x38 }
  - { offset: 0x51B44, size: 0x8, addend: 0x0, symName: __ZN5Eigen8internal24call_assignment_no_aliasINS_5BlockINS2_INS_6MatrixIdLin1ELin1ELi0ELin1ELin1EEELin1ELi1ELb1EEELin1ELi1ELb0EEENS_14CwiseNullaryOpINS0_18scalar_constant_opIdEENS3_IdLin1ELi1ELi0ELin1ELi1EEEEENS0_13div_assign_opIddEEEEvRT_RKT0_RKT1_, symObjAddr: 0x86614, symBinAddr: 0x1000899CC, symSize: 0x3C }
  - { offset: 0x51C12, size: 0x8, addend: 0x0, symName: __ZN5Eigen8internal26call_dense_assignment_loopINS_5BlockINS2_INS_6MatrixIdLin1ELin1ELi0ELin1ELin1EEELin1ELi1ELb1EEELin1ELi1ELb0EEENS_14CwiseNullaryOpINS0_18scalar_constant_opIdEENS3_IdLin1ELi1ELi0ELin1ELi1EEEEENS0_13div_assign_opIddEEEEvRT_RKT0_RKT1_, symObjAddr: 0x86690, symBinAddr: 0x100089A48, symSize: 0xD8 }
  - { offset: 0x51CC6, size: 0x8, addend: 0x0, symName: __ZN5Eigen8internal17resize_if_allowedINS_5BlockINS2_INS_6MatrixIdLin1ELin1ELi0ELin1ELin1EEELin1ELi1ELb1EEELin1ELi1ELb0EEENS_14CwiseNullaryOpINS0_18scalar_constant_opIdEENS3_IdLin1ELi1ELi0ELin1ELi1EEEEENS0_13div_assign_opIddEEEEvRT_RKT0_RKT1_, symObjAddr: 0x86768, symBinAddr: 0x100089B20, symSize: 0xB4 }
  - { offset: 0x51D25, size: 0x8, addend: 0x0, symName: __ZN5Eigen8internal15call_assignmentINS_5BlockINS_6MatrixIdLin1ELin1ELi0ELin1ELin1EEELin1ELin1ELb0EEENS_14CwiseNullaryOpINS0_18scalar_constant_opIdEES4_EENS0_13div_assign_opIddEEEEvRT_RKT0_RKT1_NS0_9enable_ifIXntsr25evaluator_assume_aliasingISE_EE5valueEPvE4typeE, symObjAddr: 0x86D18, symBinAddr: 0x10008A0D0, symSize: 0x38 }
  - { offset: 0x51D93, size: 0x8, addend: 0x0, symName: __ZN5Eigen8internal24call_assignment_no_aliasINS_5BlockINS_6MatrixIdLin1ELin1ELi0ELin1ELin1EEELin1ELin1ELb0EEENS_14CwiseNullaryOpINS0_18scalar_constant_opIdEES4_EENS0_13div_assign_opIddEEEEvRT_RKT0_RKT1_, symObjAddr: 0x86D50, symBinAddr: 0x10008A108, symSize: 0x3C }
  - { offset: 0x51E61, size: 0x8, addend: 0x0, symName: __ZN5Eigen8internal26call_dense_assignment_loopINS_5BlockINS_6MatrixIdLin1ELin1ELi0ELin1ELin1EEELin1ELin1ELb0EEENS_14CwiseNullaryOpINS0_18scalar_constant_opIdEES4_EENS0_13div_assign_opIddEEEEvRT_RKT0_RKT1_, symObjAddr: 0x86DCC, symBinAddr: 0x10008A184, symSize: 0xD8 }
  - { offset: 0x51F15, size: 0x8, addend: 0x0, symName: __ZN5Eigen8internal17resize_if_allowedINS_5BlockINS_6MatrixIdLin1ELin1ELi0ELin1ELin1EEELin1ELin1ELb0EEENS_14CwiseNullaryOpINS0_18scalar_constant_opIdEES4_EENS0_13div_assign_opIddEEEEvRT_RKT0_RKT1_, symObjAddr: 0x86EA4, symBinAddr: 0x10008A25C, symSize: 0xB4 }
  - { offset: 0x51FAE, size: 0x8, addend: 0x0, symName: __ZN5Eigen8internal24call_assignment_no_aliasINS_6MatrixIdLin1ELi1ELi0ELin1ELi1EEENS_7ProductINS_5BlockINS2_IdLin1ELin1ELi0ELin1ELin1EEELin1ELin1ELb1EEENS5_INS5_IS6_Lin1ELi1ELb1EEELin1ELi1ELb0EEELi0EEENS0_9assign_opIddEEEEvRT_RKT0_RKT1_, symObjAddr: 0x87720, symBinAddr: 0x10008AAD8, symSize: 0x3C }
  - { offset: 0x52193, size: 0x8, addend: 0x0, symName: __ZN5Eigen8internal15call_assignmentINS_6MatrixIdLin1ELi1ELi0ELin1ELi1EEENS_14CwiseNullaryOpINS0_18scalar_constant_opIdEES3_EEEEvRT_RKT0_, symObjAddr: 0x87A2C, symBinAddr: 0x10008ADE4, symSize: 0x50 }
  - { offset: 0x521DE, size: 0x8, addend: 0x0, symName: __ZN5Eigen8internal15call_assignmentINS_6MatrixIdLin1ELi1ELi0ELin1ELi1EEENS_14CwiseNullaryOpINS0_18scalar_constant_opIdEES3_EENS0_9assign_opIddEEEEvRT_RKT0_RKT1_NS0_9enable_ifIXntsr25evaluator_assume_aliasingISC_EE5valueEPvE4typeE, symObjAddr: 0x87A7C, symBinAddr: 0x10008AE34, symSize: 0x38 }
  - { offset: 0x5224C, size: 0x8, addend: 0x0, symName: __ZN5Eigen8internal24call_assignment_no_aliasINS_6MatrixIdLin1ELi1ELi0ELin1ELi1EEENS_14CwiseNullaryOpINS0_18scalar_constant_opIdEES3_EENS0_9assign_opIddEEEEvRT_RKT0_RKT1_, symObjAddr: 0x87AB4, symBinAddr: 0x10008AE6C, symSize: 0x3C }
  - { offset: 0x5231A, size: 0x8, addend: 0x0, symName: __ZN5Eigen8internal18check_for_aliasingINS_6MatrixIdLin1ELi1ELi0ELin1ELi1EEENS_14CwiseNullaryOpINS0_18scalar_constant_opIdEES3_EEEEvRKT_RKT0_, symObjAddr: 0x87B30, symBinAddr: 0x10008AEE8, symSize: 0x14 }
  - { offset: 0x52365, size: 0x8, addend: 0x0, symName: __ZN5Eigen8internal26call_dense_assignment_loopINS_6MatrixIdLin1ELi1ELi0ELin1ELi1EEEEEvRT_RKNS_14CwiseNullaryOpINS0_18scalar_constant_opINS4_6ScalarEEES4_EERKNS0_9assign_opIS8_S8_EE, symObjAddr: 0x87B44, symBinAddr: 0x10008AEFC, symSize: 0x6C }
  - { offset: 0x523B6, size: 0x8, addend: 0x0, symName: __ZN5Eigen8internal17resize_if_allowedINS_6MatrixIdLin1ELi1ELi0ELin1ELi1EEENS_14CwiseNullaryOpINS0_18scalar_constant_opIdEES3_EEddEEvRT_RKT0_RKNS0_9assign_opIT1_T2_EE, symObjAddr: 0x87BB0, symBinAddr: 0x10008AF68, symSize: 0xF8 }
  - { offset: 0x52A81, size: 0x8, addend: 0x0, symName: __ZN5Eigen8internal15call_assignmentINS_5BlockINS_6MatrixIdLin1ELin1ELi0ELin1ELin1EEELin1ELi1ELb1EEENS3_IdLin1ELi1ELi0ELin1ELi1EEEEEvRT_RKT0_, symObjAddr: 0x89A50, symBinAddr: 0x10008CE08, symSize: 0x50 }
  - { offset: 0x52ACC, size: 0x8, addend: 0x0, symName: __ZN5Eigen8internal15call_assignmentINS_5BlockINS_6MatrixIdLin1ELin1ELi0ELin1ELin1EEELin1ELi1ELb1EEENS3_IdLin1ELi1ELi0ELin1ELi1EEENS0_9assign_opIddEEEEvRT_RKT0_RKT1_NS0_9enable_ifIXntsr25evaluator_assume_aliasingISB_EE5valueEPvE4typeE, symObjAddr: 0x89AA0, symBinAddr: 0x10008CE58, symSize: 0x38 }
  - { offset: 0x52B3A, size: 0x8, addend: 0x0, symName: __ZN5Eigen8internal24call_assignment_no_aliasINS_5BlockINS_6MatrixIdLin1ELin1ELi0ELin1ELin1EEELin1ELi1ELb1EEENS3_IdLin1ELi1ELi0ELin1ELi1EEENS0_9assign_opIddEEEEvRT_RKT0_RKT1_, symObjAddr: 0x89AD8, symBinAddr: 0x10008CE90, symSize: 0x3C }
  - { offset: 0x52C08, size: 0x8, addend: 0x0, symName: __ZN5Eigen8internal18check_for_aliasingINS_5BlockINS_6MatrixIdLin1ELin1ELi0ELin1ELin1EEELin1ELi1ELb1EEENS3_IdLin1ELi1ELi0ELin1ELi1EEEEEvRKT_RKT0_, symObjAddr: 0x89B54, symBinAddr: 0x10008CF0C, symSize: 0x14 }
  - { offset: 0x52C53, size: 0x8, addend: 0x0, symName: __ZN5Eigen8internal26call_dense_assignment_loopINS_5BlockINS_6MatrixIdLin1ELin1ELi0ELin1ELin1EEELin1ELi1ELb1EEENS3_IdLin1ELi1ELi0ELin1ELi1EEENS0_9assign_opIddEEEEvRT_RKT0_RKT1_, symObjAddr: 0x89B68, symBinAddr: 0x10008CF20, symSize: 0xE0 }
  - { offset: 0x52D07, size: 0x8, addend: 0x0, symName: __ZN5Eigen8internal17resize_if_allowedINS_5BlockINS_6MatrixIdLin1ELin1ELi0ELin1ELin1EEELin1ELi1ELb1EEENS3_IdLin1ELi1ELi0ELin1ELi1EEEddEEvRT_RKT0_RKNS0_9assign_opIT1_T2_EE, symObjAddr: 0x89C7C, symBinAddr: 0x10008D034, symSize: 0xF8 }
  - { offset: 0x52D8D, size: 0x8, addend: 0x0, symName: __ZN5Eigen8internal10smart_copyINSt3__17complexIdEEEEvPKT_S7_PS5_, symObjAddr: 0x8A7F4, symBinAddr: 0x10008DBAC, symSize: 0x34 }
  - { offset: 0x53D50, size: 0x8, addend: 0x0, symName: __ZN5EigenL6lastp1E, symObjAddr: 0xF69A6B, symBinAddr: 0x1000AC021, symSize: 0x0 }
  - { offset: 0x53D69, size: 0x8, addend: 0x0, symName: __ZN5EigenL3allE, symObjAddr: 0xF69A6E, symBinAddr: 0x1000AC024, symSize: 0x0 }
  - { offset: 0x53D82, size: 0x8, addend: 0x0, symName: __ZN5EigenL3fixILi1EEE, symObjAddr: 0xF69A6D, symBinAddr: 0x1000AC023, symSize: 0x0 }
  - { offset: 0x53DA6, size: 0x8, addend: 0x0, symName: __ZN5EigenL3fixILi0EEE, symObjAddr: 0xF69A6F, symBinAddr: 0x1000AC025, symSize: 0x0 }
  - { offset: 0x53DCA, size: 0x8, addend: 0x0, symName: __ZN5EigenL3fixILi2EEE, symObjAddr: 0xF69A70, symBinAddr: 0x1000AC026, symSize: 0x0 }
  - { offset: 0x53DEE, size: 0x8, addend: 0x0, symName: __ZN5EigenL3fixILi3EEE, symObjAddr: 0xF69A71, symBinAddr: 0x1000AC027, symSize: 0x0 }
  - { offset: 0x1A2D4A, size: 0x8, addend: 0x0, symName: __ZN5Eigen6numext8isfiniteINSt3__17complexIdEEEEbRKT_, symObjAddr: 0x5030, symBinAddr: 0x1000083E8, symSize: 0x28 }
  - { offset: 0x1A2DB0, size: 0x8, addend: 0x0, symName: __ZN5Eigen6numext4conjIdEENS_8internal11conj_retvalINS2_36global_math_functions_filtering_baseIT_vE4typeEE4typeERKS5_, symObjAddr: 0xADD8, symBinAddr: 0x10000E190, symSize: 0x24 }
  - { offset: 0x1A2DE7, size: 0x8, addend: 0x0, symName: __ZN5Eigen6numext4abs2IdEENS_8internal11abs2_retvalINS2_36global_math_functions_filtering_baseIT_vE4typeEE4typeERKS5_, symObjAddr: 0xC360, symBinAddr: 0x10000F718, symSize: 0x24 }
  - { offset: 0x1A2E1E, size: 0x8, addend: 0x0, symName: __ZN5Eigen6numext4imagIdEENS_8internal11imag_retvalINS2_36global_math_functions_filtering_baseIT_vE4typeEE4typeERKS5_, symObjAddr: 0xC384, symBinAddr: 0x10000F73C, symSize: 0x24 }
  - { offset: 0x1A2E55, size: 0x8, addend: 0x0, symName: __ZN5Eigen6numext4realIdEENS_8internal11real_retvalINS2_36global_math_functions_filtering_baseIT_vE4typeEE4typeERKS5_, symObjAddr: 0xC3A8, symBinAddr: 0x10000F760, symSize: 0x24 }
  - { offset: 0x1A2EF2, size: 0x8, addend: 0x0, symName: __ZN5Eigen6numext8div_ceilIlEET_RKS2_S4_, symObjAddr: 0x46CAC, symBinAddr: 0x10004A064, symSize: 0x38 }
  - { offset: 0x1A2F38, size: 0x8, addend: 0x0, symName: __ZN5Eigen6numext8isfiniteIdEEbRKT_, symObjAddr: 0x83354, symBinAddr: 0x10008670C, symSize: 0x28 }
  - { offset: 0x1A2F6F, size: 0x8, addend: 0x0, symName: __ZN5Eigen6numext4realINSt3__17complexIdEEEENS_8internal11real_retvalINS5_36global_math_functions_filtering_baseIT_vE4typeEE4typeERKS8_, symObjAddr: 0x8337C, symBinAddr: 0x100086734, symSize: 0x24 }
  - { offset: 0x1A2FA6, size: 0x8, addend: 0x0, symName: __ZN5Eigen6numext4imagINSt3__17complexIdEEEENS_8internal11imag_retvalINS5_36global_math_functions_filtering_baseIT_vE4typeEE4typeERKS8_, symObjAddr: 0x833A0, symBinAddr: 0x100086758, symSize: 0x24 }
  - { offset: 0x1A2FDD, size: 0x8, addend: 0x0, symName: __ZN5Eigen6numext4swapIPNSt3__17complexIdEEEEvRT_S7_, symObjAddr: 0x8A9B0, symBinAddr: 0x10008DD68, symSize: 0x2C }
  - { offset: 0x1A301F, size: 0x8, addend: 0x0, symName: __ZN5Eigen6numext4swapIlEEvRT_S3_, symObjAddr: 0x8A9DC, symBinAddr: 0x10008DD94, symSize: 0x2C }
  - { offset: 0x1A319F, size: 0x8, addend: 0x0, symName: __ZN5EigenmlIdEEKNS_13CwiseBinaryOpINS_8internal17scalar_product_opINS2_18promote_scalar_argIdT_Xsr5Eigen8internal14has_ReturnTypeINS_20ScalarBinaryOpTraitsIS5_dNS3_IS5_dEEEEEE5valueEE4typeEdEEKNS2_19plain_constant_typeINS_3MapINS_6MatrixIdLi1ELin1ELi1ELi1ELin1EEELi0ENS_6StrideILi0ELi0EEEEESA_E4typeEKSI_EERKS5_RKNS_10MatrixBaseISI_EE, symObjAddr: 0x10A0C, symBinAddr: 0x100013DC4, symSize: 0x9C }
  - { offset: 0x1A31E2, size: 0x8, addend: 0x0, symName: __ZN5EigenmlIdEEKNS_13CwiseBinaryOpINS_8internal17scalar_product_opINS2_18promote_scalar_argIdT_Xsr5Eigen8internal14has_ReturnTypeINS_20ScalarBinaryOpTraitsIS5_dNS3_IS5_dEEEEEE5valueEE4typeEdEEKNS2_19plain_constant_typeINS_5BlockINSD_INS_6MatrixIdLin1ELin1ELi0ELin1ELin1EEELin1ELi1ELb1EEELin1ELi1ELb0EEESA_E4typeEKSH_EERKS5_RKNS_10MatrixBaseISH_EE, symObjAddr: 0x10B0C, symBinAddr: 0x100013EC4, symSize: 0x9C }
  - { offset: 0x1A3225, size: 0x8, addend: 0x0, symName: __ZN5EigenmlIdEEKNS_13CwiseBinaryOpINS_8internal17scalar_product_opINS2_18promote_scalar_argIdT_Xsr5Eigen8internal14has_ReturnTypeINS_20ScalarBinaryOpTraitsIS5_dNS3_IS5_dEEEEEE5valueEE4typeEdEEKNS2_19plain_constant_typeINS_3MapINS_6MatrixIdLin1ELi1ELi0ELin1ELi1EEELi16ENS_6StrideILi0ELi0EEEEESA_E4typeEKSI_EERKS5_RKNS_10MatrixBaseISI_EE, symObjAddr: 0x1B554, symBinAddr: 0x10001E90C, symSize: 0x9C }
  - { offset: 0x1A3268, size: 0x8, addend: 0x0, symName: __ZN5EigenmlIdEEKNS_13CwiseBinaryOpINS_8internal17scalar_product_opINS2_18promote_scalar_argIdT_Xsr5Eigen8internal14has_ReturnTypeINS_20ScalarBinaryOpTraitsIS5_dNS3_IS5_dEEEEEE5valueEE4typeEdEEKNS2_19plain_constant_typeINS_3MapINS_6MatrixIdLin1ELi1ELi0ELin1ELi1EEELi0ENS_6StrideILi0ELi0EEEEESA_E4typeEKSI_EERKS5_RKNS_10MatrixBaseISI_EE, symObjAddr: 0x1E9C4, symBinAddr: 0x100021D7C, symSize: 0x9C }
  - { offset: 0x1A32AB, size: 0x8, addend: 0x0, symName: __ZN5EigenmlIdEEKNS_13CwiseBinaryOpINS_8internal17scalar_product_opINS2_18promote_scalar_argIdT_Xsr5Eigen8internal14has_ReturnTypeINS_20ScalarBinaryOpTraitsIS5_dNS3_IS5_dEEEEEE5valueEE4typeEdEEKNS2_19plain_constant_typeINS_5BlockIKNS_6MatrixIdLin1ELin1ELi0ELin1ELin1EEELin1ELi1ELb0EEESA_E4typeEKSH_EERKS5_RKNS_10MatrixBaseISH_EE, symObjAddr: 0x30040, symBinAddr: 0x1000333F8, symSize: 0x9C }
  - { offset: 0x1A3347, size: 0x8, addend: 0x0, symName: __ZN5EigenmlINS_13CwiseBinaryOpINS_8internal17scalar_product_opIddEEKNS_14CwiseNullaryOpINS2_18scalar_constant_opIdEEKNS_6MatrixIdLi1ELin1ELi1ELi1ELin1EEEEEKNS_9TransposeIKNS_5BlockIKNSE_IKNSE_INS8_IdLin1ELin1ELi0ELin1ELin1EEELin1ELin1ELb0EEELin1ELi1ELb1EEELin1ELi1ELb0EEEEEEEEEKNS_7ProductIT_NS_14TriangularViewIKNSE_ISH_Lin1ELin1ELb0EEELj5EEELi0EEERKNS_10MatrixBaseISQ_EERKNS_18TriangularViewImplIST_Lj5ENS_5DenseEEE, symObjAddr: 0x35ACC, symBinAddr: 0x100038E84, symSize: 0x4C }
  - { offset: 0x1A338D, size: 0x8, addend: 0x0, symName: __ZN5EigenmlIdEEKNS_13CwiseBinaryOpINS_8internal17scalar_product_opINS2_18promote_scalar_argIdT_Xsr5Eigen8internal14has_ReturnTypeINS_20ScalarBinaryOpTraitsIS5_dNS3_IS5_dEEEEEE5valueEE4typeEdEEKNS2_19plain_constant_typeINS_9TransposeIKNS_5BlockIKNSE_IKNSE_INS_6MatrixIdLin1ELin1ELi0ELin1ELin1EEELin1ELin1ELb0EEELin1ELi1ELb1EEELin1ELi1ELb0EEEEESA_E4typeEKSN_EERKS5_RKNS_10MatrixBaseISN_EE, symObjAddr: 0x35B18, symBinAddr: 0x100038ED0, symSize: 0x9C }
  - { offset: 0x1A3482, size: 0x8, addend: 0x0, symName: __ZN5EigenmlIdEEKNS_13CwiseBinaryOpINS_8internal17scalar_product_opINS2_18promote_scalar_argIdT_Xsr5Eigen8internal14has_ReturnTypeINS_20ScalarBinaryOpTraitsIS5_dNS3_IS5_dEEEEEE5valueEE4typeEdEEKNS2_19plain_constant_typeINS_5BlockINSD_INS_6MatrixIdLin1ELin1ELi1ELin1ELin1EEELi1ELin1ELb1EEELi1ELin1ELb0EEESA_E4typeEKSH_EERKS5_RKNS_10MatrixBaseISH_EE, symObjAddr: 0x36088, symBinAddr: 0x100039440, symSize: 0x9C }
  - { offset: 0x1A34E0, size: 0x8, addend: 0x0, symName: __ZN5EigenmlIdEEKNS_13CwiseBinaryOpINS_8internal17scalar_product_opINS2_18promote_scalar_argIdT_Xsr5Eigen8internal14has_ReturnTypeINS_20ScalarBinaryOpTraitsIS5_dNS3_IS5_dEEEEEE5valueEE4typeEdEEKNS2_19plain_constant_typeINS_5BlockIKNS_9TransposeIKNS1_INS3_IddEEKNS_14CwiseNullaryOpINS2_18scalar_constant_opIdEEKNS_6MatrixIdLi1ELin1ELi1ELi1ELin1EEEEEKNSE_IKNSD_IKNSD_IKNSD_INSJ_IdLin1ELin1ELi0ELin1ELin1EEELin1ELin1ELb0EEELin1ELi1ELb1EEELin1ELi1ELb0EEEEEEEEELin1ELi1ELb0EEESA_E4typeEKS11_EERKS5_RKNS_10MatrixBaseIS11_EE, symObjAddr: 0x3A764, symBinAddr: 0x10003DB1C, symSize: 0x9C }
  - { offset: 0x1A3687, size: 0x8, addend: 0x0, symName: __ZN5EigenmlIdEEKNS_13CwiseBinaryOpINS_8internal17scalar_product_opINS2_18promote_scalar_argIdT_Xsr5Eigen8internal14has_ReturnTypeINS_20ScalarBinaryOpTraitsIS5_dNS3_IS5_dEEEEEE5valueEE4typeEdEEKNS2_19plain_constant_typeINS_5BlockINS_6MatrixIdLin1ELin1ELi0ELin1ELin1EEELin1ELin1ELb0EEESA_E4typeEKSG_EERKS5_RKNS_10MatrixBaseISG_EE, symObjAddr: 0x45FBC, symBinAddr: 0x100049374, symSize: 0x9C }
  - { offset: 0x1A36CA, size: 0x8, addend: 0x0, symName: __ZN5EigenmlIdEEKNS_13CwiseBinaryOpINS_8internal17scalar_product_opINS2_18promote_scalar_argIdT_Xsr5Eigen8internal14has_ReturnTypeINS_20ScalarBinaryOpTraitsIS5_dNS3_IS5_dEEEEEE5valueEE4typeEdEEKNS2_19plain_constant_typeINS_6MatrixIdLin1ELin1ELi0ELin1ELin1EEESA_E4typeEKSE_EERKS5_RKNS_10MatrixBaseISE_EE, symObjAddr: 0x59FAC, symBinAddr: 0x10005D364, symSize: 0x9C }
  - { offset: 0x1A38F6, size: 0x8, addend: 0x0, symName: __ZN5EigenmlIdEEKNS_13CwiseBinaryOpINS_8internal17scalar_product_opINS2_18promote_scalar_argIdT_Xsr5Eigen8internal14has_ReturnTypeINS_20ScalarBinaryOpTraitsIS5_dNS3_IS5_dEEEEEE5valueEE4typeEdEEKNS2_19plain_constant_typeINS_6MatrixIdLi2ELi1ELi0ELi2ELi1EEESA_E4typeEKSE_EERKS5_RKNS_10MatrixBaseISE_EE, symObjAddr: 0x66590, symBinAddr: 0x100069948, symSize: 0x9C }
  - { offset: 0x1A6D70, size: 0x8, addend: 0x0, symName: __ZN5EigenmlIdEEKNS_13CwiseBinaryOpINS_8internal17scalar_product_opINS2_18promote_scalar_argIdT_Xsr5Eigen8internal14has_ReturnTypeINS_20ScalarBinaryOpTraitsIS5_dNS3_IS5_dEEEEEE5valueEE4typeEdEEKNS2_19plain_constant_typeINS_6MatrixIdLi1ELi1ELi0ELi1ELi1EEESA_E4typeEKSE_EERKS5_RKNS_10MatrixBaseISE_EE, symObjAddr: 0x76734, symBinAddr: 0x100079AEC, symSize: 0x9C }
  - { offset: 0x1AFB29, size: 0x8, addend: 0x0, symName: __ZNSt3__124__put_character_sequenceB8ue170006IcNS_11char_traitsIcEEEERNS_13basic_ostreamIT_T0_EES7_PKS4_m, symObjAddr: 0x8CB10, symBinAddr: 0x10008FEC8, symSize: 0x1EC }
  - { offset: 0x1B23D2, size: 0x8, addend: 0x0, symName: __ZNSt3__14sortB8ue170006INS_11__wrap_iterIPfEEEEvT_S4_, symObjAddr: 0x7A0, symBinAddr: 0x100003B58, symSize: 0x3C }
  - { offset: 0x1B2414, size: 0x8, addend: 0x0, symName: __ZNSt3__1plB8ue170006IcNS_11char_traitsIcEENS_9allocatorIcEEEENS_12basic_stringIT_T0_T1_EEOS9_PKS6_, symObjAddr: 0xA24, symBinAddr: 0x100003DDC, symSize: 0x40 }
  - { offset: 0x1B246C, size: 0x8, addend: 0x0, symName: __ZNSt3__1plB8ue170006IcNS_11char_traitsIcEENS_9allocatorIcEEEENS_12basic_stringIT_T0_T1_EEPKS6_OS9_, symObjAddr: 0xA64, symBinAddr: 0x100003E1C, symSize: 0x44 }
  - { offset: 0x1B24C4, size: 0x8, addend: 0x0, symName: __ZNSt3__1plB8ue170006IcNS_11char_traitsIcEENS_9allocatorIcEEEENS_12basic_stringIT_T0_T1_EEOS9_SA_, symObjAddr: 0xC00, symBinAddr: 0x100003FB8, symSize: 0x40 }
  - { offset: 0x1B251C, size: 0x8, addend: 0x0, symName: __ZNSt3__1lsB8ue170006INS_11char_traitsIcEEEERNS_13basic_ostreamIcT_EES6_PKc, symObjAddr: 0x1430, symBinAddr: 0x1000047E8, symSize: 0x48 }
  - { offset: 0x1B2562, size: 0x8, addend: 0x0, symName: __ZNSt3__14endlB8ue170006IcNS_11char_traitsIcEEEERNS_13basic_ostreamIT_T0_EES7_, symObjAddr: 0x14A4, symBinAddr: 0x10000485C, symSize: 0x58 }
  - { offset: 0x1B25A2, size: 0x8, addend: 0x0, symName: __ZNSt3__112__to_addressB8ue170006IfEEPT_S2_, symObjAddr: 0x1EF4, symBinAddr: 0x1000052AC, symSize: 0x14 }
  - { offset: 0x1B25D7, size: 0x8, addend: 0x0, symName: __ZNSt3__119__libcpp_deallocateB8ue170006EPvmm, symObjAddr: 0x1FCC, symBinAddr: 0x100005384, symSize: 0x30 }
  - { offset: 0x1B261F, size: 0x8, addend: 0x0, symName: __ZNSt3__127__do_deallocate_handle_sizeB8ue170006IJEEEvPvmDpT_, symObjAddr: 0x1FFC, symBinAddr: 0x1000053B4, symSize: 0x28 }
  - { offset: 0x1B265E, size: 0x8, addend: 0x0, symName: __ZNSt3__124__libcpp_operator_deleteB8ue170006IJPvEEEvDpT_, symObjAddr: 0x2024, symBinAddr: 0x1000053DC, symSize: 0x24 }
  - { offset: 0x1B2A9E, size: 0x8, addend: 0x0, symName: __ZNSt3__16fill_nB8ue170006IPdldEET_S2_T0_RKT1_, symObjAddr: 0x862C, symBinAddr: 0x10000B9E4, symSize: 0x44 }
  - { offset: 0x1B2B01, size: 0x8, addend: 0x0, symName: __ZNSt3__18__fill_nB8ue170006IPdldEET_S2_T0_RKT1_, symObjAddr: 0x8728, symBinAddr: 0x10000BAE0, symSize: 0x64 }
  - { offset: 0x1B2B64, size: 0x8, addend: 0x0, symName: __ZNSt3__121__convert_to_integralB8ue170006El, symObjAddr: 0x878C, symBinAddr: 0x10000BB44, symSize: 0x14 }
  - { offset: 0x1B2B90, size: 0x8, addend: 0x0, symName: __ZNSt3__13minB8ue170006IlEERKT_S3_S3_, symObjAddr: 0x11BCC, symBinAddr: 0x100014F84, symSize: 0x2C }
  - { offset: 0x1B2BD3, size: 0x8, addend: 0x0, symName: __ZNSt3__13minB8ue170006IlNS_6__lessIvvEEEERKT_S5_S5_T0_, symObjAddr: 0x11BF8, symBinAddr: 0x100014FB0, symSize: 0x54 }
  - { offset: 0x1B2CD4, size: 0x8, addend: 0x0, symName: __ZNSt3__13maxB8ue170006IlEERKT_S3_S3_, symObjAddr: 0x347F0, symBinAddr: 0x100037BA8, symSize: 0x2C }
  - { offset: 0x1B2D17, size: 0x8, addend: 0x0, symName: __ZNSt3__13maxB8ue170006IlNS_6__lessIvvEEEERKT_S5_S5_T0_, symObjAddr: 0x34AC0, symBinAddr: 0x100037E78, symSize: 0x54 }
  - { offset: 0x1B2D71, size: 0x8, addend: 0x0, symName: __ZNSt3__14realB8ue170006IdEET_RKNS_7complexIS1_EE, symObjAddr: 0x83438, symBinAddr: 0x1000867F0, symSize: 0x24 }
  - { offset: 0x1B2DA8, size: 0x8, addend: 0x0, symName: __ZNSt3__14imagB8ue170006IdEET_RKNS_7complexIS1_EE, symObjAddr: 0x83480, symBinAddr: 0x100086838, symSize: 0x24 }
  - { offset: 0x1B2DDF, size: 0x8, addend: 0x0, symName: __ZNSt3__13maxB8ue170006IdEERKT_S3_S3_, symObjAddr: 0x834BC, symBinAddr: 0x100086874, symSize: 0x2C }
  - { offset: 0x1B2E22, size: 0x8, addend: 0x0, symName: __ZNSt3__13maxB8ue170006IdNS_6__lessIvvEEEERKT_S5_S5_T0_, symObjAddr: 0x834E8, symBinAddr: 0x1000868A0, symSize: 0x54 }
  - { offset: 0x1B2E7C, size: 0x8, addend: 0x0, symName: __ZNSt3__1dvB8ue170006IdEENS_7complexIT_EERKS3_S5_, symObjAddr: 0x83838, symBinAddr: 0x100086BF0, symSize: 0x3DC }
  - { offset: 0x1B2F4B, size: 0x8, addend: 0x0, symName: __ZNSt3__116__constexpr_logbB8ue170006IdEET_S1_, symObjAddr: 0x86BE4, symBinAddr: 0x100089F9C, symSize: 0x24 }
  - { offset: 0x1B2F82, size: 0x8, addend: 0x0, symName: __ZNSt3__116__constexpr_fmaxB8ue170006Edd, symObjAddr: 0x86C08, symBinAddr: 0x100089FC0, symSize: 0x20 }
  - { offset: 0x1B2FBF, size: 0x8, addend: 0x0, symName: __ZNSt3__116__constexpr_fabsB8ue170006Ed, symObjAddr: 0x86C28, symBinAddr: 0x100089FE0, symSize: 0x18 }
  - { offset: 0x1B2FED, size: 0x8, addend: 0x0, symName: __ZNSt3__120__constexpr_isfiniteB8ue170006IdEENS_9enable_ifIXsr17is_floating_pointIT_EE5valueEbE4typeES2_, symObjAddr: 0x86C40, symBinAddr: 0x100089FF8, symSize: 0x24 }
  - { offset: 0x1B3024, size: 0x8, addend: 0x0, symName: __ZNSt3__118__constexpr_scalbnB8ue170006IdEET_S1_i, symObjAddr: 0x86C64, symBinAddr: 0x10008A01C, symSize: 0x2C }
  - { offset: 0x1B306A, size: 0x8, addend: 0x0, symName: __ZNSt3__117__constexpr_isnanB8ue170006IdEENS_9enable_ifIXsr17is_floating_pointIT_EE5valueEbE4typeES2_, symObjAddr: 0x86C90, symBinAddr: 0x10008A048, symSize: 0x1C }
  - { offset: 0x1B30A1, size: 0x8, addend: 0x0, symName: __ZNSt3__120__constexpr_copysignB8ue170006Edd, symObjAddr: 0x86CAC, symBinAddr: 0x10008A064, symSize: 0x44 }
  - { offset: 0x1B30DE, size: 0x8, addend: 0x0, symName: __ZNSt3__117__constexpr_isinfB8ue170006IdEENS_9enable_ifIXsr17is_floating_pointIT_EE5valueEbE4typeES2_, symObjAddr: 0x86CF0, symBinAddr: 0x10008A0A8, symSize: 0x28 }
  - { offset: 0x1B3115, size: 0x8, addend: 0x0, symName: __ZNSt3__14swapB8ue170006IPNS_7complexIdEEEENS_9enable_ifIXaasr21is_move_constructibleIT_EE5valuesr18is_move_assignableIS5_EE5valueEvE4typeERS5_S8_, symObjAddr: 0x8AA08, symBinAddr: 0x10008DDC0, symSize: 0x3C }
  - { offset: 0x1B3166, size: 0x8, addend: 0x0, symName: __ZNSt3__14swapB8ue170006IlEENS_9enable_ifIXaasr21is_move_constructibleIT_EE5valuesr18is_move_assignableIS2_EE5valueEvE4typeERS2_S5_, symObjAddr: 0x8AA44, symBinAddr: 0x10008DDFC, symSize: 0x3C }
  - { offset: 0x1B31B7, size: 0x8, addend: 0x0, symName: __ZNSt3__13maxB8ue170006ImEERKT_S3_S3_, symObjAddr: 0x8B4DC, symBinAddr: 0x10008E894, symSize: 0x2C }
  - { offset: 0x1B31FA, size: 0x8, addend: 0x0, symName: __ZNSt3__13minB8ue170006ImEERKT_S3_S3_, symObjAddr: 0x8B508, symBinAddr: 0x10008E8C0, symSize: 0x2C }
  - { offset: 0x1B343E, size: 0x8, addend: 0x0, symName: __ZNSt3__13minB8ue170006ImNS_6__lessIvvEEEERKT_S5_S5_T0_, symObjAddr: 0x8B594, symBinAddr: 0x10008E94C, symSize: 0x54 }
  - { offset: 0x1B3499, size: 0x8, addend: 0x0, symName: __ZNSt3__120__throw_length_errorB8ue170006EPKc, symObjAddr: 0x8B670, symBinAddr: 0x10008EA28, symSize: 0x64 }
  - { offset: 0x1B34C3, size: 0x8, addend: 0x0, symName: __ZNSt3__13maxB8ue170006ImNS_6__lessIvvEEEERKT_S5_S5_T0_, symObjAddr: 0x8B74C, symBinAddr: 0x10008EB04, symSize: 0x54 }
  - { offset: 0x1B351D, size: 0x8, addend: 0x0, symName: __ZNSt3__119__allocate_at_leastB8ue170006INS_9allocatorIfEEEENS_19__allocation_resultINS_16allocator_traitsIT_E7pointerEEERS5_m, symObjAddr: 0x8B8B0, symBinAddr: 0x10008EC68, symSize: 0x40 }
  - { offset: 0x1B3560, size: 0x8, addend: 0x0, symName: __ZNSt3__117__libcpp_allocateB8ue170006Emm, symObjAddr: 0x8BA34, symBinAddr: 0x10008EDEC, symSize: 0x28 }
  - { offset: 0x1B359D, size: 0x8, addend: 0x0, symName: __ZNSt3__121__libcpp_operator_newB8ue170006IJmEEEPvDpT_, symObjAddr: 0x8BA5C, symBinAddr: 0x10008EE14, symSize: 0x24 }
  - { offset: 0x1B35D6, size: 0x8, addend: 0x0, symName: __ZNSt3__142__uninitialized_allocator_move_if_noexceptB8ue170006INS_9allocatorIfEENS_16reverse_iteratorIPfEES5_fvEET1_RT_T0_S9_S6_, symObjAddr: 0x8BAE4, symBinAddr: 0x10008EE9C, symSize: 0x78 }
  - { offset: 0x1B3653, size: 0x8, addend: 0x0, symName: __ZNSt3__14swapB8ue170006IPfEENS_9enable_ifIXaasr21is_move_constructibleIT_EE5valuesr18is_move_assignableIS3_EE5valueEvE4typeERS3_S6_, symObjAddr: 0x8BBA8, symBinAddr: 0x10008EF60, symSize: 0x3C }
  - { offset: 0x1B36A4, size: 0x8, addend: 0x0, symName: __ZNSt3__14moveB8ue170006INS_16reverse_iteratorIPfEES3_EET0_T_S5_S4_, symObjAddr: 0x8BC90, symBinAddr: 0x10008F048, symSize: 0x78 }
  - { offset: 0x1B36FE, size: 0x8, addend: 0x0, symName: __ZNSt3__16__moveB8ue170006INS_17_ClassicAlgPolicyENS_16reverse_iteratorIPfEES4_S4_EENS_4pairIT0_T2_EES6_T1_S7_, symObjAddr: 0x8BD08, symBinAddr: 0x10008F0C0, symSize: 0x64 }
  - { offset: 0x1B376A, size: 0x8, addend: 0x0, symName: __ZNSt3__123__dispatch_copy_or_moveB8ue170006INS_17_ClassicAlgPolicyENS_11__move_loopIS1_EENS_14__move_trivialENS_16reverse_iteratorIPfEES7_S7_EENS_4pairIT2_T4_EES9_T3_SA_, symObjAddr: 0x8BD6C, symBinAddr: 0x10008F124, symSize: 0x64 }
  - { offset: 0x1B37E8, size: 0x8, addend: 0x0, symName: __ZNSt3__121__unwrap_and_dispatchB8ue170006INS_10__overloadINS_11__move_loopINS_17_ClassicAlgPolicyEEENS_14__move_trivialEEENS_16reverse_iteratorIPfEES9_S9_Li0EEENS_4pairIT0_T2_EESB_T1_SC_, symObjAddr: 0x8BDD0, symBinAddr: 0x10008F188, symSize: 0x12C }
  - { offset: 0x1B3879, size: 0x8, addend: 0x0, symName: __ZNSt3__114__unwrap_rangeB8ue170006INS_16reverse_iteratorIPfEES3_EENS_4pairIT0_S5_EET_S7_, symObjAddr: 0x8BEFC, symBinAddr: 0x10008F2B4, symSize: 0x84 }
  - { offset: 0x1B3A33, size: 0x8, addend: 0x0, symName: __ZNSt3__113__unwrap_iterB8ue170006INS_16reverse_iteratorIPfEENS_18__unwrap_iter_implIS3_Lb0EEELi0EEEDTclsrT0_8__unwrapclsr3stdE7declvalIT_EEEES7_, symObjAddr: 0x8C020, symBinAddr: 0x10008F3D8, symSize: 0x44 }
  - { offset: 0x1B3A78, size: 0x8, addend: 0x0, symName: __ZNSt3__19make_pairB8ue170006INS_16reverse_iteratorIPfEES3_EENS_4pairINS_18__unwrap_ref_decayIT_E4typeENS5_IT0_E4typeEEEOS6_OS9_, symObjAddr: 0x8C064, symBinAddr: 0x10008F41C, symSize: 0x38 }
  - { offset: 0x1B3AC7, size: 0x8, addend: 0x0, symName: __ZNSt3__114__rewrap_rangeB8ue170006INS_16reverse_iteratorIPfEES3_EET_S4_T0_, symObjAddr: 0x8C09C, symBinAddr: 0x10008F454, symSize: 0x5C }
  - { offset: 0x1B3B13, size: 0x8, addend: 0x0, symName: __ZNSt3__113__rewrap_iterB8ue170006INS_16reverse_iteratorIPfEES3_NS_18__unwrap_iter_implIS3_Lb0EEEEET_S6_T0_, symObjAddr: 0x8C0F8, symBinAddr: 0x10008F4B0, symSize: 0x74 }
  - { offset: 0x1B3B68, size: 0x8, addend: 0x0, symName: __ZNSt3__1neB8ue170006IPfS1_EEbRKNS_16reverse_iteratorIT_EERKNS2_IT0_EE, symObjAddr: 0x8C16C, symBinAddr: 0x10008F524, symSize: 0x48 }
  - { offset: 0x1B3C99, size: 0x8, addend: 0x0, symName: __ZNSt3__14sortB8ue170006INS_11__wrap_iterIPfEENS_6__lessIvvEEEEvT_S6_T0_, symObjAddr: 0x8C580, symBinAddr: 0x10008F938, symSize: 0x40 }
  - { offset: 0x1B3CF3, size: 0x8, addend: 0x0, symName: __ZNSt3__111__sort_implB8ue170006INS_17_ClassicAlgPolicyENS_11__wrap_iterIPfEENS_6__lessIvvEEEEvT0_S7_RT1_, symObjAddr: 0x8C5C0, symBinAddr: 0x10008F978, symSize: 0xA8 }
  - { offset: 0x1B3D56, size: 0x8, addend: 0x0, symName: __ZNSt3__123__debug_randomize_rangeB8ue170006INS_17_ClassicAlgPolicyENS_11__wrap_iterIPfEES4_EEvT0_T1_, symObjAddr: 0x8C668, symBinAddr: 0x10008FA20, symSize: 0x14 }
  - { offset: 0x1B3DA7, size: 0x8, addend: 0x0, symName: __ZNSt3__115__sort_dispatchB8ue170006INS_17_ClassicAlgPolicyEfLi0EEEvPT0_S3_RNS_6__lessIvvEE, symObjAddr: 0x8C67C, symBinAddr: 0x10008FA34, symSize: 0x34 }
  - { offset: 0x1B3E13, size: 0x8, addend: 0x0, symName: __ZNSt3__113__unwrap_iterB8ue170006INS_11__wrap_iterIPfEENS_18__unwrap_iter_implIS3_Lb1EEELi0EEEDTclsrT0_8__unwrapclsr3stdE7declvalIT_EEEES7_, symObjAddr: 0x8C6B0, symBinAddr: 0x10008FA68, symSize: 0x2C }
  - { offset: 0x1B3E58, size: 0x8, addend: 0x0, symName: __ZNSt3__135__check_strict_weak_ordering_sortedB8ue170006IPfNS_6__lessIvvEEEEvT_S4_RT0_, symObjAddr: 0x8C6DC, symBinAddr: 0x10008FA94, symSize: 0x18 }
  - { offset: 0x1B3F01, size: 0x8, addend: 0x0, symName: __ZNSt3__112__to_addressB8ue170006INS_11__wrap_iterIPfEEvEEu7__decayIDTclsr19__to_address_helperIT_EE6__callclsr3stdE7declvalIRKS4_EEEEES6_, symObjAddr: 0x8C71C, symBinAddr: 0x10008FAD4, symSize: 0x24 }
  - { offset: 0x1B3FDD, size: 0x8, addend: 0x0, symName: __ZNSt3__112__to_addressB8ue170006IKcEEPT_S3_, symObjAddr: 0x8C978, symBinAddr: 0x10008FD30, symSize: 0x14 }
  - { offset: 0x1B4045, size: 0x8, addend: 0x0, symName: __ZNSt3__116__pad_and_outputB8ue170006IcNS_11char_traitsIcEEEENS_19ostreambuf_iteratorIT_T0_EES6_PKS4_S8_S8_RNS_8ios_baseES4_, symObjAddr: 0x8CD4C, symBinAddr: 0x100090104, symSize: 0x240 }
  - { offset: 0x1B4115, size: 0x8, addend: 0x0, symName: __ZNSt3__19use_facetB8ue170006INS_5ctypeIcEEEERKT_RKNS_6localeE, symObjAddr: 0x8D3D0, symBinAddr: 0x100090788, symSize: 0x2C }
  - { offset: 0x1B45EC, size: 0x8, addend: 0x0, symName: __ZNSt3__118__constexpr_strlenB8ue170006EPKc, symObjAddr: 0x8D468, symBinAddr: 0x100090820, symSize: 0x24 }
  - { offset: 0x1B4618, size: 0x8, addend: 0x0, symName: __ZNSt3__112__to_addressB8ue170006IiEEPT_S2_, symObjAddr: 0x8D938, symBinAddr: 0x100090CF0, symSize: 0x14 }
  - { offset: 0x1B464D, size: 0x8, addend: 0x0, symName: __ZNSt3__119__allocate_at_leastB8ue170006INS_9allocatorIiEEEENS_19__allocation_resultINS_16allocator_traitsIT_E7pointerEEERS5_m, symObjAddr: 0x8E27C, symBinAddr: 0x100091634, symSize: 0x40 }
  - { offset: 0x1B4690, size: 0x8, addend: 0x0, symName: __ZNSt3__142__uninitialized_allocator_move_if_noexceptB8ue170006INS_9allocatorIiEENS_16reverse_iteratorIPiEES5_ivEET1_RT_T0_S9_S6_, symObjAddr: 0x8E430, symBinAddr: 0x1000917E8, symSize: 0x78 }
  - { offset: 0x1B470D, size: 0x8, addend: 0x0, symName: __ZNSt3__14swapB8ue170006IPiEENS_9enable_ifIXaasr21is_move_constructibleIT_EE5valuesr18is_move_assignableIS3_EE5valueEvE4typeERS3_S6_, symObjAddr: 0x8E4F4, symBinAddr: 0x1000918AC, symSize: 0x3C }
  - { offset: 0x1B475E, size: 0x8, addend: 0x0, symName: __ZNSt3__14moveB8ue170006INS_16reverse_iteratorIPiEES3_EET0_T_S5_S4_, symObjAddr: 0x8E5DC, symBinAddr: 0x100091994, symSize: 0x78 }
  - { offset: 0x1B47B8, size: 0x8, addend: 0x0, symName: __ZNSt3__16__moveB8ue170006INS_17_ClassicAlgPolicyENS_16reverse_iteratorIPiEES4_S4_EENS_4pairIT0_T2_EES6_T1_S7_, symObjAddr: 0x8E654, symBinAddr: 0x100091A0C, symSize: 0x64 }
  - { offset: 0x1B4824, size: 0x8, addend: 0x0, symName: __ZNSt3__123__dispatch_copy_or_moveB8ue170006INS_17_ClassicAlgPolicyENS_11__move_loopIS1_EENS_14__move_trivialENS_16reverse_iteratorIPiEES7_S7_EENS_4pairIT2_T4_EES9_T3_SA_, symObjAddr: 0x8E6B8, symBinAddr: 0x100091A70, symSize: 0x64 }
  - { offset: 0x1B48A2, size: 0x8, addend: 0x0, symName: __ZNSt3__121__unwrap_and_dispatchB8ue170006INS_10__overloadINS_11__move_loopINS_17_ClassicAlgPolicyEEENS_14__move_trivialEEENS_16reverse_iteratorIPiEES9_S9_Li0EEENS_4pairIT0_T2_EESB_T1_SC_, symObjAddr: 0x8E71C, symBinAddr: 0x100091AD4, symSize: 0x12C }
  - { offset: 0x1B4933, size: 0x8, addend: 0x0, symName: __ZNSt3__114__unwrap_rangeB8ue170006INS_16reverse_iteratorIPiEES3_EENS_4pairIT0_S5_EET_S7_, symObjAddr: 0x8E848, symBinAddr: 0x100091C00, symSize: 0x84 }
  - { offset: 0x1B4A53, size: 0x8, addend: 0x0, symName: __ZNSt3__113__unwrap_iterB8ue170006INS_16reverse_iteratorIPiEENS_18__unwrap_iter_implIS3_Lb0EEELi0EEEDTclsrT0_8__unwrapclsr3stdE7declvalIT_EEEES7_, symObjAddr: 0x8E96C, symBinAddr: 0x100091D24, symSize: 0x44 }
  - { offset: 0x1B4A98, size: 0x8, addend: 0x0, symName: __ZNSt3__19make_pairB8ue170006INS_16reverse_iteratorIPiEES3_EENS_4pairINS_18__unwrap_ref_decayIT_E4typeENS5_IT0_E4typeEEEOS6_OS9_, symObjAddr: 0x8E9B0, symBinAddr: 0x100091D68, symSize: 0x38 }
  - { offset: 0x1B4AE7, size: 0x8, addend: 0x0, symName: __ZNSt3__114__rewrap_rangeB8ue170006INS_16reverse_iteratorIPiEES3_EET_S4_T0_, symObjAddr: 0x8E9E8, symBinAddr: 0x100091DA0, symSize: 0x5C }
  - { offset: 0x1B4B33, size: 0x8, addend: 0x0, symName: __ZNSt3__113__rewrap_iterB8ue170006INS_16reverse_iteratorIPiEES3_NS_18__unwrap_iter_implIS3_Lb0EEEEET_S6_T0_, symObjAddr: 0x8EA44, symBinAddr: 0x100091DFC, symSize: 0x74 }
  - { offset: 0x1B4B88, size: 0x8, addend: 0x0, symName: __ZNSt3__1neB8ue170006IPiS1_EEbRKNS_16reverse_iteratorIT_EERKNS2_IT0_EE, symObjAddr: 0x8EAB8, symBinAddr: 0x100091E70, symSize: 0x48 }
  - { offset: 0x1B5BD1, size: 0x8, addend: 0x0, symName: __ZSt28__throw_bad_array_new_lengthB8ue170006v, symObjAddr: 0x8BA00, symBinAddr: 0x10008EDB8, symSize: 0x34 }
  - { offset: 0x1B5CB8, size: 0x8, addend: 0x0, symName: __ZN5Eigen8internal32triangular_matrix_vector_productIlLi6EdLb0EdLb0ELi1ELi0EE3runEllPKdlS4_lPdlRS3_, symObjAddr: 0x3A1AC, symBinAddr: 0x10003D564, symSize: 0x4C0 }
  - { offset: 0x1B5CD8, size: 0x8, addend: 0x0, symName: __ZZN5Eigen8internal32triangular_matrix_vector_productIlLi6EdLb0EdLb0ELi1ELi0EE3runEllPKdlS4_lPdlRS3_E10PanelWidth, symObjAddr: 0x92590, symBinAddr: 0x10009ECE8, symSize: 0x0 }
  - { offset: 0x1BC0FA, size: 0x8, addend: 0x0, symName: __ZN5Eigen8internal21dense_assignment_loopINS0_31generic_dense_assignment_kernelINS0_9evaluatorINS_6MatrixIdLin1ELin1ELi0ELin1ELin1EEEEES6_NS0_9assign_opIddEELi0EEELi3ELi0EE3runERS9_, symObjAddr: 0x3258, symBinAddr: 0x100006610, symSize: 0xA8 }
  - { offset: 0x1BC55F, size: 0x8, addend: 0x0, symName: __ZN5Eigen8internal21dense_assignment_loopINS0_31generic_dense_assignment_kernelINS0_9evaluatorINS_6MatrixIdLin1ELin1ELi0ELin1ELin1EEEEENS3_INS_13CwiseBinaryOpINS0_18scalar_quotient_opIddEEKS5_KNS_14CwiseNullaryOpINS0_18scalar_constant_opIdEESA_EEEEEENS0_9assign_opIddEELi0EEELi3ELi0EE3runERSK_, symObjAddr: 0x9BB8, symBinAddr: 0x10000CF70, symSize: 0xA8 }
  - { offset: 0x1BDBE4, size: 0x8, addend: 0x0, symName: __ZN5Eigen8internal21dense_assignment_loopINS0_31generic_dense_assignment_kernelINS0_9evaluatorINS_5BlockINS4_INS4_INS_6MatrixIdLin1ELin1ELi0ELin1ELin1EEELin1ELi1ELb1EEELin1ELi1ELb0EEELin1ELi1ELb0EEEEENS3_INS_14CwiseNullaryOpINS0_18scalar_constant_opIdEENS5_IdLin1ELi1ELi0ELin1ELi1EEEEEEENS0_9assign_opIddEELi0EEELi3ELi0EE3runERSJ_, symObjAddr: 0xE778, symBinAddr: 0x100011B30, symSize: 0xC0 }
  - { offset: 0x1BDD65, size: 0x8, addend: 0x0, symName: __ZN5Eigen8internal21dense_assignment_loopINS0_31generic_dense_assignment_kernelINS0_9evaluatorINS_5BlockINS4_INS4_INS_6MatrixIdLin1ELin1ELi0ELin1ELin1EEELin1ELi1ELb1EEELin1ELi1ELb0EEELin1ELi1ELb0EEEEENS3_INS_13CwiseBinaryOpINS0_18scalar_quotient_opIddEEKNS4_IKS8_Lin1ELi1ELb0EEEKNS_14CwiseNullaryOpINS0_18scalar_constant_opIdEEKNS5_IdLin1ELi1ELi0ELin1ELi1EEEEEEEEENS0_9assign_opIddEELi0EEELi3ELi0EE3runERSS_, symObjAddr: 0xF930, symBinAddr: 0x100012CE8, symSize: 0xC0 }
  - { offset: 0x1BF681, size: 0x8, addend: 0x0, symName: __ZN5Eigen8internal21dense_assignment_loopINS0_31generic_dense_assignment_kernelINS0_9evaluatorINS_5BlockINS_6MatrixIdLin1ELin1ELi0ELin1ELin1EEELin1ELin1ELb0EEEEENS3_INS_14CwiseNullaryOpINS0_18scalar_constant_opIdEES6_EEEENS0_13mul_assign_opIddEELi0EEELi4ELi0EE3runERSG_, symObjAddr: 0x1109C, symBinAddr: 0x100014454, symSize: 0x214 }
  - { offset: 0x1BF877, size: 0x8, addend: 0x0, symName: __ZN5Eigen8internal21dense_assignment_loopINS0_31generic_dense_assignment_kernelINS0_9evaluatorINS_3MapINS_6MatrixIdLi1ELin1ELi1ELi1ELin1EEELi0ENS_6StrideILi0ELi0EEEEEEENS3_INS_14CwiseNullaryOpINS0_18scalar_constant_opIdEES6_EEEENS0_9assign_opIddEELi0EEELi3ELi0EE3runERSI_, symObjAddr: 0x13314, symBinAddr: 0x1000166CC, symSize: 0xC0 }
  - { offset: 0x1C04DE, size: 0x8, addend: 0x0, symName: __ZN5Eigen8internal29general_matrix_vector_productIldNS0_22const_blas_data_mapperIdlLi1EEELi1ELb0EdNS2_IdlLi0EEELb0ELi0EE3runEllRKS3_RKS4_Pdld, symObjAddr: 0x16B08, symBinAddr: 0x100019EC0, symSize: 0x17A4 }
  - { offset: 0x1C1AC8, size: 0x8, addend: 0x0, symName: __ZN5Eigen8internal21dense_assignment_loopINS0_31generic_dense_assignment_kernelINS0_9evaluatorINS_3MapINS_6MatrixIdLin1ELi1ELi0ELin1ELi1EEELi16ENS_6StrideILi0ELi0EEEEEEENS3_INS_13CwiseBinaryOpINS0_17scalar_product_opIddEEKNS_14CwiseNullaryOpINS0_18scalar_constant_opIdEEKS6_EEKNS_5BlockINSK_INS5_IdLin1ELin1ELi0ELin1ELin1EEELin1ELi1ELb1EEELin1ELi1ELb0EEEEEEENS0_9assign_opIddEELi0EEELi3ELi0EE3runERST_, symObjAddr: 0x1BF98, symBinAddr: 0x10001F350, symSize: 0xA8 }
  - { offset: 0x1C1DE3, size: 0x8, addend: 0x0, symName: __ZN5Eigen8internal21dense_assignment_loopINS0_31generic_dense_assignment_kernelINS0_9evaluatorINS_5BlockINS4_INS4_INS_6MatrixIdLin1ELin1ELi0ELin1ELin1EEELin1ELin1ELb0EEELin1ELin1ELb0EEELin1ELi1ELb1EEEEENS3_INS_13CwiseBinaryOpINS0_17scalar_product_opIddEEKNS_14CwiseNullaryOpINS0_18scalar_constant_opIdEEKNS5_IdLin1ELi1ELi0ELin1ELi1EEEEEKNS_3MapISH_Li16ENS_6StrideILi0ELi0EEEEEEEEENS0_13sub_assign_opIddEELi0EEELi3ELi0EE3runERSU_, symObjAddr: 0x1CEBC, symBinAddr: 0x100020274, symSize: 0xC0 }
  - { offset: 0x1C1EF6, size: 0x8, addend: 0x0, symName: __ZN5Eigen8internal21dense_assignment_loopINS0_31generic_dense_assignment_kernelINS0_9evaluatorINS_5BlockINS_6MatrixIdLin1ELin1ELi0ELin1ELin1EEELin1ELin1ELb1EEEEENS3_INS_14CwiseNullaryOpINS0_18scalar_constant_opIdEES6_EEEENS0_13mul_assign_opIddEELi0EEELi3ELi0EE3runERSG_, symObjAddr: 0x1EF58, symBinAddr: 0x100022310, symSize: 0xC0 }
  - { offset: 0x1C1FFA, size: 0x8, addend: 0x0, symName: __ZN5Eigen8internal21dense_assignment_loopINS0_31generic_dense_assignment_kernelINS0_9evaluatorINS_3MapINS_6MatrixIdLin1ELi1ELi0ELin1ELi1EEELi0ENS_6StrideILi0ELi0EEEEEEENS3_INS_14CwiseNullaryOpINS0_18scalar_constant_opIdEES6_EEEENS0_9assign_opIddEELi0EEELi3ELi0EE3runERSI_, symObjAddr: 0x2079C, symBinAddr: 0x100023B54, symSize: 0xC0 }
  - { offset: 0x1C2879, size: 0x8, addend: 0x0, symName: __ZN5Eigen8internal29general_matrix_vector_productIldNS0_22const_blas_data_mapperIdlLi0EEELi0ELb0EdNS2_IdlLi1EEELb0ELi0EE3runEllRKS3_RKS4_Pdld, symObjAddr: 0x233E4, symBinAddr: 0x10002679C, symSize: 0x15D4 }
  - { offset: 0x1C3805, size: 0x8, addend: 0x0, symName: __ZN5Eigen8internal21dense_assignment_loopINS0_31generic_dense_assignment_kernelINS0_9evaluatorINS_3MapINS_6MatrixIdLin1ELi1ELi0ELin1ELi1EEELi0ENS_6StrideILi0ELi0EEEEEEENS3_INS_5BlockINSB_INS5_IdLin1ELin1ELi0ELin1ELin1EEELin1ELin1ELb1EEELin1ELi1ELb1EEEEENS0_13add_assign_opIddEELi0EEELi3ELi0EE3runERSI_, symObjAddr: 0x250A0, symBinAddr: 0x100028458, symSize: 0xC0 }
  - { offset: 0x1C3E3B, size: 0x8, addend: 0x0, symName: __ZN5Eigen8internal21dense_assignment_loopINS0_31generic_dense_assignment_kernelINS0_9evaluatorINS_5BlockINS4_INS_6MatrixIdLin1ELin1ELi0ELin1ELin1EEELin1ELin1ELb1EEELin1ELi1ELb1EEEEENS3_INS_13CwiseBinaryOpINS0_17scalar_product_opIddEEKNS_14CwiseNullaryOpINS0_18scalar_constant_opIdEEKNS5_IdLin1ELi1ELi0ELin1ELi1EEEEEKNS_3MapISG_Li0ENS_6StrideILi0ELi0EEEEEEEEENS0_13sub_assign_opIddEELi0EEELi3ELi0EE3runERST_, symObjAddr: 0x25CB8, symBinAddr: 0x100029070, symSize: 0xC0 }
  - { offset: 0x1C3F03, size: 0x8, addend: 0x0, symName: __ZN5Eigen8internal21dense_assignment_loopINS0_31generic_dense_assignment_kernelINS0_9evaluatorINS_3MapINS_6MatrixIdLin1ELi1ELi0ELin1ELi1EEELi16ENS_6StrideILi0ELi0EEEEEEENS3_INS_13CwiseBinaryOpINS0_17scalar_product_opIddEEKNS_14CwiseNullaryOpINS0_18scalar_constant_opIdEEKS6_EEKNS4_IS6_Li0ES8_EEEEEENS0_9assign_opIddEELi0EEELi3ELi0EE3runERSQ_, symObjAddr: 0x273B4, symBinAddr: 0x10002A76C, symSize: 0xA8 }
  - { offset: 0x1C4016, size: 0x8, addend: 0x0, symName: __ZN5Eigen8internal21dense_assignment_loopINS0_31generic_dense_assignment_kernelINS0_9evaluatorINS_5BlockINS4_INS4_INS_6MatrixIdLin1ELin1ELi0ELin1ELin1EEELin1ELin1ELb1EEELin1ELin1ELb0EEELin1ELi1ELb1EEEEENS3_INS_13CwiseBinaryOpINS0_17scalar_product_opIddEEKNS_14CwiseNullaryOpINS0_18scalar_constant_opIdEEKNS5_IdLin1ELi1ELi0ELin1ELi1EEEEEKNS_3MapISH_Li16ENS_6StrideILi0ELi0EEEEEEEEENS0_13sub_assign_opIddEELi0EEELi3ELi0EE3runERSU_, symObjAddr: 0x27970, symBinAddr: 0x10002AD28, symSize: 0xC0 }
  - { offset: 0x1C4C41, size: 0x8, addend: 0x0, symName: __ZN5Eigen8internal21dense_assignment_loopINS0_31generic_dense_assignment_kernelINS0_9evaluatorINS_3MapINS_6MatrixIdLin1ELi1ELi0ELin1ELi1EEELi0ENS_6StrideILi0ELi0EEEEEEENS3_INS_5BlockINSB_INS5_IdLin1ELin1ELi0ELin1ELin1EEELin1ELin1ELb0EEELin1ELi1ELb1EEEEENS0_13add_assign_opIddEELi0EEELi3ELi0EE3runERSI_, symObjAddr: 0x2E0A8, symBinAddr: 0x100031460, symSize: 0xC0 }
  - { offset: 0x1C4D09, size: 0x8, addend: 0x0, symName: __ZN5Eigen8internal21dense_assignment_loopINS0_31generic_dense_assignment_kernelINS0_9evaluatorINS_5BlockINS4_INS_6MatrixIdLin1ELin1ELi0ELin1ELin1EEELin1ELin1ELb0EEELin1ELi1ELb1EEEEENS3_INS_13CwiseBinaryOpINS0_17scalar_product_opIddEEKNS_14CwiseNullaryOpINS0_18scalar_constant_opIdEEKNS5_IdLin1ELi1ELi0ELin1ELi1EEEEEKNS_3MapISG_Li0ENS_6StrideILi0ELi0EEEEEEEEENS0_13sub_assign_opIddEELi0EEELi3ELi0EE3runERST_, symObjAddr: 0x2E9DC, symBinAddr: 0x100031D94, symSize: 0xC0 }
  - { offset: 0x1C5010, size: 0x8, addend: 0x0, symName: __ZN5Eigen8internal21dense_assignment_loopINS0_31generic_dense_assignment_kernelINS0_9evaluatorINS_3MapINS_6MatrixIdLin1ELi1ELi0ELin1ELi1EEELi16ENS_6StrideILi0ELi0EEEEEEENS3_INS_13CwiseBinaryOpINS0_17scalar_product_opIddEEKNS_14CwiseNullaryOpINS0_18scalar_constant_opIdEEKS6_EEKNS_5BlockIKNS5_IdLin1ELin1ELi0ELin1ELin1EEELin1ELi1ELb0EEEEEEENS0_9assign_opIddEELi0EEELi3ELi0EE3runERST_, symObjAddr: 0x337F0, symBinAddr: 0x100036BA8, symSize: 0xA8 }
  - { offset: 0x1C50D8, size: 0x8, addend: 0x0, symName: __ZN5Eigen8internal21dense_assignment_loopINS0_31generic_dense_assignment_kernelINS0_9evaluatorINS_5BlockINS4_INS_6MatrixIdLin1ELin1ELi0ELin1ELin1EEELin1ELi1ELb1EEELin1ELi1ELb0EEEEENS3_INS_14CwiseNullaryOpINS0_18scalar_constant_opIdEENS5_IdLin1ELi1ELi0ELin1ELi1EEEEEEENS0_9assign_opIddEELi0EEELi3ELi0EE3runERSI_, symObjAddr: 0x34468, symBinAddr: 0x100037820, symSize: 0xC0 }
  - { offset: 0x1C5B55, size: 0x8, addend: 0x0, symName: __ZN5Eigen8internal21dense_assignment_loopINS0_31generic_dense_assignment_kernelINS0_9evaluatorINS_5BlockINS4_INS_6MatrixIdLin1ELin1ELi1ELin1ELin1EEELi1ELin1ELb1EEELi1ELin1ELb0EEEEENS3_INS_14CwiseNullaryOpINS0_18scalar_constant_opIdEENS5_IdLi1ELin1ELi1ELi1ELin1EEEEEEENS0_9assign_opIddEELi0EEELi3ELi0EE3runERSI_, symObjAddr: 0x39340, symBinAddr: 0x10003C6F8, symSize: 0xC0 }
  - { offset: 0x1C673F, size: 0x8, addend: 0x0, symName: __ZN5Eigen8internal29general_matrix_vector_productIldNS0_22const_blas_data_mapperIdlLi1EEELi1ELb0EdS3_Lb0ELi1EE3runEllRKS3_S6_Pdld, symObjAddr: 0x3B168, symBinAddr: 0x10003E520, symSize: 0x17A4 }
  - { offset: 0x1C8420, size: 0x8, addend: 0x0, symName: __ZN5Eigen8internal21dense_assignment_loopINS0_31generic_dense_assignment_kernelINS0_9evaluatorINS_5BlockINS_9TransposeINS4_INS4_INS_6MatrixIdLin1ELin1ELi1ELin1ELin1EEELi1ELin1ELb1EEELi1ELin1ELb0EEEEELin1ELi1ELb0EEEEENS3_INS_13CwiseBinaryOpINS0_17scalar_product_opIddEEKNS_14CwiseNullaryOpINS0_18scalar_constant_opIdEEKNS6_IdLin1ELi1ELi0ELin1ELi1EEEEEKNS4_IKNS5_IKNSD_ISF_KNSG_ISI_KNS6_IdLi1ELin1ELi1ELi1ELin1EEEEEKNS5_IKNS4_IKNS4_IKNS4_INS6_IdLin1ELin1ELi0ELin1ELin1EEELin1ELin1ELb0EEELin1ELi1ELb1EEELin1ELi1ELb0EEEEEEEEELin1ELi1ELb0EEEEEEENS0_13sub_assign_opIddEELi0EEELi3ELi0EE3runERS1A_, symObjAddr: 0x411FC, symBinAddr: 0x1000445B4, symSize: 0xC0 }
  - { offset: 0x1C86DC, size: 0x8, addend: 0x0, symName: __ZN5Eigen8internal21dense_assignment_loopINS0_31generic_dense_assignment_kernelINS0_9evaluatorINS_5BlockINS4_INS_6MatrixIdLin1ELin1ELi1ELin1ELin1EEELi1ELin1ELb1EEELi1ELin1ELb0EEEEENS3_INS_13CwiseBinaryOpINS0_17scalar_product_opIddEEKNS_14CwiseNullaryOpINS0_18scalar_constant_opIdEEKNS5_IdLi1ELin1ELi1ELi1ELin1EEEEEKS8_EEEENS0_13add_assign_opIddEELi0EEELi3ELi0EE3runERSP_, symObjAddr: 0x43658, symBinAddr: 0x100046A10, symSize: 0xC0 }
  - { offset: 0x1C917A, size: 0x8, addend: 0x0, symName: __ZN5Eigen8internal13gemm_pack_lhsIdlNS0_22const_blas_data_mapperIdlLi1EEELi6ELi2E19__simd128_float64_tLi1ELb0ELb0EEclEPdRKS3_llll, symObjAddr: 0x476A8, symBinAddr: 0x10004AA60, symSize: 0x878 }
  - { offset: 0x1C95FC, size: 0x8, addend: 0x0, symName: __ZN5Eigen8internal11gebp_kernelIddlNS0_16blas_data_mapperIdlLi0ELi0ELi1EEELi6ELi4ELb0ELb0EEclERKS3_PKdS8_llldllll, symObjAddr: 0x47F78, symBinAddr: 0x10004B330, symSize: 0x5408 }
  - { offset: 0x1CC183, size: 0x8, addend: 0x0, symName: __ZN5Eigen8internal21dense_assignment_loopINS0_31generic_dense_assignment_kernelINS0_9evaluatorINS_5BlockINS_6MatrixIdLin1ELin1ELi0ELin1ELin1EEELin1ELin1ELb0EEEEENS3_INS4_IKNS_13CwiseBinaryOpINS0_17scalar_product_opIddEEKNS_14CwiseNullaryOpINS0_18scalar_constant_opIdEEKS6_EEKS7_EELin1ELin1ELb0EEEEENS0_13sub_assign_opIddEELi0EEELi4ELi0EE3runERSP_, symObjAddr: 0x5152C, symBinAddr: 0x1000548E4, symSize: 0x214 }
  - { offset: 0x1CC86D, size: 0x8, addend: 0x0, symName: __ZN5Eigen8internal13gemm_pack_lhsIdlNS0_22const_blas_data_mapperIdlLi0EEELi6ELi2E19__simd128_float64_tLi0ELb0ELb0EEclEPdRKS3_llll, symObjAddr: 0x562B4, symBinAddr: 0x10005966C, symSize: 0x73C }
  - { offset: 0x1CD268, size: 0x8, addend: 0x0, symName: __ZN5Eigen8internal21dense_assignment_loopINS0_31generic_dense_assignment_kernelINS0_9evaluatorINS_5BlockINS4_INS_6MatrixIdLin1ELin1ELi0ELin1ELin1EEELin1ELin1ELb0EEELin1ELin1ELb0EEEEENS3_INS4_IKNS_13CwiseBinaryOpINS0_17scalar_product_opIddEEKNS_14CwiseNullaryOpINS0_18scalar_constant_opIdEEKS6_EESG_EELin1ELin1ELb0EEEEENS0_13sub_assign_opIddEELi0EEELi4ELi0EE3runERSP_, symObjAddr: 0x5AABC, symBinAddr: 0x10005DE74, symSize: 0x214 }
  - { offset: 0x1CD986, size: 0x8, addend: 0x0, symName: __ZN5Eigen8internal18redux_vec_unrollerINS0_13scalar_sum_opIddEENS0_15redux_evaluatorINS_12CwiseUnaryOpINS0_14scalar_abs2_opIdEEKNS_5BlockIKNS_6MatrixIdLi3ELi1ELi0ELi3ELi1EEELi2ELi1ELb0EEEEEEELi0ELi1EE3runI19__simd128_float64_tEET_RKSF_RKS3_, symObjAddr: 0x64768, symBinAddr: 0x100067B20, symSize: 0x30 }
  - { offset: 0x1CE1D7, size: 0x8, addend: 0x0, symName: __ZN5Eigen8internal18redux_vec_unrollerINS0_13scalar_sum_opIddEENS0_15redux_evaluatorINS_13CwiseBinaryOpINS0_17scalar_product_opIddEEKNS_9TransposeIKNS_5BlockIKNS8_IKNS_6MatrixIdLi2ELi1ELi0ELi2ELi1EEEEELi1ELi2ELb1EEEEEKNS9_IKNS9_INS9_INSA_IdLin1ELin1ELi0ELin1ELin1EEELin1ELin1ELb0EEELi2ELin1ELb0EEELi2ELi1ELb1EEEEEEELi0ELi1EE3runI19__simd128_float64_tEET_RKSQ_RKS3_, symObjAddr: 0x6987C, symBinAddr: 0x10006CC34, symSize: 0x30 }
  - { offset: 0x1CECBC, size: 0x8, addend: 0x0, symName: __ZN5Eigen8internal21dense_assignment_loopINS0_31generic_dense_assignment_kernelINS0_9evaluatorINS_3MapINS_6MatrixIdLin1ELi1ELi0ELin1ELi1EEELi0ENS_6StrideILi0ELi0EEEEEEENS3_INS_7ProductINS_5BlockINSC_INS5_IdLin1ELin1ELi0ELin1ELin1EEELin1ELin1ELb0EEELin1ELi2ELb0EEENS5_IdLi2ELi1ELi0ELi2ELi1EEELi1EEEEENS0_9assign_opIddEELi0EEELi3ELi0EE3runERSL_, symObjAddr: 0x6C9A8, symBinAddr: 0x10006FD60, symSize: 0xC0 }
  - { offset: 0x1CF293, size: 0x8, addend: 0x0, symName: __ZN5Eigen8internal21dense_assignment_loopINS0_31generic_dense_assignment_kernelINS0_9evaluatorINS_5BlockINS4_INS_6MatrixIdLin1ELin1ELi0ELin1ELin1EEELin1ELin1ELb0EEELin1ELi2ELb0EEEEENS3_INS_7ProductINS_13CwiseBinaryOpINS0_17scalar_product_opIddEEKNS_14CwiseNullaryOpINS0_18scalar_constant_opIdEEKNS5_IdLin1ELi1ELi0ELin1ELi1EEEEEKNS_3MapISH_Li0ENS_6StrideILi0ELi0EEEEEEENS_9TransposeIKNS5_IdLi2ELi1ELi0ELi2ELi1EEEEELi1EEEEENS0_13sub_assign_opIddEELi0EEELi4ELi0EE3runERSZ_, symObjAddr: 0x6FCB0, symBinAddr: 0x100073068, symSize: 0x214 }
  - { offset: 0x1D0B27, size: 0x8, addend: 0x0, symName: __ZN5Eigen8internal21dense_assignment_loopINS0_31generic_dense_assignment_kernelINS0_9evaluatorINS_3MapINS_6MatrixIdLin1ELi1ELi0ELin1ELi1EEELi0ENS_6StrideILi0ELi0EEEEEEENS3_INS_7ProductINS_5BlockINSC_INS5_IdLin1ELin1ELi0ELin1ELin1EEELin1ELin1ELb0EEELin1ELi1ELb0EEENS5_IdLi1ELi1ELi0ELi1ELi1EEELi1EEEEENS0_9assign_opIddEELi0EEELi3ELi0EE3runERSL_, symObjAddr: 0x7DF68, symBinAddr: 0x100081320, symSize: 0xC0 }
  - { offset: 0x1D10FE, size: 0x8, addend: 0x0, symName: __ZN5Eigen8internal21dense_assignment_loopINS0_31generic_dense_assignment_kernelINS0_9evaluatorINS_5BlockINS4_INS_6MatrixIdLin1ELin1ELi0ELin1ELin1EEELin1ELin1ELb0EEELin1ELi1ELb0EEEEENS3_INS_7ProductINS_13CwiseBinaryOpINS0_17scalar_product_opIddEEKNS_14CwiseNullaryOpINS0_18scalar_constant_opIdEEKNS5_IdLin1ELi1ELi0ELin1ELi1EEEEEKNS_3MapISH_Li0ENS_6StrideILi0ELi0EEEEEEENS_9TransposeIKNS5_IdLi1ELi1ELi0ELi1ELi1EEEEELi1EEEEENS0_13sub_assign_opIddEELi0EEELi3ELi0EE3runERSZ_, symObjAddr: 0x810A8, symBinAddr: 0x100084460, symSize: 0xC0 }
  - { offset: 0x1D1423, size: 0x8, addend: 0x0, symName: __ZN5Eigen8internal21dense_assignment_loopINS0_31generic_dense_assignment_kernelINS0_9evaluatorINS_6MatrixIdLin1ELin1ELi0ELin1ELin1EEEEENS3_INS_14CwiseNullaryOpINS0_18scalar_constant_opIdEES5_EEEENS0_13mul_assign_opIddEELi0EEELi3ELi0EE3runERSE_, symObjAddr: 0x82F70, symBinAddr: 0x100086328, symSize: 0xA8 }
  - { offset: 0x1D1A63, size: 0x8, addend: 0x0, symName: __ZN5Eigen8internal21dense_assignment_loopINS0_31generic_dense_assignment_kernelINS0_9evaluatorINS_5BlockINS4_INS_6MatrixIdLin1ELin1ELi0ELin1ELin1EEELin1ELi1ELb1EEELin1ELi1ELb0EEEEENS3_INS_14CwiseNullaryOpINS0_18scalar_constant_opIdEENS5_IdLin1ELi1ELi0ELin1ELi1EEEEEEENS0_13div_assign_opIddEELi0EEELi3ELi0EE3runERSI_, symObjAddr: 0x86868, symBinAddr: 0x100089C20, symSize: 0xC0 }
  - { offset: 0x1D1B2B, size: 0x8, addend: 0x0, symName: __ZN5Eigen8internal21dense_assignment_loopINS0_31generic_dense_assignment_kernelINS0_9evaluatorINS_5BlockINS_6MatrixIdLin1ELin1ELi0ELin1ELin1EEELin1ELin1ELb0EEEEENS3_INS_14CwiseNullaryOpINS0_18scalar_constant_opIdEES6_EEEENS0_13div_assign_opIddEELi0EEELi4ELi0EE3runERSG_, symObjAddr: 0x86FA4, symBinAddr: 0x10008A35C, symSize: 0x214 }
  - { offset: 0x1D1D4E, size: 0x8, addend: 0x0, symName: __ZN5Eigen8internal21dense_assignment_loopINS0_31generic_dense_assignment_kernelINS0_9evaluatorINS_5BlockINS_6MatrixIdLin1ELin1ELi0ELin1ELin1EEELin1ELi1ELb1EEEEENS3_INS5_IdLin1ELi1ELi0ELin1ELi1EEEEENS0_9assign_opIddEELi0EEELi3ELi0EE3runERSD_, symObjAddr: 0x89E08, symBinAddr: 0x10008D1C0, symSize: 0xC0 }
  - { offset: 0x1D261D, size: 0x8, addend: 0x0, symName: __ZN5Eigen8internal19gemv_dense_selectorILi2ELi1ELb1EE3runINS_9TransposeIKNS_5BlockINS5_INS_6MatrixIdLin1ELin1ELi0ELin1ELin1EEELin1ELin1ELb0EEELin1ELin1ELb0EEEEENS4_IKNS4_IKNS5_INS5_IS7_Lin1ELi1ELb1EEELin1ELi1ELb0EEEEEEENS4_INS_3MapINS6_IdLi1ELin1ELi1ELi1ELin1EEELi0ENS_6StrideILi0ELi0EEEEEEEEEvRKT_RKT0_RT1_RKNSU_6ScalarE, symObjAddr: 0x16358, symBinAddr: 0x100019710, symSize: 0x4E4 }
  - { offset: 0x1D3C6A, size: 0x8, addend: 0x0, symName: __ZN5Eigen8internal19gemv_dense_selectorILi2ELi1ELb1EE3runINS_9TransposeIKNS_5BlockINS5_INS_6MatrixIdLin1ELin1ELi0ELin1ELin1EEELin1ELin1ELb0EEELin1ELin1ELb0EEEEENS4_IKNS4_IKNS5_IKS7_Lin1ELi1ELb0EEEEEEENS4_INS_3MapINS6_IdLi1ELin1ELi1ELi1ELin1EEELi0ENS_6StrideILi0ELi0EEEEEEEEEvRKT_RKT0_RT1_RKNSU_6ScalarE, symObjAddr: 0x321D8, symBinAddr: 0x100035590, symSize: 0x4B4 }
  - { offset: 0x1D475D, size: 0x8, addend: 0x0, symName: __ZN5Eigen8internal13trmv_selectorILi6ELi1EE3runINS_9TransposeIKNS_5BlockIKNS5_INS_6MatrixIdLin1ELin1ELi0ELin1ELin1EEELin1ELin1ELb0EEELin1ELin1ELb0EEEEENS4_IKNS_13CwiseBinaryOpINS0_17scalar_product_opIddEEKNS_14CwiseNullaryOpINS0_18scalar_constant_opIdEEKNS6_IdLi1ELin1ELi1ELi1ELin1EEEEEKNS4_IKNS5_IKNS5_IS9_Lin1ELi1ELb1EEELin1ELi1ELb0EEEEEEEEENS4_INS5_INS5_INS6_IdLin1ELin1ELi1ELin1ELin1EEELi1ELin1ELb1EEELi1ELin1ELb0EEEEEEEvRKT_RKT0_RT1_RKNS16_6ScalarE, symObjAddr: 0x39B3C, symBinAddr: 0x10003CEF4, symSize: 0x420 }
  - { offset: 0x1D4FFC, size: 0x8, addend: 0x0, symName: __ZN5Eigen8internal23triangular_product_implILi6ELb1EKNS_9TransposeIKNS_5BlockINS_6MatrixIdLin1ELin1ELi0ELin1ELin1EEELin1ELin1ELb0EEEEELb0ES6_Lb0EE3runIS5_EEvRT_RS9_RS7_RKNSC_6ScalarE, symObjAddr: 0x447B4, symBinAddr: 0x100047B6C, symSize: 0x328 }
  - { offset: 0x1D56BF, size: 0x8, addend: 0x0, symName: __ZN5Eigen8internal23triangular_product_implILi5ELb1EKNS_5BlockINS_6MatrixIdLin1ELin1ELi0ELin1ELin1EEELin1ELin1ELb0EEELb0ES4_Lb0EE3runIS5_EEvRT_RS6_RKS4_RKNS9_6ScalarE, symObjAddr: 0x58A14, symBinAddr: 0x10005BDCC, symSize: 0x300 }
  - { offset: 0x1D6F69, size: 0x8, addend: 0x0, symName: __ZNSt3__16vectorIfNS_9allocatorIfEEE26__swap_out_circular_bufferERNS_14__split_bufferIfRS2_EE, symObjAddr: 0x8B324, symBinAddr: 0x10008E6DC, symSize: 0x110 }
  - { offset: 0x1D7205, size: 0x8, addend: 0x0, symName: __ZNSt3__16vectorIiNS_9allocatorIiEEE26__swap_out_circular_bufferERNS_14__split_bufferIiRS2_EE, symObjAddr: 0x8DF1C, symBinAddr: 0x1000912D4, symSize: 0x110 }
  - { offset: 0x1D726B, size: 0x8, addend: 0x0, symName: __ZN5Eigen8symbolic10SymbolExprINS_8internal17symbolic_last_tagEEC1Ev, symObjAddr: 0x0, symBinAddr: 0x1000033B8, symSize: 0x2C }
  - { offset: 0x1D7295, size: 0x8, addend: 0x0, symName: __ZNK5Eigen8symbolic8BaseExprINS0_10SymbolExprINS_8internal17symbolic_last_tagEEEEplILi1EEENS0_7AddExprIS5_NS0_9ValueExprINS3_8FixedIntIXT_EEEEEEESB_, symObjAddr: 0x2C, symBinAddr: 0x1000033E4, symSize: 0x48 }
  - { offset: 0x1D72D0, size: 0x8, addend: 0x0, symName: __ZNK5Eigen8internal8FixedIntILi1EEclEv, symObjAddr: 0x74, symBinAddr: 0x10000342C, symSize: 0x10 }
  - { offset: 0x1D72F6, size: 0x8, addend: 0x0, symName: __ZN5Eigen8internal5all_tC1Ev, symObjAddr: 0x84, symBinAddr: 0x10000343C, symSize: 0x2C }
  - { offset: 0x1D731F, size: 0x8, addend: 0x0, symName: __Z6eigen2PA100_ii, symObjAddr: 0xB0, symBinAddr: 0x100003468, symSize: 0x368 }
  - { offset: 0x1D73B0, size: 0x8, addend: 0x0, symName: __ZNSt3__16vectorIfNS_9allocatorIfEEEC1B8ue170006Ev, symObjAddr: 0x418, symBinAddr: 0x1000037D0, symSize: 0x2C }
  - { offset: 0x1D73DA, size: 0x8, addend: 0x0, symName: __ZN5Eigen6MatrixIdLin1ELin1ELi0ELin1ELin1EEC1IiiEERKT_RKT0_, symObjAddr: 0x444, symBinAddr: 0x1000037FC, symSize: 0x3C }
  - { offset: 0x1D7434, size: 0x8, addend: 0x0, symName: __ZN5Eigen6MatrixINSt3__17complexIdEELin1ELi1ELi0ELin1ELi1EEC1Ev, symObjAddr: 0x480, symBinAddr: 0x100003838, symSize: 0x2C }
  - { offset: 0x1D745E, size: 0x8, addend: 0x0, symName: __ZN5Eigen15DenseCoeffsBaseINS_6MatrixIdLin1ELin1ELi0ELin1ELin1EEELi1EEclEll, symObjAddr: 0x4AC, symBinAddr: 0x100003864, symSize: 0xF4 }
  - { offset: 0x1D74A2, size: 0x8, addend: 0x0, symName: __ZNK5Eigen10MatrixBaseINS_6MatrixIdLin1ELin1ELi0ELin1ELin1EEEE11eigenvaluesEv, symObjAddr: 0x5A0, symBinAddr: 0x100003958, symSize: 0x34 }
  - { offset: 0x1D74CA, size: 0x8, addend: 0x0, symName: __ZN5Eigen6MatrixINSt3__17complexIdEELin1ELi1ELi0ELin1ELi1EEaSEOS4_, symObjAddr: 0x5D4, symBinAddr: 0x10000398C, symSize: 0x34 }
  - { offset: 0x1D74FF, size: 0x8, addend: 0x0, symName: __ZN5Eigen6MatrixINSt3__17complexIdEELin1ELi1ELi0ELin1ELi1EED1Ev, symObjAddr: 0x608, symBinAddr: 0x1000039C0, symSize: 0x2C }
  - { offset: 0x1D752B, size: 0x8, addend: 0x0, symName: __ZNSt3__16vectorIfNS_9allocatorIfEEE5clearB8ue170006Ev, symObjAddr: 0x634, symBinAddr: 0x1000039EC, symSize: 0x44 }
  - { offset: 0x1D7560, size: 0x8, addend: 0x0, symName: __ZNSt3__16vectorIfNS_9allocatorIfEEE9push_backB8ue170006EOf, symObjAddr: 0x678, symBinAddr: 0x100003A30, symSize: 0x6C }
  - { offset: 0x1D7597, size: 0x8, addend: 0x0, symName: __ZN5Eigen15DenseCoeffsBaseINS_6MatrixINSt3__17complexIdEELin1ELi1ELi0ELin1ELi1EEELi1EEclEl, symObjAddr: 0x6E4, symBinAddr: 0x100003A9C, symSize: 0xA4 }
  - { offset: 0x1D75CC, size: 0x8, addend: 0x0, symName: __ZNKSt3__17complexIdE4realB8ue170006Ev, symObjAddr: 0x788, symBinAddr: 0x100003B40, symSize: 0x18 }
  - { offset: 0x1D75F2, size: 0x8, addend: 0x0, symName: __ZNSt3__16vectorIfNS_9allocatorIfEEE5beginB8ue170006Ev, symObjAddr: 0x7DC, symBinAddr: 0x100003B94, symSize: 0x30 }
  - { offset: 0x1D761A, size: 0x8, addend: 0x0, symName: __ZNSt3__16vectorIfNS_9allocatorIfEEE3endB8ue170006Ev, symObjAddr: 0x80C, symBinAddr: 0x100003BC4, symSize: 0x30 }
  - { offset: 0x1D7642, size: 0x8, addend: 0x0, symName: __ZNSt3__16vectorIfNS_9allocatorIfEEEixB8ue170006Em, symObjAddr: 0x83C, symBinAddr: 0x100003BF4, symSize: 0x24 }
  - { offset: 0x1D7679, size: 0x8, addend: 0x0, symName: __ZN5Eigen6MatrixIdLin1ELin1ELi0ELin1ELin1EED1Ev, symObjAddr: 0x860, symBinAddr: 0x100003C18, symSize: 0x2C }
  - { offset: 0x1D76A5, size: 0x8, addend: 0x0, symName: __ZNSt3__16vectorIfNS_9allocatorIfEEED1B8ue170006Ev, symObjAddr: 0x88C, symBinAddr: 0x100003C44, symSize: 0x2C }
  - { offset: 0x1D76CE, size: 0x8, addend: 0x0, symName: __Z5edgesPA100_ii, symObjAddr: 0x8B8, symBinAddr: 0x100003C70, symSize: 0xBC }
  - { offset: 0x1D7732, size: 0x8, addend: 0x0, symName: __Z8inputstri, symObjAddr: 0x974, symBinAddr: 0x100003D2C, symSize: 0xB0 }
  - { offset: 0x1D775E, size: 0x8, addend: 0x0, symName: __Z9outputstri, symObjAddr: 0xAA8, symBinAddr: 0x100003E60, symSize: 0x158 }
  - { offset: 0x1D778B, size: 0x8, addend: 0x0, symName: _main, symObjAddr: 0xC40, symBinAddr: 0x100003FF8, symSize: 0x7CC }
  - { offset: 0x1D786F, size: 0x8, addend: 0x0, symName: __ZNKSt3__112basic_stringIcNS_11char_traitsIcEENS_9allocatorIcEEE5c_strB8ue170006Ev, symObjAddr: 0x140C, symBinAddr: 0x1000047C4, symSize: 0x24 }
  - { offset: 0x1D7895, size: 0x8, addend: 0x0, symName: __ZNSt3__113basic_ostreamIcNS_11char_traitsIcEEElsB8ue170006EPFRS3_S4_E, symObjAddr: 0x1478, symBinAddr: 0x100004830, symSize: 0x2C }
  - { offset: 0x1D78C9, size: 0x8, addend: 0x0, symName: __ZNSt3__16vectorIiNS_9allocatorIiEEEC1B8ue170006Ev, symObjAddr: 0x14FC, symBinAddr: 0x1000048B4, symSize: 0x2C }
  - { offset: 0x1D78F3, size: 0x8, addend: 0x0, symName: __ZNSt3__16vectorIiNS_9allocatorIiEEE5clearB8ue170006Ev, symObjAddr: 0x1528, symBinAddr: 0x1000048E0, symSize: 0x44 }
  - { offset: 0x1D7928, size: 0x8, addend: 0x0, symName: __ZNSt3__16vectorIiNS_9allocatorIiEEE9push_backB8ue170006ERKi, symObjAddr: 0x156C, symBinAddr: 0x100004924, symSize: 0x6C }
  - { offset: 0x1D795F, size: 0x8, addend: 0x0, symName: __ZNKSt3__16vectorIiNS_9allocatorIiEEE4sizeB8ue170006Ev, symObjAddr: 0x15D8, symBinAddr: 0x100004990, symSize: 0x28 }
  - { offset: 0x1D7984, size: 0x8, addend: 0x0, symName: __Z5log10B8ue170006ImENSt3__19enable_ifIXsr3std11is_integralIT_EE5valueEdE4typeES2_, symObjAddr: 0x1600, symBinAddr: 0x1000049B8, symSize: 0x28 }
  - { offset: 0x1D79BC, size: 0x8, addend: 0x0, symName: __ZNSt3__16vectorIiNS_9allocatorIiEEEixB8ue170006Em, symObjAddr: 0x1628, symBinAddr: 0x1000049E0, symSize: 0x24 }
  - { offset: 0x1D79F3, size: 0x8, addend: 0x0, symName: __ZNSt3__16vectorIiNS_9allocatorIiEEED1B8ue170006Ev, symObjAddr: 0x164C, symBinAddr: 0x100004A04, symSize: 0x2C }
  - { offset: 0x1D7A1D, size: 0x8, addend: 0x0, symName: __ZN5Eigen8internal8FixedIntILi1EEC1Ev, symObjAddr: 0x1678, symBinAddr: 0x100004A30, symSize: 0x2C }
  - { offset: 0x1D7A47, size: 0x8, addend: 0x0, symName: __ZN5Eigen8internal8FixedIntILi0EEC1Ev, symObjAddr: 0x16A4, symBinAddr: 0x100004A5C, symSize: 0x2C }
  - { offset: 0x1D7A71, size: 0x8, addend: 0x0, symName: __ZN5Eigen8internal8FixedIntILi2EEC1Ev, symObjAddr: 0x16D0, symBinAddr: 0x100004A88, symSize: 0x2C }
  - { offset: 0x1D7A9B, size: 0x8, addend: 0x0, symName: __ZN5Eigen8internal8FixedIntILi3EEC1Ev, symObjAddr: 0x16FC, symBinAddr: 0x100004AB4, symSize: 0x2C }
  - { offset: 0x1D7AC5, size: 0x8, addend: 0x0, symName: __ZN5Eigen8internal5all_tC2Ev, symObjAddr: 0x1728, symBinAddr: 0x100004AE0, symSize: 0x14 }
  - { offset: 0x1D7AEF, size: 0x8, addend: 0x0, symName: __ZN5Eigen6MatrixINSt3__17complexIdEELin1ELi1ELi0ELin1ELi1EED2Ev, symObjAddr: 0x173C, symBinAddr: 0x100004AF4, symSize: 0x2C }
  - { offset: 0x1D7B1B, size: 0x8, addend: 0x0, symName: __ZN5Eigen15PlainObjectBaseINS_6MatrixINSt3__17complexIdEELin1ELi1ELi0ELin1ELi1EEEED2Ev, symObjAddr: 0x1768, symBinAddr: 0x100004B20, symSize: 0x2C }
  - { offset: 0x1D7B47, size: 0x8, addend: 0x0, symName: __ZN5Eigen12DenseStorageINSt3__17complexIdEELin1ELin1ELi1ELi0EED1Ev, symObjAddr: 0x1794, symBinAddr: 0x100004B4C, symSize: 0x2C }
  - { offset: 0x1D7B71, size: 0x8, addend: 0x0, symName: __ZN5Eigen12DenseStorageINSt3__17complexIdEELin1ELin1ELi1ELi0EED2Ev, symObjAddr: 0x17C0, symBinAddr: 0x100004B78, symSize: 0x44 }
  - { offset: 0x1D7B9B, size: 0x8, addend: 0x0, symName: __ZN5Eigen6MatrixIdLin1ELin1ELi0ELin1ELin1EED2Ev, symObjAddr: 0x1884, symBinAddr: 0x100004C3C, symSize: 0x2C }
  - { offset: 0x1D7BC7, size: 0x8, addend: 0x0, symName: __ZN5Eigen15PlainObjectBaseINS_6MatrixIdLin1ELin1ELi0ELin1ELin1EEEED2Ev, symObjAddr: 0x18B0, symBinAddr: 0x100004C68, symSize: 0x2C }
  - { offset: 0x1D7BF3, size: 0x8, addend: 0x0, symName: __ZN5Eigen12DenseStorageIdLin1ELin1ELin1ELi0EED1Ev, symObjAddr: 0x18DC, symBinAddr: 0x100004C94, symSize: 0x2C }
  - { offset: 0x1D7C1D, size: 0x8, addend: 0x0, symName: __ZN5Eigen12DenseStorageIdLin1ELin1ELin1ELi0EED2Ev, symObjAddr: 0x1908, symBinAddr: 0x100004CC0, symSize: 0x44 }
  - { offset: 0x1D7C47, size: 0x8, addend: 0x0, symName: __ZN5Eigen8symbolic10SymbolExprINS_8internal17symbolic_last_tagEEC2Ev, symObjAddr: 0x1974, symBinAddr: 0x100004D2C, symSize: 0x14 }
  - { offset: 0x1D7C71, size: 0x8, addend: 0x0, symName: __ZN5Eigen8internal8FixedIntILi1EEC2Ev, symObjAddr: 0x1988, symBinAddr: 0x100004D40, symSize: 0x14 }
  - { offset: 0x1D7C9B, size: 0x8, addend: 0x0, symName: __ZNK5Eigen8symbolic8BaseExprINS0_10SymbolExprINS_8internal17symbolic_last_tagEEEE7derivedEv, symObjAddr: 0x199C, symBinAddr: 0x100004D54, symSize: 0x14 }
  - { offset: 0x1D7CC1, size: 0x8, addend: 0x0, symName: __ZN5Eigen8symbolic9ValueExprINS_8internal8FixedIntILi1EEEEC1Ev, symObjAddr: 0x19B0, symBinAddr: 0x100004D68, symSize: 0x2C }
  - { offset: 0x1D7CEB, size: 0x8, addend: 0x0, symName: __ZN5Eigen8symbolic7AddExprINS0_10SymbolExprINS_8internal17symbolic_last_tagEEENS0_9ValueExprINS3_8FixedIntILi1EEEEEEC1ERKS5_RKS9_, symObjAddr: 0x19DC, symBinAddr: 0x100004D94, symSize: 0x3C }
  - { offset: 0x1D7D31, size: 0x8, addend: 0x0, symName: __ZN5Eigen8symbolic9ValueExprINS_8internal8FixedIntILi1EEEEC2Ev, symObjAddr: 0x1A18, symBinAddr: 0x100004DD0, symSize: 0x14 }
  - { offset: 0x1D7D5B, size: 0x8, addend: 0x0, symName: __ZN5Eigen8symbolic7AddExprINS0_10SymbolExprINS_8internal17symbolic_last_tagEEENS0_9ValueExprINS3_8FixedIntILi1EEEEEEC2ERKS5_RKS9_, symObjAddr: 0x1A2C, symBinAddr: 0x100004DE4, symSize: 0x1C }
  - { offset: 0x1D7DA1, size: 0x8, addend: 0x0, symName: __ZNSt3__16vectorIfNS_9allocatorIfEEEC2B8ue170006Ev, symObjAddr: 0x1A48, symBinAddr: 0x100004E00, symSize: 0x4C }
  - { offset: 0x1D7DDD, size: 0x8, addend: 0x0, symName: __ZNSt3__117__compressed_pairIPfNS_9allocatorIfEEEC1B8ue170006IDnNS_18__default_init_tagEEEOT_OT0_, symObjAddr: 0x1A94, symBinAddr: 0x100004E4C, symSize: 0x3C }
  - { offset: 0x1D7E35, size: 0x8, addend: 0x0, symName: __ZNSt3__117__compressed_pairIPfNS_9allocatorIfEEEC2B8ue170006IDnNS_18__default_init_tagEEEOT_OT0_, symObjAddr: 0x1AD0, symBinAddr: 0x100004E88, symSize: 0x40 }
  - { offset: 0x1D7E8D, size: 0x8, addend: 0x0, symName: __ZNSt3__122__compressed_pair_elemIPfLi0ELb0EEC2B8ue170006IDnvEEOT_, symObjAddr: 0x1B10, symBinAddr: 0x100004EC8, symSize: 0x1C }
  - { offset: 0x1D7ECF, size: 0x8, addend: 0x0, symName: __ZNSt3__122__compressed_pair_elemINS_9allocatorIfEELi1ELb1EEC2B8ue170006ENS_18__default_init_tagE, symObjAddr: 0x1B2C, symBinAddr: 0x100004EE4, symSize: 0x2C }
  - { offset: 0x1D7F04, size: 0x8, addend: 0x0, symName: __ZNSt3__19allocatorIfEC2B8ue170006Ev, symObjAddr: 0x1B58, symBinAddr: 0x100004F10, symSize: 0x2C }
  - { offset: 0x1D7F2E, size: 0x8, addend: 0x0, symName: __ZNSt3__116__non_trivial_ifILb1ENS_9allocatorIfEEEC2B8ue170006Ev, symObjAddr: 0x1B84, symBinAddr: 0x100004F3C, symSize: 0x14 }
  - { offset: 0x1D7F58, size: 0x8, addend: 0x0, symName: __ZNSt3__16vectorIfNS_9allocatorIfEEED2B8ue170006Ev, symObjAddr: 0x1B98, symBinAddr: 0x100004F50, symSize: 0x44 }
  - { offset: 0x1D7F82, size: 0x8, addend: 0x0, symName: __ZNSt3__16vectorIfNS_9allocatorIfEEE16__destroy_vectorC1B8ue170006ERS3_, symObjAddr: 0x1BDC, symBinAddr: 0x100004F94, symSize: 0x34 }
  - { offset: 0x1D7FBB, size: 0x8, addend: 0x0, symName: __ZNSt3__16vectorIfNS_9allocatorIfEEE16__destroy_vectorclB8ue170006Ev, symObjAddr: 0x1C10, symBinAddr: 0x100004FC8, symSize: 0x90 }
  - { offset: 0x1D7FE1, size: 0x8, addend: 0x0, symName: __ZNSt3__16vectorIfNS_9allocatorIfEEE16__destroy_vectorC2B8ue170006ERS3_, symObjAddr: 0x1CA0, symBinAddr: 0x100005058, symSize: 0x20 }
  - { offset: 0x1D801A, size: 0x8, addend: 0x0, symName: __ZNSt3__16vectorIfNS_9allocatorIfEEE7__clearB8ue170006Ev, symObjAddr: 0x1CC0, symBinAddr: 0x100005078, symSize: 0x28 }
  - { offset: 0x1D8040, size: 0x8, addend: 0x0, symName: __ZNKSt3__16vectorIfNS_9allocatorIfEEE17__annotate_deleteB8ue170006Ev, symObjAddr: 0x1CE8, symBinAddr: 0x1000050A0, symSize: 0xB8 }
  - { offset: 0x1D8066, size: 0x8, addend: 0x0, symName: __ZNSt3__116allocator_traitsINS_9allocatorIfEEE10deallocateB8ue170006ERS2_Pfm, symObjAddr: 0x1DA0, symBinAddr: 0x100005158, symSize: 0x34 }
  - { offset: 0x1D80A8, size: 0x8, addend: 0x0, symName: __ZNSt3__16vectorIfNS_9allocatorIfEEE7__allocB8ue170006Ev, symObjAddr: 0x1DD4, symBinAddr: 0x10000518C, symSize: 0x28 }
  - { offset: 0x1D80CE, size: 0x8, addend: 0x0, symName: __ZNKSt3__16vectorIfNS_9allocatorIfEEE8capacityB8ue170006Ev, symObjAddr: 0x1DFC, symBinAddr: 0x1000051B4, symSize: 0x40 }
  - { offset: 0x1D80F4, size: 0x8, addend: 0x0, symName: __ZNSt3__16vectorIfNS_9allocatorIfEEE22__base_destruct_at_endB8ue170006EPf, symObjAddr: 0x1E3C, symBinAddr: 0x1000051F4, symSize: 0x8C }
  - { offset: 0x1D8138, size: 0x8, addend: 0x0, symName: __ZNSt3__116allocator_traitsINS_9allocatorIfEEE7destroyB8ue170006IfvEEvRS2_PT_, symObjAddr: 0x1EC8, symBinAddr: 0x100005280, symSize: 0x2C }
  - { offset: 0x1D8175, size: 0x8, addend: 0x0, symName: __ZNSt3__19allocatorIfE7destroyB8ue170006EPf, symObjAddr: 0x1F08, symBinAddr: 0x1000052C0, symSize: 0x14 }
  - { offset: 0x1D81A9, size: 0x8, addend: 0x0, symName: __ZNKSt3__16vectorIfNS_9allocatorIfEEE31__annotate_contiguous_containerB8ue170006EPKvS5_S5_S5_, symObjAddr: 0x1F1C, symBinAddr: 0x1000052D4, symSize: 0x20 }
  - { offset: 0x1D81FB, size: 0x8, addend: 0x0, symName: __ZNKSt3__16vectorIfNS_9allocatorIfEEE4dataB8ue170006Ev, symObjAddr: 0x1F3C, symBinAddr: 0x1000052F4, symSize: 0x28 }
  - { offset: 0x1D8221, size: 0x8, addend: 0x0, symName: __ZNKSt3__16vectorIfNS_9allocatorIfEEE4sizeB8ue170006Ev, symObjAddr: 0x1F64, symBinAddr: 0x10000531C, symSize: 0x28 }
  - { offset: 0x1D8247, size: 0x8, addend: 0x0, symName: __ZNSt3__19allocatorIfE10deallocateB8ue170006EPfm, symObjAddr: 0x1F8C, symBinAddr: 0x100005344, symSize: 0x40 }
  - { offset: 0x1D8289, size: 0x8, addend: 0x0, symName: __ZNSt3__117__compressed_pairIPfNS_9allocatorIfEEE6secondB8ue170006Ev, symObjAddr: 0x2048, symBinAddr: 0x100005400, symSize: 0x24 }
  - { offset: 0x1D82AF, size: 0x8, addend: 0x0, symName: __ZNSt3__122__compressed_pair_elemINS_9allocatorIfEELi1ELb1EE5__getB8ue170006Ev, symObjAddr: 0x206C, symBinAddr: 0x100005424, symSize: 0x14 }
  - { offset: 0x1D82D5, size: 0x8, addend: 0x0, symName: __ZNKSt3__16vectorIfNS_9allocatorIfEEE9__end_capB8ue170006Ev, symObjAddr: 0x2080, symBinAddr: 0x100005438, symSize: 0x28 }
  - { offset: 0x1D82FB, size: 0x8, addend: 0x0, symName: __ZNKSt3__117__compressed_pairIPfNS_9allocatorIfEEE5firstB8ue170006Ev, symObjAddr: 0x20A8, symBinAddr: 0x100005460, symSize: 0x24 }
  - { offset: 0x1D8321, size: 0x8, addend: 0x0, symName: __ZNKSt3__122__compressed_pair_elemIPfLi0ELb0EE5__getB8ue170006Ev, symObjAddr: 0x20CC, symBinAddr: 0x100005484, symSize: 0x14 }
  - { offset: 0x1D8347, size: 0x8, addend: 0x0, symName: __ZN5Eigen6MatrixIdLin1ELin1ELi0ELin1ELin1EEC2IiiEERKT_RKT0_, symObjAddr: 0x20E0, symBinAddr: 0x100005498, symSize: 0x80 }
  - { offset: 0x1D83A1, size: 0x8, addend: 0x0, symName: __ZN5Eigen15PlainObjectBaseINS_6MatrixIdLin1ELin1ELi0ELin1ELin1EEEEC2Ev, symObjAddr: 0x2160, symBinAddr: 0x100005518, symSize: 0x34 }
  - { offset: 0x1D83CB, size: 0x8, addend: 0x0, symName: __ZN5Eigen15PlainObjectBaseINS_6MatrixIdLin1ELin1ELi0ELin1ELin1EEEE22_check_template_paramsEv, symObjAddr: 0x2194, symBinAddr: 0x10000554C, symSize: 0x4 }
  - { offset: 0x1D83E4, size: 0x8, addend: 0x0, symName: __ZN5Eigen15PlainObjectBaseINS_6MatrixIdLin1ELin1ELi0ELin1ELin1EEEE6_init2IiiEEvllPNS_8internal9enable_ifILb1ET_E4typeE, symObjAddr: 0x2198, symBinAddr: 0x100005550, symSize: 0x44 }
  - { offset: 0x1D8463, size: 0x8, addend: 0x0, symName: __ZN5Eigen10MatrixBaseINS_6MatrixIdLin1ELin1ELi0ELin1ELin1EEEEC2Ev, symObjAddr: 0x21DC, symBinAddr: 0x100005594, symSize: 0x2C }
  - { offset: 0x1D848D, size: 0x8, addend: 0x0, symName: __ZN5Eigen12DenseStorageIdLin1ELin1ELin1ELi0EEC1Ev, symObjAddr: 0x2208, symBinAddr: 0x1000055C0, symSize: 0x2C }
  - { offset: 0x1D84B7, size: 0x8, addend: 0x0, symName: __ZN5Eigen9DenseBaseINS_6MatrixIdLin1ELin1ELi0ELin1ELin1EEEEC2Ev, symObjAddr: 0x2234, symBinAddr: 0x1000055EC, symSize: 0x14 }
  - { offset: 0x1D84E1, size: 0x8, addend: 0x0, symName: __ZN5Eigen12DenseStorageIdLin1ELin1ELin1ELi0EEC2Ev, symObjAddr: 0x2248, symBinAddr: 0x100005600, symSize: 0x20 }
  - { offset: 0x1D854C, size: 0x8, addend: 0x0, symName: __ZN5Eigen15PlainObjectBaseINS_6MatrixIdLin1ELin1ELi0ELin1ELin1EEEE6resizeEll, symObjAddr: 0x2268, symBinAddr: 0x100005620, symSize: 0x14C }
  - { offset: 0x1D85C8, size: 0x8, addend: 0x0, symName: __ZN5Eigen12DenseStorageIdLin1ELin1ELin1ELi0EE6resizeElll, symObjAddr: 0x23B4, symBinAddr: 0x10000576C, symSize: 0xB4 }
  - { offset: 0x1D861B, size: 0x8, addend: 0x0, symName: __ZN5Eigen6MatrixINSt3__17complexIdEELin1ELi1ELi0ELin1ELi1EEC2Ev, symObjAddr: 0x2624, symBinAddr: 0x1000059DC, symSize: 0x58 }
  - { offset: 0x1D8645, size: 0x8, addend: 0x0, symName: __ZN5Eigen15PlainObjectBaseINS_6MatrixINSt3__17complexIdEELin1ELi1ELi0ELin1ELi1EEEEC2Ev, symObjAddr: 0x267C, symBinAddr: 0x100005A34, symSize: 0x34 }
  - { offset: 0x1D866F, size: 0x8, addend: 0x0, symName: __ZN5Eigen15PlainObjectBaseINS_6MatrixINSt3__17complexIdEELin1ELi1ELi0ELin1ELi1EEEE22_check_template_paramsEv, symObjAddr: 0x26B0, symBinAddr: 0x100005A68, symSize: 0x4 }
  - { offset: 0x1D8683, size: 0x8, addend: 0x0, symName: __ZN5Eigen10MatrixBaseINS_6MatrixINSt3__17complexIdEELin1ELi1ELi0ELin1ELi1EEEEC2Ev, symObjAddr: 0x26B4, symBinAddr: 0x100005A6C, symSize: 0x2C }
  - { offset: 0x1D86AD, size: 0x8, addend: 0x0, symName: __ZN5Eigen12DenseStorageINSt3__17complexIdEELin1ELin1ELi1ELi0EEC1Ev, symObjAddr: 0x26E0, symBinAddr: 0x100005A98, symSize: 0x2C }
  - { offset: 0x1D86D7, size: 0x8, addend: 0x0, symName: __ZN5Eigen9DenseBaseINS_6MatrixINSt3__17complexIdEELin1ELi1ELi0ELin1ELi1EEEEC2Ev, symObjAddr: 0x270C, symBinAddr: 0x100005AC4, symSize: 0x14 }
  - { offset: 0x1D8701, size: 0x8, addend: 0x0, symName: __ZN5Eigen12DenseStorageINSt3__17complexIdEELin1ELin1ELi1ELi0EEC2Ev, symObjAddr: 0x2720, symBinAddr: 0x100005AD8, symSize: 0x1C }
  - { offset: 0x1D872B, size: 0x8, addend: 0x0, symName: __ZNK5Eigen9EigenBaseINS_6MatrixIdLin1ELin1ELi0ELin1ELin1EEEE4rowsEv, symObjAddr: 0x273C, symBinAddr: 0x100005AF4, symSize: 0x38 }
  - { offset: 0x1D8751, size: 0x8, addend: 0x0, symName: __ZNK5Eigen9EigenBaseINS_6MatrixIdLin1ELin1ELi0ELin1ELin1EEEE4colsEv, symObjAddr: 0x2774, symBinAddr: 0x100005B2C, symSize: 0x28 }
  - { offset: 0x1D8777, size: 0x8, addend: 0x0, symName: __ZN5Eigen15DenseCoeffsBaseINS_6MatrixIdLin1ELin1ELi0ELin1ELin1EEELi1EE8coeffRefEll, symObjAddr: 0x279C, symBinAddr: 0x100005B54, symSize: 0x80 }
  - { offset: 0x1D87BB, size: 0x8, addend: 0x0, symName: __ZNK5Eigen9EigenBaseINS_6MatrixIdLin1ELin1ELi0ELin1ELin1EEEE7derivedEv, symObjAddr: 0x281C, symBinAddr: 0x100005BD4, symSize: 0x14 }
  - { offset: 0x1D87E1, size: 0x8, addend: 0x0, symName: __ZNK5Eigen15PlainObjectBaseINS_6MatrixIdLin1ELin1ELi0ELin1ELin1EEEE4rowsEv, symObjAddr: 0x2830, symBinAddr: 0x100005BE8, symSize: 0x24 }
  - { offset: 0x1D8807, size: 0x8, addend: 0x0, symName: __ZNK5Eigen12DenseStorageIdLin1ELin1ELin1ELi0EE4rowsEv, symObjAddr: 0x2854, symBinAddr: 0x100005C0C, symSize: 0x18 }
  - { offset: 0x1D882D, size: 0x8, addend: 0x0, symName: __ZNK5Eigen15PlainObjectBaseINS_6MatrixIdLin1ELin1ELi0ELin1ELin1EEEE4colsEv, symObjAddr: 0x286C, symBinAddr: 0x100005C24, symSize: 0x24 }
  - { offset: 0x1D8853, size: 0x8, addend: 0x0, symName: __ZNK5Eigen12DenseStorageIdLin1ELin1ELin1ELi0EE4colsEv, symObjAddr: 0x2890, symBinAddr: 0x100005C48, symSize: 0x18 }
  - { offset: 0x1D8879, size: 0x8, addend: 0x0, symName: __ZN5Eigen9EigenBaseINS_6MatrixIdLin1ELin1ELi0ELin1ELin1EEEE7derivedEv, symObjAddr: 0x28A8, symBinAddr: 0x100005C60, symSize: 0x14 }
  - { offset: 0x1D889F, size: 0x8, addend: 0x0, symName: __ZN5Eigen8internal9evaluatorINS_6MatrixIdLin1ELin1ELi0ELin1ELin1EEEEC1ERKS3_, symObjAddr: 0x28BC, symBinAddr: 0x100005C74, symSize: 0x34 }
  - { offset: 0x1D88D8, size: 0x8, addend: 0x0, symName: __ZN5Eigen8internal9evaluatorINS_15PlainObjectBaseINS_6MatrixIdLin1ELin1ELi0ELin1ELin1EEEEEE8coeffRefEll, symObjAddr: 0x28F0, symBinAddr: 0x100005CA8, symSize: 0x5C }
  - { offset: 0x1D891A, size: 0x8, addend: 0x0, symName: __ZN5Eigen8internal9evaluatorINS_6MatrixIdLin1ELin1ELi0ELin1ELin1EEEED1Ev, symObjAddr: 0x294C, symBinAddr: 0x100005D04, symSize: 0x2C }
  - { offset: 0x1D8947, size: 0x8, addend: 0x0, symName: __ZN5Eigen8internal9evaluatorINS_6MatrixIdLin1ELin1ELi0ELin1ELin1EEEEC2ERKS3_, symObjAddr: 0x2978, symBinAddr: 0x100005D30, symSize: 0x34 }
  - { offset: 0x1D8980, size: 0x8, addend: 0x0, symName: __ZN5Eigen8internal9evaluatorINS_15PlainObjectBaseINS_6MatrixIdLin1ELin1ELi0ELin1ELin1EEEEEEC2ERKS5_, symObjAddr: 0x29AC, symBinAddr: 0x100005D64, symSize: 0x80 }
  - { offset: 0x1D89B8, size: 0x8, addend: 0x0, symName: __ZN5Eigen8internal14evaluator_baseINS_6MatrixIdLin1ELin1ELi0ELin1ELin1EEEEC2Ev, symObjAddr: 0x2A2C, symBinAddr: 0x100005DE4, symSize: 0x14 }
  - { offset: 0x1D89E2, size: 0x8, addend: 0x0, symName: __ZNK5Eigen15PlainObjectBaseINS_6MatrixIdLin1ELin1ELi0ELin1ELin1EEEE4dataEv, symObjAddr: 0x2A40, symBinAddr: 0x100005DF8, symSize: 0x24 }
  - { offset: 0x1D8A08, size: 0x8, addend: 0x0, symName: __ZNK5Eigen15DenseCoeffsBaseINS_6MatrixIdLin1ELin1ELi0ELin1ELin1EEELi3EE11outerStrideEv, symObjAddr: 0x2A64, symBinAddr: 0x100005E1C, symSize: 0x28 }
  - { offset: 0x1D8A2E, size: 0x8, addend: 0x0, symName: __ZN5Eigen8internal30plainobjectbase_evaluator_dataIdLin1EEC1EPKdl, symObjAddr: 0x2A8C, symBinAddr: 0x100005E44, symSize: 0x3C }
  - { offset: 0x1D8A74, size: 0x8, addend: 0x0, symName: __ZN5Eigen8internal14evaluator_baseINS_6MatrixIdLin1ELin1ELi0ELin1ELin1EEEED2Ev, symObjAddr: 0x2AC8, symBinAddr: 0x100005E80, symSize: 0x14 }
  - { offset: 0x1D8A9E, size: 0x8, addend: 0x0, symName: __ZNK5Eigen12DenseStorageIdLin1ELin1ELin1ELi0EE4dataEv, symObjAddr: 0x2ADC, symBinAddr: 0x100005E94, symSize: 0x18 }
  - { offset: 0x1D8AC4, size: 0x8, addend: 0x0, symName: __ZNK5Eigen6MatrixIdLin1ELin1ELi0ELin1ELin1EE11outerStrideEv, symObjAddr: 0x2AF4, symBinAddr: 0x100005EAC, symSize: 0x34 }
  - { offset: 0x1D8AEA, size: 0x8, addend: 0x0, symName: __ZNK5Eigen9DenseBaseINS_6MatrixIdLin1ELin1ELi0ELin1ELin1EEEE9innerSizeEv, symObjAddr: 0x2B28, symBinAddr: 0x100005EE0, symSize: 0x24 }
  - { offset: 0x1D8B10, size: 0x8, addend: 0x0, symName: __ZN5Eigen8internal30plainobjectbase_evaluator_dataIdLin1EEC2EPKdl, symObjAddr: 0x2B4C, symBinAddr: 0x100005F04, symSize: 0x2C }
  - { offset: 0x1D8B56, size: 0x8, addend: 0x0, symName: __ZNK5Eigen8internal30plainobjectbase_evaluator_dataIdLin1EE11outerStrideEv, symObjAddr: 0x2B78, symBinAddr: 0x100005F30, symSize: 0x18 }
  - { offset: 0x1D8B7C, size: 0x8, addend: 0x0, symName: __ZN5Eigen8internal9evaluatorINS_6MatrixIdLin1ELin1ELi0ELin1ELin1EEEED2Ev, symObjAddr: 0x2B90, symBinAddr: 0x100005F48, symSize: 0x2C }
  - { offset: 0x1D8BA9, size: 0x8, addend: 0x0, symName: __ZN5Eigen8internal9evaluatorINS_15PlainObjectBaseINS_6MatrixIdLin1ELin1ELi0ELin1ELin1EEEEEED2Ev, symObjAddr: 0x2BBC, symBinAddr: 0x100005F74, symSize: 0x2C }
  - { offset: 0x1D8BDA, size: 0x8, addend: 0x0, symName: __ZN5Eigen8internal20eigenvalues_selectorINS_6MatrixIdLin1ELin1ELi0ELin1ELin1EEELb0EE3runERKNS_10MatrixBaseIS3_EE, symObjAddr: 0x2BE8, symBinAddr: 0x100005FA0, symSize: 0xD0 }
  - { offset: 0x1D8C16, size: 0x8, addend: 0x0, symName: __ZN5Eigen6MatrixIdLin1ELin1ELi0ELin1ELin1EEC1INS_10MatrixBaseIS1_EEEERKT_, symObjAddr: 0x2CB8, symBinAddr: 0x100006070, symSize: 0x34 }
  - { offset: 0x1D8C5D, size: 0x8, addend: 0x0, symName: __ZN5Eigen11EigenSolverINS_6MatrixIdLin1ELin1ELi0ELin1ELin1EEEEC1IS2_EERKNS_9EigenBaseIT_EEb, symObjAddr: 0x2CEC, symBinAddr: 0x1000060A4, symSize: 0x48 }
  - { offset: 0x1D8CAC, size: 0x8, addend: 0x0, symName: __ZNK5Eigen11EigenSolverINS_6MatrixIdLin1ELin1ELi0ELin1ELin1EEEE11eigenvaluesEv, symObjAddr: 0x2D34, symBinAddr: 0x1000060EC, symSize: 0x7C }
  - { offset: 0x1D8CD2, size: 0x8, addend: 0x0, symName: __ZN5Eigen6MatrixINSt3__17complexIdEELin1ELi1ELi0ELin1ELi1EEC1ERKS4_, symObjAddr: 0x2DB0, symBinAddr: 0x100006168, symSize: 0x34 }
  - { offset: 0x1D8D0B, size: 0x8, addend: 0x0, symName: __ZN5Eigen11EigenSolverINS_6MatrixIdLin1ELin1ELi0ELin1ELin1EEEED1Ev, symObjAddr: 0x2DE4, symBinAddr: 0x10000619C, symSize: 0x2C }
  - { offset: 0x1D8D37, size: 0x8, addend: 0x0, symName: __ZN5Eigen6MatrixIdLin1ELin1ELi0ELin1ELin1EEC2INS_10MatrixBaseIS1_EEEERKT_, symObjAddr: 0x2E10, symBinAddr: 0x1000061C8, symSize: 0x68 }
  - { offset: 0x1D8D79, size: 0x8, addend: 0x0, symName: __ZN5Eigen15PlainObjectBaseINS_6MatrixIdLin1ELin1ELi0ELin1ELin1EEEE6_init1INS_10MatrixBaseIS2_EES2_EEvRKNS_9DenseBaseIT0_EE, symObjAddr: 0x2E78, symBinAddr: 0x100006230, symSize: 0x2C }
  - { offset: 0x1D8DC0, size: 0x8, addend: 0x0, symName: __ZN5Eigen15PlainObjectBaseINS_6MatrixIdLin1ELin1ELi0ELin1ELin1EEEE12_set_noaliasIS2_EERS2_RKNS_9DenseBaseIT_EE, symObjAddr: 0x2EA4, symBinAddr: 0x10000625C, symSize: 0x60 }
  - { offset: 0x1D8DFE, size: 0x8, addend: 0x0, symName: __ZN5Eigen8internal9assign_opIddEC1Ev, symObjAddr: 0x2F40, symBinAddr: 0x1000062F8, symSize: 0x2C }
  - { offset: 0x1D8E28, size: 0x8, addend: 0x0, symName: __ZN5Eigen8internal10AssignmentINS_6MatrixIdLin1ELin1ELi0ELin1ELin1EEES3_NS0_9assign_opIddEENS0_11Dense2DenseEvE3runERS3_RKS3_RKS5_, symObjAddr: 0x2F6C, symBinAddr: 0x100006324, symSize: 0x40 }
  - { offset: 0x1D8E6A, size: 0x8, addend: 0x0, symName: __ZN5Eigen8internal27checkTransposeAliasing_implINS_6MatrixIdLin1ELin1ELi0ELin1ELin1EEES3_Lb0EE3runERKS3_S6_, symObjAddr: 0x30EC, symBinAddr: 0x1000064A4, symSize: 0x14 }
  - { offset: 0x1D8E95, size: 0x8, addend: 0x0, symName: __ZNK5Eigen9EigenBaseINS_6MatrixIdLin1ELin1ELi0ELin1ELin1EEEE18const_cast_derivedEv, symObjAddr: 0x31F8, symBinAddr: 0x1000065B0, symSize: 0x14 }
  - { offset: 0x1D8EBB, size: 0x8, addend: 0x0, symName: __ZN5Eigen8internal31generic_dense_assignment_kernelINS0_9evaluatorINS_6MatrixIdLin1ELin1ELi0ELin1ELin1EEEEES5_NS0_9assign_opIddEELi0EEC1ERS5_RKS5_RKS7_RS4_, symObjAddr: 0x320C, symBinAddr: 0x1000065C4, symSize: 0x4C }
  - { offset: 0x1D8F21, size: 0x8, addend: 0x0, symName: __ZN5Eigen8internal31generic_dense_assignment_kernelINS0_9evaluatorINS_6MatrixIdLin1ELin1ELi0ELin1ELin1EEEEES5_NS0_9assign_opIddEELi0EEC2ERS5_RKS5_RKS7_RS4_, symObjAddr: 0x3300, symBinAddr: 0x1000066B8, symSize: 0x44 }
  - { offset: 0x1D8F87, size: 0x8, addend: 0x0, symName: __ZNK5Eigen8internal31generic_dense_assignment_kernelINS0_9evaluatorINS_6MatrixIdLin1ELin1ELi0ELin1ELin1EEEEES5_NS0_9assign_opIddEELi0EE4sizeEv, symObjAddr: 0x3344, symBinAddr: 0x1000066FC, symSize: 0x28 }
  - { offset: 0x1D8FAD, size: 0x8, addend: 0x0, symName: __ZN5Eigen8internal31unaligned_dense_assignment_loopILb1EE3runINS0_31generic_dense_assignment_kernelINS0_9evaluatorINS_6MatrixIdLin1ELin1ELi0ELin1ELin1EEEEES8_NS0_9assign_opIddEELi0EEEEEvRT_ll, symObjAddr: 0x336C, symBinAddr: 0x100006724, symSize: 0x18 }
  - { offset: 0x1D8FEC, size: 0x8, addend: 0x0, symName: __ZN5Eigen8internal31generic_dense_assignment_kernelINS0_9evaluatorINS_6MatrixIdLin1ELin1ELi0ELin1ELin1EEEEES5_NS0_9assign_opIddEELi0EE12assignPacketILi16ELi16E19__simd128_float64_tEEvl, symObjAddr: 0x3384, symBinAddr: 0x10000673C, symSize: 0x64 }
  - { offset: 0x1D903E, size: 0x8, addend: 0x0, symName: __ZN5Eigen8internal31unaligned_dense_assignment_loopILb0EE3runINS0_31generic_dense_assignment_kernelINS0_9evaluatorINS_6MatrixIdLin1ELin1ELi0ELin1ELin1EEEEES8_NS0_9assign_opIddEELi0EEEEEvRT_ll, symObjAddr: 0x33E8, symBinAddr: 0x1000067A0, symSize: 0x68 }
  - { offset: 0x1D90A6, size: 0x8, addend: 0x0, symName: __ZNK5Eigen9EigenBaseINS_6MatrixIdLin1ELin1ELi0ELin1ELin1EEEE4sizeEv, symObjAddr: 0x3450, symBinAddr: 0x100006808, symSize: 0x44 }
  - { offset: 0x1D90CC, size: 0x8, addend: 0x0, symName: __ZNK5Eigen8internal9assign_opIddE12assignPacketILi16E19__simd128_float64_tEEvPdRKT0_, symObjAddr: 0x3494, symBinAddr: 0x10000684C, symSize: 0x40 }
  - { offset: 0x1D9146, size: 0x8, addend: 0x0, symName: __ZN5Eigen8internal9evaluatorINS_15PlainObjectBaseINS_6MatrixIdLin1ELin1ELi0ELin1ELin1EEEEEE8coeffRefEl, symObjAddr: 0x34D4, symBinAddr: 0x10000688C, symSize: 0x24 }
  - { offset: 0x1D9184, size: 0x8, addend: 0x0, symName: __ZNK5Eigen8internal9evaluatorINS_15PlainObjectBaseINS_6MatrixIdLin1ELin1ELi0ELin1ELin1EEEEEE6packetILi16E19__simd128_float64_tEET0_l, symObjAddr: 0x34F8, symBinAddr: 0x1000068B0, symSize: 0x3C }
  - { offset: 0x1D91E8, size: 0x8, addend: 0x0, symName: __ZN5Eigen8internal31generic_dense_assignment_kernelINS0_9evaluatorINS_6MatrixIdLin1ELin1ELi0ELin1ELin1EEEEES5_NS0_9assign_opIddEELi0EE11assignCoeffEl, symObjAddr: 0x3588, symBinAddr: 0x100006940, symSize: 0x60 }
  - { offset: 0x1D921D, size: 0x8, addend: 0x0, symName: __ZNK5Eigen8internal9assign_opIddE11assignCoeffERdRKd, symObjAddr: 0x35E8, symBinAddr: 0x1000069A0, symSize: 0x28 }
  - { offset: 0x1D925F, size: 0x8, addend: 0x0, symName: __ZNK5Eigen8internal9evaluatorINS_15PlainObjectBaseINS_6MatrixIdLin1ELin1ELi0ELin1ELin1EEEEEE5coeffEl, symObjAddr: 0x3610, symBinAddr: 0x1000069C8, symSize: 0x24 }
  - { offset: 0x1D9293, size: 0x8, addend: 0x0, symName: __ZN5Eigen8internal9assign_opIddEC2Ev, symObjAddr: 0x3634, symBinAddr: 0x1000069EC, symSize: 0x14 }
  - { offset: 0x1D92BD, size: 0x8, addend: 0x0, symName: __ZN5Eigen11EigenSolverINS_6MatrixIdLin1ELin1ELi0ELin1ELin1EEEEC2IS2_EERKNS_9EigenBaseIT_EEb, symObjAddr: 0x3648, symBinAddr: 0x100006A00, symSize: 0x1DC }
  - { offset: 0x1D9311, size: 0x8, addend: 0x0, symName: __ZN5Eigen6MatrixIdLin1ELin1ELi0ELin1ELin1EEC1IllEERKT_RKT0_, symObjAddr: 0x3824, symBinAddr: 0x100006BDC, symSize: 0x3C }
  - { offset: 0x1D936B, size: 0x8, addend: 0x0, symName: __ZN5Eigen6MatrixINSt3__17complexIdEELin1ELi1ELi0ELin1ELi1EEC1IlEERKT_, symObjAddr: 0x3860, symBinAddr: 0x100006C18, symSize: 0x34 }
  - { offset: 0x1D93AD, size: 0x8, addend: 0x0, symName: __ZN5Eigen9RealSchurINS_6MatrixIdLin1ELin1ELi0ELin1ELin1EEEEC1El, symObjAddr: 0x3894, symBinAddr: 0x100006C4C, symSize: 0x34 }
  - { offset: 0x1D93E5, size: 0x8, addend: 0x0, symName: __ZN5Eigen6MatrixIdLin1ELi1ELi0ELin1ELi1EEC1IlEERKT_, symObjAddr: 0x38C8, symBinAddr: 0x100006C80, symSize: 0x34 }
  - { offset: 0x1D9427, size: 0x8, addend: 0x0, symName: __ZN5Eigen11EigenSolverINS_6MatrixIdLin1ELin1ELi0ELin1ELin1EEEE7computeIS2_EERS3_RKNS_9EigenBaseIT_EEb, symObjAddr: 0x38FC, symBinAddr: 0x100006CB4, symSize: 0x508 }
  - { offset: 0x1D956E, size: 0x8, addend: 0x0, symName: __ZN5Eigen6MatrixIdLin1ELi1ELi0ELin1ELi1EED1Ev, symObjAddr: 0x3E04, symBinAddr: 0x1000071BC, symSize: 0x2C }
  - { offset: 0x1D959A, size: 0x8, addend: 0x0, symName: __ZN5Eigen9RealSchurINS_6MatrixIdLin1ELin1ELi0ELin1ELin1EEEED1Ev, symObjAddr: 0x3E30, symBinAddr: 0x1000071E8, symSize: 0x2C }
  - { offset: 0x1D95C6, size: 0x8, addend: 0x0, symName: __ZN5Eigen6MatrixIdLin1ELin1ELi0ELin1ELin1EEC2IllEERKT_RKT0_, symObjAddr: 0x3E5C, symBinAddr: 0x100007214, symSize: 0x7C }
  - { offset: 0x1D9625, size: 0x8, addend: 0x0, symName: __ZN5Eigen15PlainObjectBaseINS_6MatrixIdLin1ELin1ELi0ELin1ELin1EEEE6_init2IllEEvllPNS_8internal9enable_ifILb1ET_E4typeE, symObjAddr: 0x3ED8, symBinAddr: 0x100007290, symSize: 0x44 }
  - { offset: 0x1D96A4, size: 0x8, addend: 0x0, symName: __ZN5Eigen6MatrixINSt3__17complexIdEELin1ELi1ELi0ELin1ELi1EEC2IlEERKT_, symObjAddr: 0x3F1C, symBinAddr: 0x1000072D4, symSize: 0x70 }
  - { offset: 0x1D96E6, size: 0x8, addend: 0x0, symName: __ZN5Eigen15PlainObjectBaseINS_6MatrixINSt3__17complexIdEELin1ELi1ELi0ELin1ELi1EEEE6_init1IlEEvlPNS_8internal9enable_ifIXaaooneLNS_9DenseBaseIS5_EUt_En1ELi1Entsr8internal14is_convertibleIT_S4_EE5valueoontLNS8_7is_sameINS_9MatrixXprENS_8ArrayXprEEUt_E0EeqLSC_n1EL_ZNS_L7DynamicEEESD_E4typeE, symObjAddr: 0x3F8C, symBinAddr: 0x100007344, symSize: 0x48 }
  - { offset: 0x1D973E, size: 0x8, addend: 0x0, symName: __ZN5Eigen15PlainObjectBaseINS_6MatrixINSt3__17complexIdEELin1ELi1ELi0ELin1ELi1EEEE6resizeEl, symObjAddr: 0x3FE4, symBinAddr: 0x10000739C, symSize: 0x74 }
  - { offset: 0x1D9773, size: 0x8, addend: 0x0, symName: __ZN5Eigen12DenseStorageINSt3__17complexIdEELin1ELin1ELi1ELi0EE6resizeElll, symObjAddr: 0x4058, symBinAddr: 0x100007410, symSize: 0xA4 }
  - { offset: 0x1D97C2, size: 0x8, addend: 0x0, symName: __ZN5Eigen9RealSchurINS_6MatrixIdLin1ELin1ELi0ELin1ELin1EEEEC2El, symObjAddr: 0x4180, symBinAddr: 0x100007538, symSize: 0xF0 }
  - { offset: 0x1D97FA, size: 0x8, addend: 0x0, symName: __ZN5Eigen23HessenbergDecompositionINS_6MatrixIdLin1ELin1ELi0ELin1ELin1EEEEC1El, symObjAddr: 0x4270, symBinAddr: 0x100007628, symSize: 0x34 }
  - { offset: 0x1D9832, size: 0x8, addend: 0x0, symName: __ZN5Eigen23HessenbergDecompositionINS_6MatrixIdLin1ELin1ELi0ELin1ELin1EEEEC2El, symObjAddr: 0x42A4, symBinAddr: 0x10000765C, symSize: 0x100 }
  - { offset: 0x1D986A, size: 0x8, addend: 0x0, symName: __ZN5Eigen6MatrixIdLin1ELi1ELi0ELin1ELi1EEC1Ev, symObjAddr: 0x43A4, symBinAddr: 0x10000775C, symSize: 0x2C }
  - { offset: 0x1D9894, size: 0x8, addend: 0x0, symName: __ZN5Eigen6MatrixIdLi1ELin1ELi1ELi1ELin1EEC1IlEERKT_, symObjAddr: 0x43D0, symBinAddr: 0x100007788, symSize: 0x34 }
  - { offset: 0x1D98D6, size: 0x8, addend: 0x0, symName: __ZN5Eigen15PlainObjectBaseINS_6MatrixIdLin1ELi1ELi0ELin1ELi1EEEE6resizeEl, symObjAddr: 0x4404, symBinAddr: 0x1000077BC, symSize: 0x74 }
  - { offset: 0x1D990B, size: 0x8, addend: 0x0, symName: __ZN5Eigen6MatrixIdLi1ELin1ELi1ELi1ELin1EED1Ev, symObjAddr: 0x4478, symBinAddr: 0x100007830, symSize: 0x2C }
  - { offset: 0x1D9937, size: 0x8, addend: 0x0, symName: __ZN5Eigen6MatrixIdLin1ELi1ELi0ELin1ELi1EEC2Ev, symObjAddr: 0x44A4, symBinAddr: 0x10000785C, symSize: 0x58 }
  - { offset: 0x1D9961, size: 0x8, addend: 0x0, symName: __ZN5Eigen15PlainObjectBaseINS_6MatrixIdLin1ELi1ELi0ELin1ELi1EEEEC2Ev, symObjAddr: 0x44FC, symBinAddr: 0x1000078B4, symSize: 0x34 }
  - { offset: 0x1D998B, size: 0x8, addend: 0x0, symName: __ZN5Eigen15PlainObjectBaseINS_6MatrixIdLin1ELi1ELi0ELin1ELi1EEEE22_check_template_paramsEv, symObjAddr: 0x4530, symBinAddr: 0x1000078E8, symSize: 0x4 }
  - { offset: 0x1D999F, size: 0x8, addend: 0x0, symName: __ZN5Eigen15PlainObjectBaseINS_6MatrixIdLin1ELi1ELi0ELin1ELi1EEEED2Ev, symObjAddr: 0x4534, symBinAddr: 0x1000078EC, symSize: 0x2C }
  - { offset: 0x1D99CB, size: 0x8, addend: 0x0, symName: __ZN5Eigen10MatrixBaseINS_6MatrixIdLin1ELi1ELi0ELin1ELi1EEEEC2Ev, symObjAddr: 0x4560, symBinAddr: 0x100007918, symSize: 0x2C }
  - { offset: 0x1D99F5, size: 0x8, addend: 0x0, symName: __ZN5Eigen12DenseStorageIdLin1ELin1ELi1ELi0EEC1Ev, symObjAddr: 0x458C, symBinAddr: 0x100007944, symSize: 0x2C }
  - { offset: 0x1D9A1F, size: 0x8, addend: 0x0, symName: __ZN5Eigen9DenseBaseINS_6MatrixIdLin1ELi1ELi0ELin1ELi1EEEEC2Ev, symObjAddr: 0x45B8, symBinAddr: 0x100007970, symSize: 0x14 }
  - { offset: 0x1D9A49, size: 0x8, addend: 0x0, symName: __ZN5Eigen12DenseStorageIdLin1ELin1ELi1ELi0EEC2Ev, symObjAddr: 0x45CC, symBinAddr: 0x100007984, symSize: 0x1C }
  - { offset: 0x1D9A73, size: 0x8, addend: 0x0, symName: __ZN5Eigen12DenseStorageIdLin1ELin1ELi1ELi0EED1Ev, symObjAddr: 0x45E8, symBinAddr: 0x1000079A0, symSize: 0x2C }
  - { offset: 0x1D9A9D, size: 0x8, addend: 0x0, symName: __ZN5Eigen12DenseStorageIdLin1ELin1ELi1ELi0EED2Ev, symObjAddr: 0x4614, symBinAddr: 0x1000079CC, symSize: 0x44 }
  - { offset: 0x1D9AC7, size: 0x8, addend: 0x0, symName: __ZN5Eigen6MatrixIdLi1ELin1ELi1ELi1ELin1EEC2IlEERKT_, symObjAddr: 0x4658, symBinAddr: 0x100007A10, symSize: 0x74 }
  - { offset: 0x1D9B09, size: 0x8, addend: 0x0, symName: __ZN5Eigen15PlainObjectBaseINS_6MatrixIdLi1ELin1ELi1ELi1ELin1EEEEC2Ev, symObjAddr: 0x46CC, symBinAddr: 0x100007A84, symSize: 0x34 }
  - { offset: 0x1D9B33, size: 0x8, addend: 0x0, symName: __ZN5Eigen15PlainObjectBaseINS_6MatrixIdLi1ELin1ELi1ELi1ELin1EEEE22_check_template_paramsEv, symObjAddr: 0x4700, symBinAddr: 0x100007AB8, symSize: 0x4 }
  - { offset: 0x1D9B47, size: 0x8, addend: 0x0, symName: __ZN5Eigen15PlainObjectBaseINS_6MatrixIdLi1ELin1ELi1ELi1ELin1EEEE6_init1IlEEvlPNS_8internal9enable_ifIXaaooneLNS_9DenseBaseIS2_EUt_En1ELi1Entsr8internal14is_convertibleIT_dEE5valueoontLNS5_7is_sameINS_9MatrixXprENS_8ArrayXprEEUt_E0EeqLS9_n1EL_ZNS_L7DynamicEEESA_E4typeE, symObjAddr: 0x4704, symBinAddr: 0x100007ABC, symSize: 0x48 }
  - { offset: 0x1D9B9F, size: 0x8, addend: 0x0, symName: __ZN5Eigen15PlainObjectBaseINS_6MatrixIdLi1ELin1ELi1ELi1ELin1EEEED2Ev, symObjAddr: 0x474C, symBinAddr: 0x100007B04, symSize: 0x2C }
  - { offset: 0x1D9BCB, size: 0x8, addend: 0x0, symName: __ZN5Eigen10MatrixBaseINS_6MatrixIdLi1ELin1ELi1ELi1ELin1EEEEC2Ev, symObjAddr: 0x4778, symBinAddr: 0x100007B30, symSize: 0x2C }
  - { offset: 0x1D9BF5, size: 0x8, addend: 0x0, symName: __ZN5Eigen12DenseStorageIdLin1ELi1ELin1ELi1EEC1Ev, symObjAddr: 0x47A4, symBinAddr: 0x100007B5C, symSize: 0x2C }
  - { offset: 0x1D9C1F, size: 0x8, addend: 0x0, symName: __ZN5Eigen9DenseBaseINS_6MatrixIdLi1ELin1ELi1ELi1ELin1EEEEC2Ev, symObjAddr: 0x47D0, symBinAddr: 0x100007B88, symSize: 0x14 }
  - { offset: 0x1D9C49, size: 0x8, addend: 0x0, symName: __ZN5Eigen12DenseStorageIdLin1ELi1ELin1ELi1EEC2Ev, symObjAddr: 0x47E4, symBinAddr: 0x100007B9C, symSize: 0x1C }
  - { offset: 0x1D9C73, size: 0x8, addend: 0x0, symName: __ZN5Eigen15PlainObjectBaseINS_6MatrixIdLi1ELin1ELi1ELi1ELin1EEEE6resizeEl, symObjAddr: 0x4800, symBinAddr: 0x100007BB8, symSize: 0x74 }
  - { offset: 0x1D9CA8, size: 0x8, addend: 0x0, symName: __ZN5Eigen12DenseStorageIdLin1ELi1ELin1ELi1EE6resizeElll, symObjAddr: 0x4874, symBinAddr: 0x100007C2C, symSize: 0xAC }
  - { offset: 0x1D9CF7, size: 0x8, addend: 0x0, symName: __ZN5Eigen12DenseStorageIdLin1ELi1ELin1ELi1EED1Ev, symObjAddr: 0x4920, symBinAddr: 0x100007CD8, symSize: 0x2C }
  - { offset: 0x1D9D21, size: 0x8, addend: 0x0, symName: __ZN5Eigen12DenseStorageIdLin1ELi1ELin1ELi1EED2Ev, symObjAddr: 0x494C, symBinAddr: 0x100007D04, symSize: 0x44 }
  - { offset: 0x1D9D4B, size: 0x8, addend: 0x0, symName: __ZN5Eigen12DenseStorageIdLin1ELin1ELi1ELi0EE6resizeElll, symObjAddr: 0x4990, symBinAddr: 0x100007D48, symSize: 0xA4 }
  - { offset: 0x1D9D9A, size: 0x8, addend: 0x0, symName: __ZN5Eigen6MatrixIdLi1ELin1ELi1ELi1ELin1EED2Ev, symObjAddr: 0x4A34, symBinAddr: 0x100007DEC, symSize: 0x2C }
  - { offset: 0x1D9DC6, size: 0x8, addend: 0x0, symName: __ZN5Eigen6MatrixIdLin1ELi1ELi0ELin1ELi1EEC2IlEERKT_, symObjAddr: 0x4A60, symBinAddr: 0x100007E18, symSize: 0x70 }
  - { offset: 0x1D9E08, size: 0x8, addend: 0x0, symName: __ZN5Eigen15PlainObjectBaseINS_6MatrixIdLin1ELi1ELi0ELin1ELi1EEEE6_init1IlEEvlPNS_8internal9enable_ifIXaaooneLNS_9DenseBaseIS2_EUt_En1ELi1Entsr8internal14is_convertibleIT_dEE5valueoontLNS5_7is_sameINS_9MatrixXprENS_8ArrayXprEEUt_E0EeqLS9_n1EL_ZNS_L7DynamicEEESA_E4typeE, symObjAddr: 0x4AD0, symBinAddr: 0x100007E88, symSize: 0x48 }
  - { offset: 0x1D9E60, size: 0x8, addend: 0x0, symName: __ZN5Eigen11EigenSolverINS_6MatrixIdLin1ELin1ELi0ELin1ELin1EEEE25check_template_parametersEv, symObjAddr: 0x4B18, symBinAddr: 0x100007ED0, symSize: 0x4 }
  - { offset: 0x1D9E74, size: 0x8, addend: 0x0, symName: __ZN5Eigen9RealSchurINS_6MatrixIdLin1ELin1ELi0ELin1ELin1EEEE7computeIS2_EERS3_RKNS_9EigenBaseIT_EEb, symObjAddr: 0x4B1C, symBinAddr: 0x100007ED4, symSize: 0x260 }
  - { offset: 0x1D9EEC, size: 0x8, addend: 0x0, symName: __ZNK5Eigen9RealSchurINS_6MatrixIdLin1ELin1ELi0ELin1ELin1EEEE4infoEv, symObjAddr: 0x4D7C, symBinAddr: 0x100008134, symSize: 0x7C }
  - { offset: 0x1D9F12, size: 0x8, addend: 0x0, symName: __ZNK5Eigen9RealSchurINS_6MatrixIdLin1ELin1ELi0ELin1ELin1EEEE7matrixTEv, symObjAddr: 0x4DF8, symBinAddr: 0x1000081B0, symSize: 0x78 }
  - { offset: 0x1D9F38, size: 0x8, addend: 0x0, symName: __ZN5Eigen6MatrixIdLin1ELin1ELi0ELin1ELin1EEaSERKS1_, symObjAddr: 0x4E70, symBinAddr: 0x100008228, symSize: 0x2C }
  - { offset: 0x1D9F6C, size: 0x8, addend: 0x0, symName: __ZNK5Eigen9RealSchurINS_6MatrixIdLin1ELin1ELi0ELin1ELin1EEEE7matrixUEv, symObjAddr: 0x4E9C, symBinAddr: 0x100008254, symSize: 0xD0 }
  - { offset: 0x1D9F92, size: 0x8, addend: 0x0, symName: __ZNK5Eigen15PlainObjectBaseINS_6MatrixIdLin1ELin1ELi0ELin1ELin1EEEE5coeffEll, symObjAddr: 0x4F6C, symBinAddr: 0x100008324, symSize: 0x6C }
  - { offset: 0x1D9FD4, size: 0x8, addend: 0x0, symName: __ZN5Eigen15PlainObjectBaseINS_6MatrixINSt3__17complexIdEELin1ELi1ELi0ELin1ELi1EEEE8coeffRefEl, symObjAddr: 0x4FD8, symBinAddr: 0x100008390, symSize: 0x30 }
  - { offset: 0x1DA008, size: 0x8, addend: 0x0, symName: __ZNSt3__17complexIdEaSB8ue170006Ed, symObjAddr: 0x5008, symBinAddr: 0x1000083C0, symSize: 0x28 }
  - { offset: 0x1DA03C, size: 0x8, addend: 0x0, symName: __Z3absB8ue170006d, symObjAddr: 0x5058, symBinAddr: 0x100008410, symSize: 0x18 }
  - { offset: 0x1DA069, size: 0x8, addend: 0x0, symName: __ZNSt3__17complexIdEC1B8ue170006Edd, symObjAddr: 0x5070, symBinAddr: 0x100008428, symSize: 0x3C }
  - { offset: 0x1DA0B1, size: 0x8, addend: 0x0, symName: __ZN5Eigen11EigenSolverINS_6MatrixIdLin1ELin1ELi0ELin1ELin1EEEE21doComputeEigenvectorsEv, symObjAddr: 0x50AC, symBinAddr: 0x100008464, symSize: 0x1230 }
  - { offset: 0x1DA414, size: 0x8, addend: 0x0, symName: __ZNSt3__114numeric_limitsIdE3minB8ue170006Ev, symObjAddr: 0x62DC, symBinAddr: 0x100009694, symSize: 0x14 }
  - { offset: 0x1DA428, size: 0x8, addend: 0x0, symName: __ZNK5Eigen10MatrixBaseINS_6MatrixIdLin1ELin1ELi0ELin1ELin1EEEE8cwiseAbsEv, symObjAddr: 0x62F0, symBinAddr: 0x1000096A8, symSize: 0x4C }
  - { offset: 0x1DA44E, size: 0x8, addend: 0x0, symName: __ZNK5Eigen9DenseBaseINS_12CwiseUnaryOpINS_8internal13scalar_abs_opIdEEKNS_6MatrixIdLin1ELin1ELi0ELin1ELin1EEEEEE8maxCoeffEv, symObjAddr: 0x633C, symBinAddr: 0x1000096F4, symSize: 0x24 }
  - { offset: 0x1DA474, size: 0x8, addend: 0x0, symName: __ZN5Eigen15PlainObjectBaseINS_6MatrixIdLin1ELin1ELi0ELin1ELin1EEEE7setZeroEll, symObjAddr: 0x6360, symBinAddr: 0x100009718, symSize: 0x4C }
  - { offset: 0x1DA4BB, size: 0x8, addend: 0x0, symName: __ZN5Eigen10MatrixBaseINS_6MatrixIdLin1ELin1ELi0ELin1ELin1EEEE11setIdentityEll, symObjAddr: 0x63AC, symBinAddr: 0x100009764, symSize: 0x44 }
  - { offset: 0x1DA50C, size: 0x8, addend: 0x0, symName: __ZN5Eigen23HessenbergDecompositionINS_6MatrixIdLin1ELin1ELi0ELin1ELin1EEEE7computeINS_13CwiseBinaryOpINS_8internal18scalar_quotient_opIddEEKS2_KNS_14CwiseNullaryOpINS6_18scalar_constant_opIdEES9_EEEEEERS3_RKNS_9EigenBaseIT_EE, symObjAddr: 0x63F0, symBinAddr: 0x1000097A8, symSize: 0xB8 }
  - { offset: 0x1DA549, size: 0x8, addend: 0x0, symName: __ZNK5Eigen10MatrixBaseINS_6MatrixIdLin1ELin1ELi0ELin1ELin1EEEEdvIdEEKNS_13CwiseBinaryOpINS_8internal18scalar_quotient_opIdNS6_18promote_scalar_argIdT_Xsr5Eigen8internal14has_ReturnTypeINS_20ScalarBinaryOpTraitsIdS9_NS7_IdS9_EEEEEE5valueEE4typeEEEKS2_KNS6_19plain_constant_typeIS2_SE_E4typeEEERKS9_, symObjAddr: 0x64A8, symBinAddr: 0x100009860, symSize: 0xA8 }
  - { offset: 0x1DA586, size: 0x8, addend: 0x0, symName: __ZNK5Eigen23HessenbergDecompositionINS_6MatrixIdLin1ELin1ELi0ELin1ELin1EEEE7matrixQEv, symObjAddr: 0x6550, symBinAddr: 0x100009908, symSize: 0xD0 }
  - { offset: 0x1DA5AC, size: 0x8, addend: 0x0, symName: __ZNK5Eigen19HouseholderSequenceINS_6MatrixIdLin1ELin1ELi0ELin1ELin1EEENS1_IdLin1ELi1ELi0ELin1ELi1EEELi1EE6evalToIS2_S3_EEvRT_RT0_, symObjAddr: 0x6620, symBinAddr: 0x1000099D8, symSize: 0x488 }
  - { offset: 0x1DA6AC, size: 0x8, addend: 0x0, symName: __ZN5Eigen9RealSchurINS_6MatrixIdLin1ELin1ELi0ELin1ELin1EEEE21computeFromHessenbergINS_8internal40HessenbergDecompositionMatrixHReturnTypeIS2_EES2_EERS3_RKT_RKT0_b, symObjAddr: 0x6AA8, symBinAddr: 0x100009E60, symSize: 0x3AC }
  - { offset: 0x1DA819, size: 0x8, addend: 0x0, symName: __ZNK5Eigen23HessenbergDecompositionINS_6MatrixIdLin1ELin1ELi0ELin1ELin1EEEE7matrixHEv, symObjAddr: 0x6E54, symBinAddr: 0x10000A20C, symSize: 0x84 }
  - { offset: 0x1DA83F, size: 0x8, addend: 0x0, symName: __ZN5Eigen9DenseBaseINS_6MatrixIdLin1ELin1ELi0ELin1ELin1EEEEmLERKd, symObjAddr: 0x6ED8, symBinAddr: 0x10000A290, symSize: 0x8C }
  - { offset: 0x1DA876, size: 0x8, addend: 0x0, symName: __ZNSt3__123__libcpp_numeric_limitsIdLb1EE3minB8ue170006Ev, symObjAddr: 0x6F64, symBinAddr: 0x10000A31C, symSize: 0xC }
  - { offset: 0x1DA88A, size: 0x8, addend: 0x0, symName: __ZN5Eigen8internal13scalar_abs_opIdEC1Ev, symObjAddr: 0x6F70, symBinAddr: 0x10000A328, symSize: 0x2C }
  - { offset: 0x1DA8B4, size: 0x8, addend: 0x0, symName: __ZN5Eigen12CwiseUnaryOpINS_8internal13scalar_abs_opIdEEKNS_6MatrixIdLin1ELin1ELi0ELin1ELin1EEEEC1ERS6_RKS3_, symObjAddr: 0x6F9C, symBinAddr: 0x10000A354, symSize: 0x3C }
  - { offset: 0x1DA8FA, size: 0x8, addend: 0x0, symName: __ZN5Eigen8internal13scalar_abs_opIdEC2Ev, symObjAddr: 0x6FD8, symBinAddr: 0x10000A390, symSize: 0x14 }
  - { offset: 0x1DA924, size: 0x8, addend: 0x0, symName: __ZN5Eigen12CwiseUnaryOpINS_8internal13scalar_abs_opIdEEKNS_6MatrixIdLin1ELin1ELi0ELin1ELin1EEEEC2ERS6_RKS3_, symObjAddr: 0x6FEC, symBinAddr: 0x10000A3A4, symSize: 0x4C }
  - { offset: 0x1DA96F, size: 0x8, addend: 0x0, symName: __ZN5Eigen16CwiseUnaryOpImplINS_8internal13scalar_abs_opIdEEKNS_6MatrixIdLin1ELin1ELi0ELin1ELin1EEENS_5DenseEEC2Ev, symObjAddr: 0x7038, symBinAddr: 0x10000A3F0, symSize: 0x2C }
  - { offset: 0x1DA99B, size: 0x8, addend: 0x0, symName: __ZN5Eigen8internal13scalar_abs_opIdEC1ERKS2_, symObjAddr: 0x7064, symBinAddr: 0x10000A41C, symSize: 0x34 }
  - { offset: 0x1DA9D0, size: 0x8, addend: 0x0, symName: __ZN5Eigen10MatrixBaseINS_12CwiseUnaryOpINS_8internal13scalar_abs_opIdEEKNS_6MatrixIdLin1ELin1ELi0ELin1ELin1EEEEEEC2Ev, symObjAddr: 0x7098, symBinAddr: 0x10000A450, symSize: 0x2C }
  - { offset: 0x1DA9FA, size: 0x8, addend: 0x0, symName: __ZN5Eigen9DenseBaseINS_12CwiseUnaryOpINS_8internal13scalar_abs_opIdEEKNS_6MatrixIdLin1ELin1ELi0ELin1ELin1EEEEEEC2Ev, symObjAddr: 0x70C4, symBinAddr: 0x10000A47C, symSize: 0x14 }
  - { offset: 0x1DAA24, size: 0x8, addend: 0x0, symName: __ZN5Eigen8internal13scalar_abs_opIdEC2ERKS2_, symObjAddr: 0x70D8, symBinAddr: 0x10000A490, symSize: 0x18 }
  - { offset: 0x1DAA59, size: 0x8, addend: 0x0, symName: __ZNK5Eigen9DenseBaseINS_12CwiseUnaryOpINS_8internal13scalar_abs_opIdEEKNS_6MatrixIdLin1ELin1ELi0ELin1ELin1EEEEEE8maxCoeffILi0EEEdv, symObjAddr: 0x70F0, symBinAddr: 0x10000A4A8, symSize: 0x40 }
  - { offset: 0x1DAA8C, size: 0x8, addend: 0x0, symName: __ZNK5Eigen9EigenBaseINS_12CwiseUnaryOpINS_8internal13scalar_abs_opIdEEKNS_6MatrixIdLin1ELin1ELi0ELin1ELin1EEEEEE7derivedEv, symObjAddr: 0x7130, symBinAddr: 0x10000A4E8, symSize: 0x14 }
  - { offset: 0x1DAAC6, size: 0x8, addend: 0x0, symName: __ZNK5Eigen9DenseBaseINS_12CwiseUnaryOpINS_8internal13scalar_abs_opIdEEKNS_6MatrixIdLin1ELin1ELi0ELin1ELin1EEEEEE5reduxINS2_13scalar_max_opIddLi0EEEEEdRKT_, symObjAddr: 0x7144, symBinAddr: 0x10000A4FC, symSize: 0x10C }
  - { offset: 0x1DAB22, size: 0x8, addend: 0x0, symName: __ZN5Eigen8internal13scalar_max_opIddLi0EEC1Ev, symObjAddr: 0x7250, symBinAddr: 0x10000A608, symSize: 0x2C }
  - { offset: 0x1DAB4C, size: 0x8, addend: 0x0, symName: __ZNK5Eigen9EigenBaseINS_12CwiseUnaryOpINS_8internal13scalar_abs_opIdEEKNS_6MatrixIdLin1ELin1ELi0ELin1ELin1EEEEEE4rowsEv, symObjAddr: 0x727C, symBinAddr: 0x10000A634, symSize: 0x28 }
  - { offset: 0x1DAB72, size: 0x8, addend: 0x0, symName: __ZNK5Eigen9EigenBaseINS_12CwiseUnaryOpINS_8internal13scalar_abs_opIdEEKNS_6MatrixIdLin1ELin1ELi0ELin1ELin1EEEEEE4colsEv, symObjAddr: 0x72A4, symBinAddr: 0x10000A65C, symSize: 0x28 }
  - { offset: 0x1DABED, size: 0x8, addend: 0x0, symName: __ZN5Eigen8internal15redux_evaluatorINS_12CwiseUnaryOpINS0_13scalar_abs_opIdEEKNS_6MatrixIdLin1ELin1ELi0ELin1ELin1EEEEEEC1ERKS8_, symObjAddr: 0x72CC, symBinAddr: 0x10000A684, symSize: 0x34 }
  - { offset: 0x1DAC2B, size: 0x8, addend: 0x0, symName: __ZN5Eigen8internal10redux_implINS0_13scalar_max_opIddLi0EEENS0_15redux_evaluatorINS_12CwiseUnaryOpINS0_13scalar_abs_opIdEEKNS_6MatrixIdLin1ELin1ELi0ELin1ELin1EEEEEEELi3ELi0EE3runISB_EEdRKSC_RKS3_RKT_, symObjAddr: 0x7300, symBinAddr: 0x10000A6B8, symSize: 0x348 }
  - { offset: 0x1DADA8, size: 0x8, addend: 0x0, symName: __ZN5Eigen8internal15redux_evaluatorINS_12CwiseUnaryOpINS0_13scalar_abs_opIdEEKNS_6MatrixIdLin1ELin1ELi0ELin1ELin1EEEEEED1Ev, symObjAddr: 0x7648, symBinAddr: 0x10000AA00, symSize: 0x2C }
  - { offset: 0x1DADD5, size: 0x8, addend: 0x0, symName: __ZNK5Eigen12CwiseUnaryOpINS_8internal13scalar_abs_opIdEEKNS_6MatrixIdLin1ELin1ELi0ELin1ELin1EEEE4rowsEv, symObjAddr: 0x7674, symBinAddr: 0x10000AA2C, symSize: 0x28 }
  - { offset: 0x1DADFB, size: 0x8, addend: 0x0, symName: __ZNK5Eigen12CwiseUnaryOpINS_8internal13scalar_abs_opIdEEKNS_6MatrixIdLin1ELin1ELi0ELin1ELin1EEEE4colsEv, symObjAddr: 0x769C, symBinAddr: 0x10000AA54, symSize: 0x28 }
  - { offset: 0x1DAE21, size: 0x8, addend: 0x0, symName: __ZN5Eigen8internal15redux_evaluatorINS_12CwiseUnaryOpINS0_13scalar_abs_opIdEEKNS_6MatrixIdLin1ELin1ELi0ELin1ELin1EEEEEEC2ERKS8_, symObjAddr: 0x76C4, symBinAddr: 0x10000AA7C, symSize: 0x34 }
  - { offset: 0x1DAE5A, size: 0x8, addend: 0x0, symName: __ZN5Eigen8internal9evaluatorINS_12CwiseUnaryOpINS0_13scalar_abs_opIdEEKNS_6MatrixIdLin1ELin1ELi0ELin1ELin1EEEEEEC2ERKS8_, symObjAddr: 0x76F8, symBinAddr: 0x10000AAB0, symSize: 0x34 }
  - { offset: 0x1DAE92, size: 0x8, addend: 0x0, symName: __ZN5Eigen8internal15unary_evaluatorINS_12CwiseUnaryOpINS0_13scalar_abs_opIdEEKNS_6MatrixIdLin1ELin1ELi0ELin1ELin1EEEEENS0_10IndexBasedEdEC2ERKS8_, symObjAddr: 0x772C, symBinAddr: 0x10000AAE4, symSize: 0x64 }
  - { offset: 0x1DAECB, size: 0x8, addend: 0x0, symName: __ZN5Eigen8internal14evaluator_baseINS_12CwiseUnaryOpINS0_13scalar_abs_opIdEEKNS_6MatrixIdLin1ELin1ELi0ELin1ELin1EEEEEEC2Ev, symObjAddr: 0x7790, symBinAddr: 0x10000AB48, symSize: 0x14 }
  - { offset: 0x1DAEF5, size: 0x8, addend: 0x0, symName: __ZN5Eigen8internal15unary_evaluatorINS_12CwiseUnaryOpINS0_13scalar_abs_opIdEEKNS_6MatrixIdLin1ELin1ELi0ELin1ELin1EEEEENS0_10IndexBasedEdE4DataC1ERKS8_, symObjAddr: 0x77A4, symBinAddr: 0x10000AB5C, symSize: 0x34 }
  - { offset: 0x1DAF2E, size: 0x8, addend: 0x0, symName: __ZN5Eigen8internal14evaluator_baseINS_12CwiseUnaryOpINS0_13scalar_abs_opIdEEKNS_6MatrixIdLin1ELin1ELi0ELin1ELin1EEEEEED2Ev, symObjAddr: 0x77D8, symBinAddr: 0x10000AB90, symSize: 0x14 }
  - { offset: 0x1DAF58, size: 0x8, addend: 0x0, symName: __ZN5Eigen8internal15unary_evaluatorINS_12CwiseUnaryOpINS0_13scalar_abs_opIdEEKNS_6MatrixIdLin1ELin1ELi0ELin1ELin1EEEEENS0_10IndexBasedEdE4DataC2ERKS8_, symObjAddr: 0x77EC, symBinAddr: 0x10000ABA4, symSize: 0x58 }
  - { offset: 0x1DAF91, size: 0x8, addend: 0x0, symName: __ZNK5Eigen12CwiseUnaryOpINS_8internal13scalar_abs_opIdEEKNS_6MatrixIdLin1ELin1ELi0ELin1ELin1EEEE7functorEv, symObjAddr: 0x7844, symBinAddr: 0x10000ABFC, symSize: 0x18 }
  - { offset: 0x1DAFB7, size: 0x8, addend: 0x0, symName: __ZNK5Eigen12CwiseUnaryOpINS_8internal13scalar_abs_opIdEEKNS_6MatrixIdLin1ELin1ELi0ELin1ELin1EEEE16nestedExpressionEv, symObjAddr: 0x785C, symBinAddr: 0x10000AC14, symSize: 0x18 }
  - { offset: 0x1DAFDD, size: 0x8, addend: 0x0, symName: __ZN5Eigen8internal9evaluatorIKNS_6MatrixIdLin1ELin1ELi0ELin1ELin1EEEEC1ERS4_, symObjAddr: 0x7874, symBinAddr: 0x10000AC2C, symSize: 0x34 }
  - { offset: 0x1DB015, size: 0x8, addend: 0x0, symName: __ZN5Eigen8internal9evaluatorIKNS_6MatrixIdLin1ELin1ELi0ELin1ELin1EEEEC2ERS4_, symObjAddr: 0x78A8, symBinAddr: 0x10000AC60, symSize: 0x34 }
  - { offset: 0x1DB04D, size: 0x8, addend: 0x0, symName: __ZNK5Eigen9EigenBaseINS_12CwiseUnaryOpINS_8internal13scalar_abs_opIdEEKNS_6MatrixIdLin1ELin1ELi0ELin1ELin1EEEEEE4sizeEv, symObjAddr: 0x78DC, symBinAddr: 0x10000AC94, symSize: 0x44 }
  - { offset: 0x1DB073, size: 0x8, addend: 0x0, symName: __ZNK5Eigen8internal15unary_evaluatorINS_12CwiseUnaryOpINS0_13scalar_abs_opIdEEKNS_6MatrixIdLin1ELin1ELi0ELin1ELin1EEEEENS0_10IndexBasedEdE6packetILi16E19__simd128_float64_tEET0_l, symObjAddr: 0x7944, symBinAddr: 0x10000ACFC, symSize: 0x50 }
  - { offset: 0x1DB0BB, size: 0x8, addend: 0x0, symName: __ZNK5Eigen8internal13scalar_max_opIddLi0EE8packetOpI19__simd128_float64_tEET_RKS5_S7_, symObjAddr: 0x7994, symBinAddr: 0x10000AD4C, symSize: 0x30 }
  - { offset: 0x1DB106, size: 0x8, addend: 0x0, symName: __ZNK5Eigen8internal13scalar_max_opIddLi0EE6preduxI19__simd128_float64_tEEdRKT_, symObjAddr: 0x79C4, symBinAddr: 0x10000AD7C, symSize: 0x28 }
  - { offset: 0x1DB143, size: 0x8, addend: 0x0, symName: __ZNK5Eigen8internal13scalar_max_opIddLi0EEclERKdS4_, symObjAddr: 0x79EC, symBinAddr: 0x10000ADA4, symSize: 0x30 }
  - { offset: 0x1DB185, size: 0x8, addend: 0x0, symName: __ZNK5Eigen8internal15unary_evaluatorINS_12CwiseUnaryOpINS0_13scalar_abs_opIdEEKNS_6MatrixIdLin1ELin1ELi0ELin1ELin1EEEEENS0_10IndexBasedEdE5coeffEl, symObjAddr: 0x7A1C, symBinAddr: 0x10000ADD4, symSize: 0x4C }
  - { offset: 0x1DB1BA, size: 0x8, addend: 0x0, symName: __ZN5Eigen8internal18first_aligned_implILi16ENS_12CwiseUnaryOpINS0_13scalar_abs_opIdEEKNS_6MatrixIdLin1ELin1ELi0ELin1ELin1EEEEELb1EE3runERKS8_, symObjAddr: 0x7A90, symBinAddr: 0x10000AE48, symSize: 0x14 }
  - { offset: 0x1DB1DA, size: 0x8, addend: 0x0, symName: __ZNK5Eigen8internal15unary_evaluatorINS_12CwiseUnaryOpINS0_13scalar_abs_opIdEEKNS_6MatrixIdLin1ELin1ELi0ELin1ELin1EEEEENS0_10IndexBasedEdE4Data4funcEv, symObjAddr: 0x7AA4, symBinAddr: 0x10000AE5C, symSize: 0x14 }
  - { offset: 0x1DB200, size: 0x8, addend: 0x0, symName: __ZNK5Eigen8internal13scalar_abs_opIdE8packetOpI19__simd128_float64_tEEKT_RS6_, symObjAddr: 0x7AB8, symBinAddr: 0x10000AE70, symSize: 0x28 }
  - { offset: 0x1DB253, size: 0x8, addend: 0x0, symName: __ZN5Eigen8internal12pminmax_implILi0EE3runI19__simd128_float64_tPFS4_RKS4_S6_EEET_RKS9_SB_T0_, symObjAddr: 0x7B40, symBinAddr: 0x10000AEF8, symSize: 0x34 }
  - { offset: 0x1DB2BD, size: 0x8, addend: 0x0, symName: __ZN5Eigen8internal12pminmax_implILi0EE3runIdPFdRKdS5_EEET_RKS8_SA_T0_, symObjAddr: 0x7D58, symBinAddr: 0x10000B110, symSize: 0x34 }
  - { offset: 0x1DB311, size: 0x8, addend: 0x0, symName: __ZNK5Eigen8internal13scalar_abs_opIdEclERKd, symObjAddr: 0x7DCC, symBinAddr: 0x10000B184, symSize: 0x34 }
  - { offset: 0x1DB362, size: 0x8, addend: 0x0, symName: __ZN5Eigen8internal15redux_evaluatorINS_12CwiseUnaryOpINS0_13scalar_abs_opIdEEKNS_6MatrixIdLin1ELin1ELi0ELin1ELin1EEEEEED2Ev, symObjAddr: 0x7E00, symBinAddr: 0x10000B1B8, symSize: 0x2C }
  - { offset: 0x1DB38F, size: 0x8, addend: 0x0, symName: __ZN5Eigen8internal9evaluatorINS_12CwiseUnaryOpINS0_13scalar_abs_opIdEEKNS_6MatrixIdLin1ELin1ELi0ELin1ELin1EEEEEED2Ev, symObjAddr: 0x7E2C, symBinAddr: 0x10000B1E4, symSize: 0x2C }
  - { offset: 0x1DB3BB, size: 0x8, addend: 0x0, symName: __ZN5Eigen8internal15unary_evaluatorINS_12CwiseUnaryOpINS0_13scalar_abs_opIdEEKNS_6MatrixIdLin1ELin1ELi0ELin1ELin1EEEEENS0_10IndexBasedEdED2Ev, symObjAddr: 0x7E58, symBinAddr: 0x10000B210, symSize: 0x34 }
  - { offset: 0x1DB3E7, size: 0x8, addend: 0x0, symName: __ZN5Eigen8internal15unary_evaluatorINS_12CwiseUnaryOpINS0_13scalar_abs_opIdEEKNS_6MatrixIdLin1ELin1ELi0ELin1ELin1EEEEENS0_10IndexBasedEdE4DataD1Ev, symObjAddr: 0x7E8C, symBinAddr: 0x10000B244, symSize: 0x2C }
  - { offset: 0x1DB414, size: 0x8, addend: 0x0, symName: __ZN5Eigen8internal15unary_evaluatorINS_12CwiseUnaryOpINS0_13scalar_abs_opIdEEKNS_6MatrixIdLin1ELin1ELi0ELin1ELin1EEEEENS0_10IndexBasedEdE4DataD2Ev, symObjAddr: 0x7EB8, symBinAddr: 0x10000B270, symSize: 0x30 }
  - { offset: 0x1DB441, size: 0x8, addend: 0x0, symName: __ZN5Eigen8internal9evaluatorIKNS_6MatrixIdLin1ELin1ELi0ELin1ELin1EEEED1Ev, symObjAddr: 0x7EE8, symBinAddr: 0x10000B2A0, symSize: 0x2C }
  - { offset: 0x1DB46D, size: 0x8, addend: 0x0, symName: __ZN5Eigen8internal9evaluatorIKNS_6MatrixIdLin1ELin1ELi0ELin1ELin1EEEED2Ev, symObjAddr: 0x7F14, symBinAddr: 0x10000B2CC, symSize: 0x2C }
  - { offset: 0x1DB499, size: 0x8, addend: 0x0, symName: __ZN5Eigen8internal13scalar_max_opIddLi0EEC2Ev, symObjAddr: 0x7F40, symBinAddr: 0x10000B2F8, symSize: 0x14 }
  - { offset: 0x1DB4C3, size: 0x8, addend: 0x0, symName: __ZN5Eigen9DenseBaseINS_6MatrixIdLin1ELin1ELi0ELin1ELin1EEEE11setConstantERKd, symObjAddr: 0x7F54, symBinAddr: 0x10000B30C, symSize: 0x64 }
  - { offset: 0x1DB4FB, size: 0x8, addend: 0x0, symName: __ZN5Eigen9DenseBaseINS_6MatrixIdLin1ELin1ELi0ELin1ELin1EEEE8ConstantEllRKd, symObjAddr: 0x7FB8, symBinAddr: 0x10000B370, symSize: 0x60 }
  - { offset: 0x1DB53F, size: 0x8, addend: 0x0, symName: __ZN5Eigen6MatrixIdLin1ELin1ELi0ELin1ELin1EEaSINS_14CwiseNullaryOpINS_8internal18scalar_constant_opIdEES1_EEEERS1_RKNS_9DenseBaseIT_EE, symObjAddr: 0x8018, symBinAddr: 0x10000B3D0, symSize: 0x2C }
  - { offset: 0x1DB57C, size: 0x8, addend: 0x0, symName: __ZN5Eigen9DenseBaseINS_6MatrixIdLin1ELin1ELi0ELin1ELin1EEEE11NullaryExprINS_8internal18scalar_constant_opIdEEEEKNS_14CwiseNullaryOpIT_S2_EEllRKS9_, symObjAddr: 0x8044, symBinAddr: 0x10000B3FC, symSize: 0x48 }
  - { offset: 0x1DB5C9, size: 0x8, addend: 0x0, symName: __ZN5Eigen8internal18scalar_constant_opIdEC1ERKd, symObjAddr: 0x808C, symBinAddr: 0x10000B444, symSize: 0x34 }
  - { offset: 0x1DB601, size: 0x8, addend: 0x0, symName: __ZN5Eigen14CwiseNullaryOpINS_8internal18scalar_constant_opIdEENS_6MatrixIdLin1ELin1ELi0ELin1ELin1EEEEC1EllRKS3_, symObjAddr: 0x80C0, symBinAddr: 0x10000B478, symSize: 0x44 }
  - { offset: 0x1DB655, size: 0x8, addend: 0x0, symName: __ZN5Eigen14CwiseNullaryOpINS_8internal18scalar_constant_opIdEENS_6MatrixIdLin1ELin1ELi0ELin1ELin1EEEEC2EllRKS3_, symObjAddr: 0x8104, symBinAddr: 0x10000B4BC, symSize: 0xDC }
  - { offset: 0x1DB6A9, size: 0x8, addend: 0x0, symName: __ZN5Eigen10MatrixBaseINS_14CwiseNullaryOpINS_8internal18scalar_constant_opIdEENS_6MatrixIdLin1ELin1ELi0ELin1ELin1EEEEEEC2Ev, symObjAddr: 0x81E0, symBinAddr: 0x10000B598, symSize: 0x2C }
  - { offset: 0x1DB6D3, size: 0x8, addend: 0x0, symName: __ZN5Eigen8internal19variable_if_dynamicIlLin1EEC1El, symObjAddr: 0x820C, symBinAddr: 0x10000B5C4, symSize: 0x34 }
  - { offset: 0x1DB70B, size: 0x8, addend: 0x0, symName: __ZN5Eigen8internal18scalar_constant_opIdEC1ERKS2_, symObjAddr: 0x8240, symBinAddr: 0x10000B5F8, symSize: 0x34 }
  - { offset: 0x1DB743, size: 0x8, addend: 0x0, symName: __ZN5Eigen9DenseBaseINS_14CwiseNullaryOpINS_8internal18scalar_constant_opIdEENS_6MatrixIdLin1ELin1ELi0ELin1ELin1EEEEEEC2Ev, symObjAddr: 0x8274, symBinAddr: 0x10000B62C, symSize: 0x14 }
  - { offset: 0x1DB76D, size: 0x8, addend: 0x0, symName: __ZN5Eigen8internal19variable_if_dynamicIlLin1EEC2El, symObjAddr: 0x8288, symBinAddr: 0x10000B640, symSize: 0x20 }
  - { offset: 0x1DB7A5, size: 0x8, addend: 0x0, symName: __ZN5Eigen8internal18scalar_constant_opIdEC2ERKS2_, symObjAddr: 0x82A8, symBinAddr: 0x10000B660, symSize: 0x24 }
  - { offset: 0x1DB7DD, size: 0x8, addend: 0x0, symName: __ZN5Eigen8internal18scalar_constant_opIdEC2ERKd, symObjAddr: 0x82CC, symBinAddr: 0x10000B684, symSize: 0x24 }
  - { offset: 0x1DB815, size: 0x8, addend: 0x0, symName: __ZN5Eigen15PlainObjectBaseINS_6MatrixIdLin1ELin1ELi0ELin1ELin1EEEE4_setINS_14CwiseNullaryOpINS_8internal18scalar_constant_opIdEES2_EEEERS2_RKNS_9DenseBaseIT_EE, symObjAddr: 0x82F0, symBinAddr: 0x10000B6A8, symSize: 0x4C }
  - { offset: 0x1DB853, size: 0x8, addend: 0x0, symName: __ZNK5Eigen9EigenBaseINS_14CwiseNullaryOpINS_8internal18scalar_constant_opIdEENS_6MatrixIdLin1ELin1ELi0ELin1ELin1EEEEEE7derivedEv, symObjAddr: 0x838C, symBinAddr: 0x10000B744, symSize: 0x14 }
  - { offset: 0x1DB879, size: 0x8, addend: 0x0, symName: __ZN5Eigen8internal10AssignmentINS_6MatrixIdLin1ELin1ELi0ELin1ELin1EEENS_14CwiseNullaryOpINS0_18scalar_constant_opIdEES3_EENS0_9assign_opIddEENS0_11Dense2DenseEvE3runERS3_RKS7_RKS9_, symObjAddr: 0x8414, symBinAddr: 0x10000B7CC, symSize: 0x40 }
  - { offset: 0x1DB8BB, size: 0x8, addend: 0x0, symName: __ZN5Eigen8internal27checkTransposeAliasing_implINS_6MatrixIdLin1ELin1ELi0ELin1ELin1EEENS_14CwiseNullaryOpINS0_18scalar_constant_opIdEES3_EELb0EE3runERKS3_RKS7_, symObjAddr: 0x8520, symBinAddr: 0x10000B8D8, symSize: 0x14 }
  - { offset: 0x1DB8E6, size: 0x8, addend: 0x0, symName: __ZN5Eigen15PlainObjectBaseINS_6MatrixIdLin1ELin1ELi0ELin1ELin1EEEE4dataEv, symObjAddr: 0x8670, symBinAddr: 0x10000BA28, symSize: 0x24 }
  - { offset: 0x1DB90C, size: 0x8, addend: 0x0, symName: __ZNK5Eigen14CwiseNullaryOpINS_8internal18scalar_constant_opIdEENS_6MatrixIdLin1ELin1ELi0ELin1ELin1EEEE7functorEv, symObjAddr: 0x8694, symBinAddr: 0x10000BA4C, symSize: 0x18 }
  - { offset: 0x1DB932, size: 0x8, addend: 0x0, symName: __ZNK5Eigen8internal18scalar_constant_opIdEclEv, symObjAddr: 0x86AC, symBinAddr: 0x10000BA64, symSize: 0x18 }
  - { offset: 0x1DB958, size: 0x8, addend: 0x0, symName: __ZNK5Eigen14CwiseNullaryOpINS_8internal18scalar_constant_opIdEENS_6MatrixIdLin1ELin1ELi0ELin1ELin1EEEE4rowsEv, symObjAddr: 0x86C4, symBinAddr: 0x10000BA7C, symSize: 0x24 }
  - { offset: 0x1DB97E, size: 0x8, addend: 0x0, symName: __ZNK5Eigen14CwiseNullaryOpINS_8internal18scalar_constant_opIdEENS_6MatrixIdLin1ELin1ELi0ELin1ELin1EEEE4colsEv, symObjAddr: 0x86E8, symBinAddr: 0x10000BAA0, symSize: 0x28 }
  - { offset: 0x1DB9A4, size: 0x8, addend: 0x0, symName: __ZNK5Eigen8internal19variable_if_dynamicIlLin1EE5valueEv, symObjAddr: 0x8710, symBinAddr: 0x10000BAC8, symSize: 0x18 }
  - { offset: 0x1DB9CA, size: 0x8, addend: 0x0, symName: __ZN5Eigen12DenseStorageIdLin1ELin1ELin1ELi0EE4dataEv, symObjAddr: 0x87A0, symBinAddr: 0x10000BB58, symSize: 0x18 }
  - { offset: 0x1DB9F0, size: 0x8, addend: 0x0, symName: __ZN5Eigen10MatrixBaseINS_6MatrixIdLin1ELin1ELi0ELin1ELin1EEEE11setIdentityEv, symObjAddr: 0x87B8, symBinAddr: 0x10000BB70, symSize: 0x28 }
  - { offset: 0x1DBA19, size: 0x8, addend: 0x0, symName: __ZN5Eigen8internal16setIdentity_implINS_6MatrixIdLin1ELin1ELi0ELin1ELin1EEELb0EE3runERS3_, symObjAddr: 0x87E0, symBinAddr: 0x10000BB98, symSize: 0x50 }
  - { offset: 0x1DBA3D, size: 0x8, addend: 0x0, symName: __ZN5Eigen10MatrixBaseINS_6MatrixIdLin1ELin1ELi0ELin1ELin1EEEE8IdentityEll, symObjAddr: 0x8830, symBinAddr: 0x10000BBE8, symSize: 0x58 }
  - { offset: 0x1DBA71, size: 0x8, addend: 0x0, symName: __ZN5Eigen6MatrixIdLin1ELin1ELi0ELin1ELin1EEaSINS_14CwiseNullaryOpINS_8internal18scalar_identity_opIdEES1_EEEERS1_RKNS_9DenseBaseIT_EE, symObjAddr: 0x8888, symBinAddr: 0x10000BC40, symSize: 0x2C }
  - { offset: 0x1DBAAE, size: 0x8, addend: 0x0, symName: __ZN5Eigen9DenseBaseINS_6MatrixIdLin1ELin1ELi0ELin1ELin1EEEE11NullaryExprINS_8internal18scalar_identity_opIdEEEEKNS_14CwiseNullaryOpIT_S2_EEllRKS9_, symObjAddr: 0x88B4, symBinAddr: 0x10000BC6C, symSize: 0x48 }
  - { offset: 0x1DBAFB, size: 0x8, addend: 0x0, symName: __ZN5Eigen8internal18scalar_identity_opIdEC1Ev, symObjAddr: 0x88FC, symBinAddr: 0x10000BCB4, symSize: 0x2C }
  - { offset: 0x1DBB25, size: 0x8, addend: 0x0, symName: __ZN5Eigen14CwiseNullaryOpINS_8internal18scalar_identity_opIdEENS_6MatrixIdLin1ELin1ELi0ELin1ELin1EEEEC1EllRKS3_, symObjAddr: 0x8928, symBinAddr: 0x10000BCE0, symSize: 0x44 }
  - { offset: 0x1DBB79, size: 0x8, addend: 0x0, symName: __ZN5Eigen14CwiseNullaryOpINS_8internal18scalar_identity_opIdEENS_6MatrixIdLin1ELin1ELi0ELin1ELin1EEEEC2EllRKS3_, symObjAddr: 0x896C, symBinAddr: 0x10000BD24, symSize: 0xDC }
  - { offset: 0x1DBBCD, size: 0x8, addend: 0x0, symName: __ZN5Eigen10MatrixBaseINS_14CwiseNullaryOpINS_8internal18scalar_identity_opIdEENS_6MatrixIdLin1ELin1ELi0ELin1ELin1EEEEEEC2Ev, symObjAddr: 0x8A48, symBinAddr: 0x10000BE00, symSize: 0x2C }
  - { offset: 0x1DBBF7, size: 0x8, addend: 0x0, symName: __ZN5Eigen8internal18scalar_identity_opIdEC1ERKS2_, symObjAddr: 0x8A74, symBinAddr: 0x10000BE2C, symSize: 0x34 }
  - { offset: 0x1DBC2C, size: 0x8, addend: 0x0, symName: __ZN5Eigen9DenseBaseINS_14CwiseNullaryOpINS_8internal18scalar_identity_opIdEENS_6MatrixIdLin1ELin1ELi0ELin1ELin1EEEEEEC2Ev, symObjAddr: 0x8AA8, symBinAddr: 0x10000BE60, symSize: 0x14 }
  - { offset: 0x1DBC56, size: 0x8, addend: 0x0, symName: __ZN5Eigen8internal18scalar_identity_opIdEC2ERKS2_, symObjAddr: 0x8ABC, symBinAddr: 0x10000BE74, symSize: 0x18 }
  - { offset: 0x1DBC8B, size: 0x8, addend: 0x0, symName: __ZN5Eigen8internal18scalar_identity_opIdEC2Ev, symObjAddr: 0x8AD4, symBinAddr: 0x10000BE8C, symSize: 0x14 }
  - { offset: 0x1DBCB5, size: 0x8, addend: 0x0, symName: __ZN5Eigen15PlainObjectBaseINS_6MatrixIdLin1ELin1ELi0ELin1ELin1EEEE4_setINS_14CwiseNullaryOpINS_8internal18scalar_identity_opIdEES2_EEEERS2_RKNS_9DenseBaseIT_EE, symObjAddr: 0x8AE8, symBinAddr: 0x10000BEA0, symSize: 0x4C }
  - { offset: 0x1DBCF3, size: 0x8, addend: 0x0, symName: __ZNK5Eigen9EigenBaseINS_14CwiseNullaryOpINS_8internal18scalar_identity_opIdEENS_6MatrixIdLin1ELin1ELi0ELin1ELin1EEEEEE7derivedEv, symObjAddr: 0x8B84, symBinAddr: 0x10000BF3C, symSize: 0x14 }
  - { offset: 0x1DBD19, size: 0x8, addend: 0x0, symName: __ZN5Eigen8internal10AssignmentINS_6MatrixIdLin1ELin1ELi0ELin1ELin1EEENS_14CwiseNullaryOpINS0_18scalar_identity_opIdEES3_EENS0_9assign_opIddEENS0_11Dense2DenseEvE3runERS3_RKS7_RKS9_, symObjAddr: 0x8C0C, symBinAddr: 0x10000BFC4, symSize: 0x40 }
  - { offset: 0x1DBD5B, size: 0x8, addend: 0x0, symName: __ZN5Eigen8internal27checkTransposeAliasing_implINS_6MatrixIdLin1ELin1ELi0ELin1ELin1EEENS_14CwiseNullaryOpINS0_18scalar_identity_opIdEES3_EELb0EE3runERKS3_RKS7_, symObjAddr: 0x8D84, symBinAddr: 0x10000C13C, symSize: 0x14 }
  - { offset: 0x1DBDA9, size: 0x8, addend: 0x0, symName: __ZN5Eigen8internal9evaluatorINS_14CwiseNullaryOpINS0_18scalar_identity_opIdEENS_6MatrixIdLin1ELin1ELi0ELin1ELin1EEEEEEC1ERKS7_, symObjAddr: 0x8D98, symBinAddr: 0x10000C150, symSize: 0x34 }
  - { offset: 0x1DBE0F, size: 0x8, addend: 0x0, symName: __ZN5Eigen8internal31generic_dense_assignment_kernelINS0_9evaluatorINS_6MatrixIdLin1ELin1ELi0ELin1ELin1EEEEENS2_INS_14CwiseNullaryOpINS0_18scalar_identity_opIdEES4_EEEENS0_9assign_opIddEELi0EEC1ERS5_RKSA_RKSC_RS4_, symObjAddr: 0x8EC4, symBinAddr: 0x10000C27C, symSize: 0x4C }
  - { offset: 0x1DBE7A, size: 0x8, addend: 0x0, symName: __ZN5Eigen8internal21dense_assignment_loopINS0_31generic_dense_assignment_kernelINS0_9evaluatorINS_6MatrixIdLin1ELin1ELi0ELin1ELin1EEEEENS3_INS_14CwiseNullaryOpINS0_18scalar_identity_opIdEES5_EEEENS0_9assign_opIddEELi0EEELi0ELi0EE3runERSE_, symObjAddr: 0x8F10, symBinAddr: 0x10000C2C8, symSize: 0xAC }
  - { offset: 0x1DBED8, size: 0x8, addend: 0x0, symName: __ZN5Eigen8internal9evaluatorINS_14CwiseNullaryOpINS0_18scalar_identity_opIdEENS_6MatrixIdLin1ELin1ELi0ELin1ELin1EEEEEED1Ev, symObjAddr: 0x8FBC, symBinAddr: 0x10000C374, symSize: 0x2C }
  - { offset: 0x1DBF04, size: 0x8, addend: 0x0, symName: __ZN5Eigen8internal9evaluatorINS_14CwiseNullaryOpINS0_18scalar_identity_opIdEENS_6MatrixIdLin1ELin1ELi0ELin1ELin1EEEEEEC2ERKS7_, symObjAddr: 0x8FE8, symBinAddr: 0x10000C3A0, symSize: 0x74 }
  - { offset: 0x1DBF3D, size: 0x8, addend: 0x0, symName: __ZN5Eigen8internal14evaluator_baseINS_14CwiseNullaryOpINS0_18scalar_identity_opIdEENS_6MatrixIdLin1ELin1ELi0ELin1ELin1EEEEEEC2Ev, symObjAddr: 0x905C, symBinAddr: 0x10000C414, symSize: 0x14 }
  - { offset: 0x1DBF67, size: 0x8, addend: 0x0, symName: __ZNK5Eigen14CwiseNullaryOpINS_8internal18scalar_identity_opIdEENS_6MatrixIdLin1ELin1ELi0ELin1ELin1EEEE7functorEv, symObjAddr: 0x9070, symBinAddr: 0x10000C428, symSize: 0x18 }
  - { offset: 0x1DBF8D, size: 0x8, addend: 0x0, symName: __ZN5Eigen8internal14evaluator_baseINS_14CwiseNullaryOpINS0_18scalar_identity_opIdEENS_6MatrixIdLin1ELin1ELi0ELin1ELin1EEEEEED2Ev, symObjAddr: 0x9088, symBinAddr: 0x10000C440, symSize: 0x14 }
  - { offset: 0x1DBFB7, size: 0x8, addend: 0x0, symName: __ZNK5Eigen14CwiseNullaryOpINS_8internal18scalar_identity_opIdEENS_6MatrixIdLin1ELin1ELi0ELin1ELin1EEEE4rowsEv, symObjAddr: 0x909C, symBinAddr: 0x10000C454, symSize: 0x24 }
  - { offset: 0x1DBFDD, size: 0x8, addend: 0x0, symName: __ZNK5Eigen14CwiseNullaryOpINS_8internal18scalar_identity_opIdEENS_6MatrixIdLin1ELin1ELi0ELin1ELin1EEEE4colsEv, symObjAddr: 0x90C0, symBinAddr: 0x10000C478, symSize: 0x28 }
  - { offset: 0x1DC003, size: 0x8, addend: 0x0, symName: __ZN5Eigen8internal31generic_dense_assignment_kernelINS0_9evaluatorINS_6MatrixIdLin1ELin1ELi0ELin1ELin1EEEEENS2_INS_14CwiseNullaryOpINS0_18scalar_identity_opIdEES4_EEEENS0_9assign_opIddEELi0EEC2ERS5_RKSA_RKSC_RS4_, symObjAddr: 0x90E8, symBinAddr: 0x10000C4A0, symSize: 0x44 }
  - { offset: 0x1DC069, size: 0x8, addend: 0x0, symName: __ZNK5Eigen8internal31generic_dense_assignment_kernelINS0_9evaluatorINS_6MatrixIdLin1ELin1ELi0ELin1ELin1EEEEENS2_INS_14CwiseNullaryOpINS0_18scalar_identity_opIdEES4_EEEENS0_9assign_opIddEELi0EE9outerSizeEv, symObjAddr: 0x912C, symBinAddr: 0x10000C4E4, symSize: 0x38 }
  - { offset: 0x1DC08F, size: 0x8, addend: 0x0, symName: __ZNK5Eigen8internal31generic_dense_assignment_kernelINS0_9evaluatorINS_6MatrixIdLin1ELin1ELi0ELin1ELin1EEEEENS2_INS_14CwiseNullaryOpINS0_18scalar_identity_opIdEES4_EEEENS0_9assign_opIddEELi0EE9innerSizeEv, symObjAddr: 0x9164, symBinAddr: 0x10000C51C, symSize: 0x28 }
  - { offset: 0x1DC0B5, size: 0x8, addend: 0x0, symName: __ZN5Eigen8internal31generic_dense_assignment_kernelINS0_9evaluatorINS_6MatrixIdLin1ELin1ELi0ELin1ELin1EEEEENS2_INS_14CwiseNullaryOpINS0_18scalar_identity_opIdEES4_EEEENS0_9assign_opIddEELi0EE23assignCoeffByOuterInnerEll, symObjAddr: 0x918C, symBinAddr: 0x10000C544, symSize: 0x60 }
  - { offset: 0x1DC117, size: 0x8, addend: 0x0, symName: __ZNK5Eigen9DenseBaseINS_6MatrixIdLin1ELin1ELi0ELin1ELin1EEEE9outerSizeEv, symObjAddr: 0x91EC, symBinAddr: 0x10000C5A4, symSize: 0x24 }
  - { offset: 0x1DC13D, size: 0x8, addend: 0x0, symName: __ZN5Eigen8internal31generic_dense_assignment_kernelINS0_9evaluatorINS_6MatrixIdLin1ELin1ELi0ELin1ELin1EEEEENS2_INS_14CwiseNullaryOpINS0_18scalar_identity_opIdEES4_EEEENS0_9assign_opIddEELi0EE20rowIndexByOuterInnerEll, symObjAddr: 0x9210, symBinAddr: 0x10000C5C8, symSize: 0x18 }
  - { offset: 0x1DC170, size: 0x8, addend: 0x0, symName: __ZN5Eigen8internal31generic_dense_assignment_kernelINS0_9evaluatorINS_6MatrixIdLin1ELin1ELi0ELin1ELin1EEEEENS2_INS_14CwiseNullaryOpINS0_18scalar_identity_opIdEES4_EEEENS0_9assign_opIddEELi0EE20colIndexByOuterInnerEll, symObjAddr: 0x9228, symBinAddr: 0x10000C5E0, symSize: 0x18 }
  - { offset: 0x1DC1A3, size: 0x8, addend: 0x0, symName: __ZN5Eigen8internal31generic_dense_assignment_kernelINS0_9evaluatorINS_6MatrixIdLin1ELin1ELi0ELin1ELin1EEEEENS2_INS_14CwiseNullaryOpINS0_18scalar_identity_opIdEES4_EEEENS0_9assign_opIddEELi0EE11assignCoeffEll, symObjAddr: 0x9240, symBinAddr: 0x10000C5F8, symSize: 0x70 }
  - { offset: 0x1DC1F1, size: 0x8, addend: 0x0, symName: __ZNK5Eigen8internal9evaluatorINS_14CwiseNullaryOpINS0_18scalar_identity_opIdEENS_6MatrixIdLin1ELin1ELi0ELin1ELin1EEEEEE5coeffIlEEdT_SA_, symObjAddr: 0x92B0, symBinAddr: 0x10000C668, symSize: 0x3C }
  - { offset: 0x1DC243, size: 0x8, addend: 0x0, symName: __ZNK5Eigen8internal15nullary_wrapperIdNS0_18scalar_identity_opIdEELb0ELb0ELb1EEclIlEEdRKS3_T_S8_, symObjAddr: 0x92EC, symBinAddr: 0x10000C6A4, symSize: 0x38 }
  - { offset: 0x1DC2A4, size: 0x8, addend: 0x0, symName: __ZNK5Eigen8internal18scalar_identity_opIdEclIlEEKdT_S5_, symObjAddr: 0x9324, symBinAddr: 0x10000C6DC, symSize: 0x3C }
  - { offset: 0x1DC2EF, size: 0x8, addend: 0x0, symName: __ZN5Eigen8internal9evaluatorINS_14CwiseNullaryOpINS0_18scalar_identity_opIdEENS_6MatrixIdLin1ELin1ELi0ELin1ELin1EEEEEED2Ev, symObjAddr: 0x9360, symBinAddr: 0x10000C718, symSize: 0x2C }
  - { offset: 0x1DC31B, size: 0x8, addend: 0x0, symName: __ZNK5Eigen9EigenBaseINS_13CwiseBinaryOpINS_8internal18scalar_quotient_opIddEEKNS_6MatrixIdLin1ELin1ELi0ELin1ELin1EEEKNS_14CwiseNullaryOpINS2_18scalar_constant_opIdEES7_EEEEE7derivedEv, symObjAddr: 0x938C, symBinAddr: 0x10000C744, symSize: 0x14 }
  - { offset: 0x1DC341, size: 0x8, addend: 0x0, symName: __ZN5Eigen6MatrixIdLin1ELin1ELi0ELin1ELin1EEaSINS_13CwiseBinaryOpINS_8internal18scalar_quotient_opIddEEKS1_KNS_14CwiseNullaryOpINS4_18scalar_constant_opIdEES7_EEEEEERS1_RKNS_9DenseBaseIT_EE, symObjAddr: 0x93A0, symBinAddr: 0x10000C758, symSize: 0x2C }
  - { offset: 0x1DC37E, size: 0x8, addend: 0x0, symName: __ZNK5Eigen9EigenBaseINS_13CwiseBinaryOpINS_8internal18scalar_quotient_opIddEEKNS_6MatrixIdLin1ELin1ELi0ELin1ELin1EEEKNS_14CwiseNullaryOpINS2_18scalar_constant_opIdEES7_EEEEE4rowsEv, symObjAddr: 0x93CC, symBinAddr: 0x10000C784, symSize: 0x28 }
  - { offset: 0x1DC3A4, size: 0x8, addend: 0x0, symName: __ZN5Eigen15PlainObjectBaseINS_6MatrixIdLin1ELi1ELi0ELin1ELi1EEEE6resizeEll, symObjAddr: 0x93F4, symBinAddr: 0x10000C7AC, symSize: 0x168 }
  - { offset: 0x1DC420, size: 0x8, addend: 0x0, symName: __ZN5Eigen23HessenbergDecompositionINS_6MatrixIdLin1ELin1ELi0ELin1ELin1EEEE8_computeERS2_RNS1_IdLin1ELi1ELi0ELin1ELi1EEERNS1_IdLi1ELin1ELi1ELi1ELin1EEE, symObjAddr: 0x955C, symBinAddr: 0x10000C914, symSize: 0x248 }
  - { offset: 0x1DC4CD, size: 0x8, addend: 0x0, symName: __ZN5Eigen15PlainObjectBaseINS_6MatrixIdLin1ELin1ELi0ELin1ELin1EEEE4_setINS_13CwiseBinaryOpINS_8internal18scalar_quotient_opIddEEKS2_KNS_14CwiseNullaryOpINS6_18scalar_constant_opIdEES9_EEEEEERS2_RKNS_9DenseBaseIT_EE, symObjAddr: 0x97A4, symBinAddr: 0x10000CB5C, symSize: 0x4C }
  - { offset: 0x1DC50B, size: 0x8, addend: 0x0, symName: __ZN5Eigen8internal10AssignmentINS_6MatrixIdLin1ELin1ELi0ELin1ELin1EEENS_13CwiseBinaryOpINS0_18scalar_quotient_opIddEEKS3_KNS_14CwiseNullaryOpINS0_18scalar_constant_opIdEES7_EEEENS0_9assign_opIddEENS0_11Dense2DenseEvE3runERS3_RKSD_RKSF_, symObjAddr: 0x98B4, symBinAddr: 0x10000CC6C, symSize: 0x40 }
  - { offset: 0x1DC54D, size: 0x8, addend: 0x0, symName: __ZN5Eigen8internal27checkTransposeAliasing_implINS_6MatrixIdLin1ELin1ELi0ELin1ELin1EEENS_13CwiseBinaryOpINS0_18scalar_quotient_opIddEEKS3_KNS_14CwiseNullaryOpINS0_18scalar_constant_opIdEES7_EEEELb0EE3runERS7_RKSD_, symObjAddr: 0x9A2C, symBinAddr: 0x10000CDE4, symSize: 0x14 }
  - { offset: 0x1DC578, size: 0x8, addend: 0x0, symName: __ZN5Eigen8internal9evaluatorINS_13CwiseBinaryOpINS0_18scalar_quotient_opIddEEKNS_6MatrixIdLin1ELin1ELi0ELin1ELin1EEEKNS_14CwiseNullaryOpINS0_18scalar_constant_opIdEES7_EEEEEC1ERKSD_, symObjAddr: 0x9A40, symBinAddr: 0x10000CDF8, symSize: 0x34 }
  - { offset: 0x1DC5B1, size: 0x8, addend: 0x0, symName: __ZN5Eigen8internal31generic_dense_assignment_kernelINS0_9evaluatorINS_6MatrixIdLin1ELin1ELi0ELin1ELin1EEEEENS2_INS_13CwiseBinaryOpINS0_18scalar_quotient_opIddEEKS4_KNS_14CwiseNullaryOpINS0_18scalar_constant_opIdEES9_EEEEEENS0_9assign_opIddEELi0EEC1ERS5_RKSG_RKSI_RS4_, symObjAddr: 0x9B6C, symBinAddr: 0x10000CF24, symSize: 0x4C }
  - { offset: 0x1DC617, size: 0x8, addend: 0x0, symName: __ZN5Eigen8internal9evaluatorINS_13CwiseBinaryOpINS0_18scalar_quotient_opIddEEKNS_6MatrixIdLin1ELin1ELi0ELin1ELin1EEEKNS_14CwiseNullaryOpINS0_18scalar_constant_opIdEES7_EEEEED1Ev, symObjAddr: 0x9C60, symBinAddr: 0x10000D018, symSize: 0x2C }
  - { offset: 0x1DC644, size: 0x8, addend: 0x0, symName: __ZN5Eigen8internal9evaluatorINS_13CwiseBinaryOpINS0_18scalar_quotient_opIddEEKNS_6MatrixIdLin1ELin1ELi0ELin1ELin1EEEKNS_14CwiseNullaryOpINS0_18scalar_constant_opIdEES7_EEEEEC2ERKSD_, symObjAddr: 0x9C8C, symBinAddr: 0x10000D044, symSize: 0x34 }
  - { offset: 0x1DC67D, size: 0x8, addend: 0x0, symName: __ZN5Eigen8internal16binary_evaluatorINS_13CwiseBinaryOpINS0_18scalar_quotient_opIddEEKNS_6MatrixIdLin1ELin1ELi0ELin1ELin1EEEKNS_14CwiseNullaryOpINS0_18scalar_constant_opIdEES7_EEEENS0_10IndexBasedESE_ddEC2ERKSD_, symObjAddr: 0x9CC0, symBinAddr: 0x10000D078, symSize: 0x64 }
  - { offset: 0x1DC6B6, size: 0x8, addend: 0x0, symName: __ZN5Eigen8internal14evaluator_baseINS_13CwiseBinaryOpINS0_18scalar_quotient_opIddEEKNS_6MatrixIdLin1ELin1ELi0ELin1ELin1EEEKNS_14CwiseNullaryOpINS0_18scalar_constant_opIdEES7_EEEEEC2Ev, symObjAddr: 0x9D24, symBinAddr: 0x10000D0DC, symSize: 0x14 }
  - { offset: 0x1DC6E0, size: 0x8, addend: 0x0, symName: __ZN5Eigen8internal16binary_evaluatorINS_13CwiseBinaryOpINS0_18scalar_quotient_opIddEEKNS_6MatrixIdLin1ELin1ELi0ELin1ELin1EEEKNS_14CwiseNullaryOpINS0_18scalar_constant_opIdEES7_EEEENS0_10IndexBasedESE_ddE4DataC1ERKSD_, symObjAddr: 0x9D38, symBinAddr: 0x10000D0F0, symSize: 0x34 }
  - { offset: 0x1DC719, size: 0x8, addend: 0x0, symName: __ZN5Eigen8internal14evaluator_baseINS_13CwiseBinaryOpINS0_18scalar_quotient_opIddEEKNS_6MatrixIdLin1ELin1ELi0ELin1ELin1EEEKNS_14CwiseNullaryOpINS0_18scalar_constant_opIdEES7_EEEEED2Ev, symObjAddr: 0x9D6C, symBinAddr: 0x10000D124, symSize: 0x14 }
  - { offset: 0x1DC743, size: 0x8, addend: 0x0, symName: __ZN5Eigen8internal16binary_evaluatorINS_13CwiseBinaryOpINS0_18scalar_quotient_opIddEEKNS_6MatrixIdLin1ELin1ELi0ELin1ELin1EEEKNS_14CwiseNullaryOpINS0_18scalar_constant_opIdEES7_EEEENS0_10IndexBasedESE_ddE4DataC2ERKSD_, symObjAddr: 0x9D80, symBinAddr: 0x10000D138, symSize: 0xA0 }
  - { offset: 0x1DC77C, size: 0x8, addend: 0x0, symName: __ZNK5Eigen13CwiseBinaryOpINS_8internal18scalar_quotient_opIddEEKNS_6MatrixIdLin1ELin1ELi0ELin1ELin1EEEKNS_14CwiseNullaryOpINS1_18scalar_constant_opIdEES6_EEE7functorEv, symObjAddr: 0x9E20, symBinAddr: 0x10000D1D8, symSize: 0x18 }
  - { offset: 0x1DC7A2, size: 0x8, addend: 0x0, symName: __ZN5Eigen8internal18scalar_quotient_opIddEC1ERKS2_, symObjAddr: 0x9E38, symBinAddr: 0x10000D1F0, symSize: 0x34 }
  - { offset: 0x1DC7D7, size: 0x8, addend: 0x0, symName: __ZNK5Eigen13CwiseBinaryOpINS_8internal18scalar_quotient_opIddEEKNS_6MatrixIdLin1ELin1ELi0ELin1ELin1EEEKNS_14CwiseNullaryOpINS1_18scalar_constant_opIdEES6_EEE3lhsEv, symObjAddr: 0x9E6C, symBinAddr: 0x10000D224, symSize: 0x18 }
  - { offset: 0x1DC7FD, size: 0x8, addend: 0x0, symName: __ZNK5Eigen13CwiseBinaryOpINS_8internal18scalar_quotient_opIddEEKNS_6MatrixIdLin1ELin1ELi0ELin1ELin1EEEKNS_14CwiseNullaryOpINS1_18scalar_constant_opIdEES6_EEE3rhsEv, symObjAddr: 0x9E84, symBinAddr: 0x10000D23C, symSize: 0x18 }
  - { offset: 0x1DC823, size: 0x8, addend: 0x0, symName: __ZN5Eigen8internal9evaluatorIKNS_14CwiseNullaryOpINS0_18scalar_constant_opIdEEKNS_6MatrixIdLin1ELin1ELi0ELin1ELin1EEEEEEC1ERS9_, symObjAddr: 0x9E9C, symBinAddr: 0x10000D254, symSize: 0x34 }
  - { offset: 0x1DC85B, size: 0x8, addend: 0x0, symName: __ZN5Eigen8internal18scalar_quotient_opIddEC2ERKS2_, symObjAddr: 0x9ED0, symBinAddr: 0x10000D288, symSize: 0x18 }
  - { offset: 0x1DC890, size: 0x8, addend: 0x0, symName: __ZN5Eigen8internal9evaluatorIKNS_14CwiseNullaryOpINS0_18scalar_constant_opIdEEKNS_6MatrixIdLin1ELin1ELi0ELin1ELin1EEEEEEC2ERS9_, symObjAddr: 0x9EE8, symBinAddr: 0x10000D2A0, symSize: 0x34 }
  - { offset: 0x1DC8C8, size: 0x8, addend: 0x0, symName: __ZN5Eigen8internal9evaluatorINS_14CwiseNullaryOpINS0_18scalar_constant_opIdEEKNS_6MatrixIdLin1ELin1ELi0ELin1ELin1EEEEEEC2ERKS8_, symObjAddr: 0x9F1C, symBinAddr: 0x10000D2D4, symSize: 0x74 }
  - { offset: 0x1DC901, size: 0x8, addend: 0x0, symName: __ZN5Eigen8internal14evaluator_baseINS_14CwiseNullaryOpINS0_18scalar_constant_opIdEEKNS_6MatrixIdLin1ELin1ELi0ELin1ELin1EEEEEEC2Ev, symObjAddr: 0x9F90, symBinAddr: 0x10000D348, symSize: 0x14 }
  - { offset: 0x1DC92B, size: 0x8, addend: 0x0, symName: __ZNK5Eigen14CwiseNullaryOpINS_8internal18scalar_constant_opIdEEKNS_6MatrixIdLin1ELin1ELi0ELin1ELin1EEEE7functorEv, symObjAddr: 0x9FA4, symBinAddr: 0x10000D35C, symSize: 0x18 }
  - { offset: 0x1DC951, size: 0x8, addend: 0x0, symName: __ZN5Eigen8internal14evaluator_baseINS_14CwiseNullaryOpINS0_18scalar_constant_opIdEEKNS_6MatrixIdLin1ELin1ELi0ELin1ELin1EEEEEED2Ev, symObjAddr: 0x9FBC, symBinAddr: 0x10000D374, symSize: 0x14 }
  - { offset: 0x1DC97B, size: 0x8, addend: 0x0, symName: __ZNK5Eigen13CwiseBinaryOpINS_8internal18scalar_quotient_opIddEEKNS_6MatrixIdLin1ELin1ELi0ELin1ELin1EEEKNS_14CwiseNullaryOpINS1_18scalar_constant_opIdEES6_EEE4rowsEv, symObjAddr: 0x9FD0, symBinAddr: 0x10000D388, symSize: 0x38 }
  - { offset: 0x1DC9A1, size: 0x8, addend: 0x0, symName: __ZNK5Eigen13CwiseBinaryOpINS_8internal18scalar_quotient_opIddEEKNS_6MatrixIdLin1ELin1ELi0ELin1ELin1EEEKNS_14CwiseNullaryOpINS1_18scalar_constant_opIdEES6_EEE4colsEv, symObjAddr: 0xA008, symBinAddr: 0x10000D3C0, symSize: 0x38 }
  - { offset: 0x1DC9C7, size: 0x8, addend: 0x0, symName: __ZNK5Eigen14CwiseNullaryOpINS_8internal18scalar_constant_opIdEEKNS_6MatrixIdLin1ELin1ELi0ELin1ELin1EEEE4rowsEv, symObjAddr: 0xA040, symBinAddr: 0x10000D3F8, symSize: 0x24 }
  - { offset: 0x1DC9ED, size: 0x8, addend: 0x0, symName: __ZNK5Eigen14CwiseNullaryOpINS_8internal18scalar_constant_opIdEEKNS_6MatrixIdLin1ELin1ELi0ELin1ELin1EEEE4colsEv, symObjAddr: 0xA064, symBinAddr: 0x10000D41C, symSize: 0x28 }
  - { offset: 0x1DCA13, size: 0x8, addend: 0x0, symName: __ZN5Eigen8internal31generic_dense_assignment_kernelINS0_9evaluatorINS_6MatrixIdLin1ELin1ELi0ELin1ELin1EEEEENS2_INS_13CwiseBinaryOpINS0_18scalar_quotient_opIddEEKS4_KNS_14CwiseNullaryOpINS0_18scalar_constant_opIdEES9_EEEEEENS0_9assign_opIddEELi0EEC2ERS5_RKSG_RKSI_RS4_, symObjAddr: 0xA08C, symBinAddr: 0x10000D444, symSize: 0x44 }
  - { offset: 0x1DCA79, size: 0x8, addend: 0x0, symName: __ZNK5Eigen8internal31generic_dense_assignment_kernelINS0_9evaluatorINS_6MatrixIdLin1ELin1ELi0ELin1ELin1EEEEENS2_INS_13CwiseBinaryOpINS0_18scalar_quotient_opIddEEKS4_KNS_14CwiseNullaryOpINS0_18scalar_constant_opIdEES9_EEEEEENS0_9assign_opIddEELi0EE4sizeEv, symObjAddr: 0xA0D0, symBinAddr: 0x10000D488, symSize: 0x28 }
  - { offset: 0x1DCA9F, size: 0x8, addend: 0x0, symName: __ZN5Eigen8internal31unaligned_dense_assignment_loopILb1EE3runINS0_31generic_dense_assignment_kernelINS0_9evaluatorINS_6MatrixIdLin1ELin1ELi0ELin1ELin1EEEEENS5_INS_13CwiseBinaryOpINS0_18scalar_quotient_opIddEEKS7_KNS_14CwiseNullaryOpINS0_18scalar_constant_opIdEESC_EEEEEENS0_9assign_opIddEELi0EEEEEvRT_ll, symObjAddr: 0xA0F8, symBinAddr: 0x10000D4B0, symSize: 0x18 }
  - { offset: 0x1DCADE, size: 0x8, addend: 0x0, symName: __ZN5Eigen8internal31generic_dense_assignment_kernelINS0_9evaluatorINS_6MatrixIdLin1ELin1ELi0ELin1ELin1EEEEENS2_INS_13CwiseBinaryOpINS0_18scalar_quotient_opIddEEKS4_KNS_14CwiseNullaryOpINS0_18scalar_constant_opIdEES9_EEEEEENS0_9assign_opIddEELi0EE12assignPacketILi16ELi16E19__simd128_float64_tEEvl, symObjAddr: 0xA110, symBinAddr: 0x10000D4C8, symSize: 0x64 }
  - { offset: 0x1DCB30, size: 0x8, addend: 0x0, symName: __ZN5Eigen8internal31unaligned_dense_assignment_loopILb0EE3runINS0_31generic_dense_assignment_kernelINS0_9evaluatorINS_6MatrixIdLin1ELin1ELi0ELin1ELin1EEEEENS5_INS_13CwiseBinaryOpINS0_18scalar_quotient_opIddEEKS7_KNS_14CwiseNullaryOpINS0_18scalar_constant_opIdEESC_EEEEEENS0_9assign_opIddEELi0EEEEEvRT_ll, symObjAddr: 0xA174, symBinAddr: 0x10000D52C, symSize: 0x68 }
  - { offset: 0x1DCB98, size: 0x8, addend: 0x0, symName: __ZNK5Eigen8internal16binary_evaluatorINS_13CwiseBinaryOpINS0_18scalar_quotient_opIddEEKNS_6MatrixIdLin1ELin1ELi0ELin1ELin1EEEKNS_14CwiseNullaryOpINS0_18scalar_constant_opIdEES7_EEEENS0_10IndexBasedESE_ddE6packetILi16E19__simd128_float64_tEET0_l, symObjAddr: 0xA1DC, symBinAddr: 0x10000D594, symSize: 0x70 }
  - { offset: 0x1DCBE0, size: 0x8, addend: 0x0, symName: __ZNK5Eigen8internal16binary_evaluatorINS_13CwiseBinaryOpINS0_18scalar_quotient_opIddEEKNS_6MatrixIdLin1ELin1ELi0ELin1ELin1EEEKNS_14CwiseNullaryOpINS0_18scalar_constant_opIdEES7_EEEENS0_10IndexBasedESE_ddE4Data4funcEv, symObjAddr: 0xA24C, symBinAddr: 0x10000D604, symSize: 0x14 }
  - { offset: 0x1DCC06, size: 0x8, addend: 0x0, symName: __ZNK5Eigen8internal18scalar_quotient_opIddE8packetOpI19__simd128_float64_tEEKT_RS6_S7_, symObjAddr: 0xA260, symBinAddr: 0x10000D618, symSize: 0x30 }
  - { offset: 0x1DCC5D, size: 0x8, addend: 0x0, symName: __ZNK5Eigen8internal9evaluatorINS_14CwiseNullaryOpINS0_18scalar_constant_opIdEEKNS_6MatrixIdLin1ELin1ELi0ELin1ELin1EEEEEE6packetILi16E19__simd128_float64_tlEET0_T1_, symObjAddr: 0xA290, symBinAddr: 0x10000D648, symSize: 0x38 }
  - { offset: 0x1DCCB3, size: 0x8, addend: 0x0, symName: __ZNK5Eigen8internal15nullary_wrapperIdNS0_18scalar_constant_opIdEELb1ELb0ELb0EE8packetOpI19__simd128_float64_tlEET_RKS3_T0_SA_, symObjAddr: 0xA308, symBinAddr: 0x10000D6C0, symSize: 0x30 }
  - { offset: 0x1DCD10, size: 0x8, addend: 0x0, symName: __ZNK5Eigen8internal18scalar_constant_opIdE8packetOpI19__simd128_float64_tEEKT_v, symObjAddr: 0xA338, symBinAddr: 0x10000D6F0, symSize: 0x24 }
  - { offset: 0x1DCD3F, size: 0x8, addend: 0x0, symName: __ZN5Eigen8internal31generic_dense_assignment_kernelINS0_9evaluatorINS_6MatrixIdLin1ELin1ELi0ELin1ELin1EEEEENS2_INS_13CwiseBinaryOpINS0_18scalar_quotient_opIddEEKS4_KNS_14CwiseNullaryOpINS0_18scalar_constant_opIdEES9_EEEEEENS0_9assign_opIddEELi0EE11assignCoeffEl, symObjAddr: 0xA3A0, symBinAddr: 0x10000D758, symSize: 0x64 }
  - { offset: 0x1DCD74, size: 0x8, addend: 0x0, symName: __ZNK5Eigen8internal16binary_evaluatorINS_13CwiseBinaryOpINS0_18scalar_quotient_opIddEEKNS_6MatrixIdLin1ELin1ELi0ELin1ELin1EEEKNS_14CwiseNullaryOpINS0_18scalar_constant_opIdEES7_EEEENS0_10IndexBasedESE_ddE5coeffEl, symObjAddr: 0xA404, symBinAddr: 0x10000D7BC, symSize: 0x68 }
  - { offset: 0x1DCDA9, size: 0x8, addend: 0x0, symName: __ZNK5Eigen8internal18scalar_quotient_opIddEclERKdS4_, symObjAddr: 0xA46C, symBinAddr: 0x10000D824, symSize: 0x2C }
  - { offset: 0x1DCDED, size: 0x8, addend: 0x0, symName: __ZNK5Eigen8internal9evaluatorINS_14CwiseNullaryOpINS0_18scalar_constant_opIdEEKNS_6MatrixIdLin1ELin1ELi0ELin1ELin1EEEEEE5coeffIlEEdT_, symObjAddr: 0xA498, symBinAddr: 0x10000D850, symSize: 0x38 }
  - { offset: 0x1DCE2B, size: 0x8, addend: 0x0, symName: __ZNK5Eigen8internal15nullary_wrapperIdNS0_18scalar_constant_opIdEELb1ELb0ELb0EEclIlEEdRKS3_T_S8_, symObjAddr: 0xA4D0, symBinAddr: 0x10000D888, symSize: 0x30 }
  - { offset: 0x1DCE7F, size: 0x8, addend: 0x0, symName: __ZN5Eigen8internal9evaluatorINS_13CwiseBinaryOpINS0_18scalar_quotient_opIddEEKNS_6MatrixIdLin1ELin1ELi0ELin1ELin1EEEKNS_14CwiseNullaryOpINS0_18scalar_constant_opIdEES7_EEEEED2Ev, symObjAddr: 0xA500, symBinAddr: 0x10000D8B8, symSize: 0x2C }
  - { offset: 0x1DCEAC, size: 0x8, addend: 0x0, symName: __ZN5Eigen8internal16binary_evaluatorINS_13CwiseBinaryOpINS0_18scalar_quotient_opIddEEKNS_6MatrixIdLin1ELin1ELi0ELin1ELin1EEEKNS_14CwiseNullaryOpINS0_18scalar_constant_opIdEES7_EEEENS0_10IndexBasedESE_ddED2Ev, symObjAddr: 0xA52C, symBinAddr: 0x10000D8E4, symSize: 0x34 }
  - { offset: 0x1DCED8, size: 0x8, addend: 0x0, symName: __ZN5Eigen8internal16binary_evaluatorINS_13CwiseBinaryOpINS0_18scalar_quotient_opIddEEKNS_6MatrixIdLin1ELin1ELi0ELin1ELin1EEEKNS_14CwiseNullaryOpINS0_18scalar_constant_opIdEES7_EEEENS0_10IndexBasedESE_ddE4DataD1Ev, symObjAddr: 0xA560, symBinAddr: 0x10000D918, symSize: 0x2C }
  - { offset: 0x1DCF05, size: 0x8, addend: 0x0, symName: __ZN5Eigen8internal16binary_evaluatorINS_13CwiseBinaryOpINS0_18scalar_quotient_opIddEEKNS_6MatrixIdLin1ELin1ELi0ELin1ELin1EEEKNS_14CwiseNullaryOpINS0_18scalar_constant_opIdEES7_EEEENS0_10IndexBasedESE_ddE4DataD2Ev, symObjAddr: 0xA58C, symBinAddr: 0x10000D944, symSize: 0x3C }
  - { offset: 0x1DCF32, size: 0x8, addend: 0x0, symName: __ZN5Eigen8internal9evaluatorIKNS_14CwiseNullaryOpINS0_18scalar_constant_opIdEEKNS_6MatrixIdLin1ELin1ELi0ELin1ELin1EEEEEED1Ev, symObjAddr: 0xA5C8, symBinAddr: 0x10000D980, symSize: 0x2C }
  - { offset: 0x1DCF5E, size: 0x8, addend: 0x0, symName: __ZN5Eigen8internal9evaluatorIKNS_14CwiseNullaryOpINS0_18scalar_constant_opIdEEKNS_6MatrixIdLin1ELin1ELi0ELin1ELin1EEEEEED2Ev, symObjAddr: 0xA5F4, symBinAddr: 0x10000D9AC, symSize: 0x2C }
  - { offset: 0x1DCF8A, size: 0x8, addend: 0x0, symName: __ZN5Eigen8internal9evaluatorINS_14CwiseNullaryOpINS0_18scalar_constant_opIdEEKNS_6MatrixIdLin1ELin1ELi0ELin1ELin1EEEEEED2Ev, symObjAddr: 0xA620, symBinAddr: 0x10000D9D8, symSize: 0x2C }
  - { offset: 0x1DCFB6, size: 0x8, addend: 0x0, symName: __ZN5Eigen9DenseBaseINS_6MatrixIdLin1ELin1ELi0ELin1ELin1EEEE3colEl, symObjAddr: 0xA64C, symBinAddr: 0x10000DA04, symSize: 0x3C }
  - { offset: 0x1DCFF0, size: 0x8, addend: 0x0, symName: __ZN5Eigen9DenseBaseINS_5BlockINS_6MatrixIdLin1ELin1ELi0ELin1ELin1EEELin1ELi1ELb1EEEE4tailIlEENS5_22FixedSegmentReturnTypeIXsr8internal15get_fixed_valueIT_EE5valueEE4TypeES8_, symObjAddr: 0xA688, symBinAddr: 0x10000DA40, symSize: 0x84 }
  - { offset: 0x1DD02E, size: 0x8, addend: 0x0, symName: __ZN5Eigen10MatrixBaseINS_5BlockINS1_INS_6MatrixIdLin1ELin1ELi0ELin1ELin1EEELin1ELi1ELb1EEELin1ELi1ELb0EEEE22makeHouseholderInPlaceERdS7_, symObjAddr: 0xA70C, symBinAddr: 0x10000DAC4, symSize: 0x6C }
  - { offset: 0x1DD082, size: 0x8, addend: 0x0, symName: __ZN5Eigen7MapBaseINS_5BlockINS_6MatrixIdLin1ELin1ELi0ELin1ELin1EEELin1ELi1ELb1EEELi1EE8coeffRefEl, symObjAddr: 0xA778, symBinAddr: 0x10000DB30, symSize: 0x48 }
  - { offset: 0x1DD0B7, size: 0x8, addend: 0x0, symName: __ZN5Eigen15PlainObjectBaseINS_6MatrixIdLin1ELi1ELi0ELin1ELi1EEEE8coeffRefEl, symObjAddr: 0xA7C0, symBinAddr: 0x10000DB78, symSize: 0x30 }
  - { offset: 0x1DD0EB, size: 0x8, addend: 0x0, symName: __ZN5Eigen9DenseBaseINS_6MatrixIdLin1ELin1ELi0ELin1ELin1EEEE17bottomRightCornerIllEENS3_13FixedBlockXprIXsr8internal15get_fixed_valueIT_EE5valueEXsr8internal15get_fixed_valueIT0_EE5valueEE4TypeES6_S7_, symObjAddr: 0xA7F0, symBinAddr: 0x10000DBA8, symSize: 0xD0 }
  - { offset: 0x1DD150, size: 0x8, addend: 0x0, symName: __ZN5Eigen10MatrixBaseINS_5BlockINS_6MatrixIdLin1ELin1ELi0ELin1ELin1EEELin1ELin1ELb0EEEE25applyHouseholderOnTheLeftINS_11VectorBlockINS1_IS3_Lin1ELi1ELb1EEELin1EEEEEvRKT_RKdPd, symObjAddr: 0xA8C0, symBinAddr: 0x10000DC78, symSize: 0x22C }
  - { offset: 0x1DD1DE, size: 0x8, addend: 0x0, symName: __ZN5Eigen15PlainObjectBaseINS_6MatrixIdLi1ELin1ELi1ELi1ELin1EEEE8coeffRefEl, symObjAddr: 0xAAEC, symBinAddr: 0x10000DEA4, symSize: 0x30 }
  - { offset: 0x1DD212, size: 0x8, addend: 0x0, symName: __ZN5Eigen9DenseBaseINS_6MatrixIdLin1ELin1ELi0ELin1ELin1EEEE9rightColsIlEENS3_13NColsBlockXprIXsr8internal15get_fixed_valueIT_EE5valueEE4TypeES6_, symObjAddr: 0xAB1C, symBinAddr: 0x10000DED4, symSize: 0x9C }
  - { offset: 0x1DD255, size: 0x8, addend: 0x0, symName: __ZN5Eigen10MatrixBaseINS_5BlockINS_6MatrixIdLin1ELin1ELi0ELin1ELin1EEELin1ELin1ELb1EEEE26applyHouseholderOnTheRightINS_11VectorBlockINS1_IS3_Lin1ELi1ELb1EEELin1EEEEEvRKT_RKdPd, symObjAddr: 0xABB8, symBinAddr: 0x10000DF70, symSize: 0x220 }
  - { offset: 0x1DD2E3, size: 0x8, addend: 0x0, symName: __ZN5Eigen5BlockINS_6MatrixIdLin1ELin1ELi0ELin1ELin1EEELin1ELi1ELb1EEC1ERS2_l, symObjAddr: 0xADFC, symBinAddr: 0x10000E1B4, symSize: 0x3C }
  - { offset: 0x1DD329, size: 0x8, addend: 0x0, symName: __ZN5Eigen5BlockINS_6MatrixIdLin1ELin1ELi0ELin1ELin1EEELin1ELi1ELb1EEC2ERS2_l, symObjAddr: 0xAE38, symBinAddr: 0x10000E1F0, symSize: 0xAC }
  - { offset: 0x1DD36F, size: 0x8, addend: 0x0, symName: __ZN5Eigen9BlockImplINS_6MatrixIdLin1ELin1ELi0ELin1ELin1EEELin1ELi1ELb1ENS_5DenseEEC2ERS2_l, symObjAddr: 0xAEE4, symBinAddr: 0x10000E29C, symSize: 0x3C }
  - { offset: 0x1DD3B5, size: 0x8, addend: 0x0, symName: __ZN5Eigen8internal15BlockImpl_denseINS_6MatrixIdLin1ELin1ELi0ELin1ELin1EEELin1ELi1ELb1ELb1EEC2ERS3_l, symObjAddr: 0xAF20, symBinAddr: 0x10000E2D8, symSize: 0xAC }
  - { offset: 0x1DD3FD, size: 0x8, addend: 0x0, symName: __ZN5Eigen7MapBaseINS_5BlockINS_6MatrixIdLin1ELin1ELi0ELin1ELin1EEELin1ELi1ELb1EEELi1EEC2EPdll, symObjAddr: 0xAFCC, symBinAddr: 0x10000E384, symSize: 0x44 }
  - { offset: 0x1DD454, size: 0x8, addend: 0x0, symName: __ZN5Eigen8internal15BlockImpl_denseINS_6MatrixIdLin1ELin1ELi0ELin1ELin1EEELin1ELi1ELb1ELb1EE4initEv, symObjAddr: 0xB010, symBinAddr: 0x10000E3C8, symSize: 0x34 }
  - { offset: 0x1DD47A, size: 0x8, addend: 0x0, symName: __ZN5Eigen7MapBaseINS_5BlockINS_6MatrixIdLin1ELin1ELi0ELin1ELin1EEELin1ELi1ELb1EEELi0EEC2EPdll, symObjAddr: 0xB044, symBinAddr: 0x10000E3FC, symSize: 0x11C }
  - { offset: 0x1DD4CE, size: 0x8, addend: 0x0, symName: __ZN5Eigen10MatrixBaseINS_5BlockINS_6MatrixIdLin1ELin1ELi0ELin1ELin1EEELin1ELi1ELb1EEEEC2Ev, symObjAddr: 0xB160, symBinAddr: 0x10000E518, symSize: 0x2C }
  - { offset: 0x1DD4F8, size: 0x8, addend: 0x0, symName: __ZN5Eigen8internal19variable_if_dynamicIlLi1EEC1El, symObjAddr: 0xB18C, symBinAddr: 0x10000E544, symSize: 0x34 }
  - { offset: 0x1DD530, size: 0x8, addend: 0x0, symName: __ZNK5Eigen7MapBaseINS_5BlockINS_6MatrixIdLin1ELin1ELi0ELin1ELin1EEELin1ELi1ELb1EEELi0EE11checkSanityIS4_EEvNS_8internal9enable_ifIXeqsr8internal6traitsIT_EE9AlignmentLi0EEPvE4typeE, symObjAddr: 0xB1C0, symBinAddr: 0x10000E578, symSize: 0x14 }
  - { offset: 0x1DD56A, size: 0x8, addend: 0x0, symName: __ZN5Eigen9DenseBaseINS_5BlockINS_6MatrixIdLin1ELin1ELi0ELin1ELin1EEELin1ELi1ELb1EEEEC2Ev, symObjAddr: 0xB1D4, symBinAddr: 0x10000E58C, symSize: 0x14 }
  - { offset: 0x1DD594, size: 0x8, addend: 0x0, symName: __ZN5Eigen8internal19variable_if_dynamicIlLi1EEC2El, symObjAddr: 0xB1E8, symBinAddr: 0x10000E5A0, symSize: 0x64 }
  - { offset: 0x1DD5CC, size: 0x8, addend: 0x0, symName: __ZN5Eigen9EigenBaseINS_5BlockINS_6MatrixIdLin1ELin1ELi0ELin1ELin1EEELin1ELi1ELb1EEEE7derivedEv, symObjAddr: 0xB24C, symBinAddr: 0x10000E604, symSize: 0x14 }
  - { offset: 0x1DD5F2, size: 0x8, addend: 0x0, symName: __ZNK5Eigen9EigenBaseINS_5BlockINS_6MatrixIdLin1ELin1ELi0ELin1ELin1EEELin1ELi1ELb1EEEE4sizeEv, symObjAddr: 0xB260, symBinAddr: 0x10000E618, symSize: 0x44 }
  - { offset: 0x1DD618, size: 0x8, addend: 0x0, symName: __ZN5Eigen11VectorBlockINS_5BlockINS_6MatrixIdLin1ELin1ELi0ELin1ELin1EEELin1ELi1ELb1EEELin1EEC1ERS4_ll, symObjAddr: 0xB2BC, symBinAddr: 0x10000E674, symSize: 0x44 }
  - { offset: 0x1DD66C, size: 0x8, addend: 0x0, symName: __ZNK5Eigen9EigenBaseINS_5BlockINS_6MatrixIdLin1ELin1ELi0ELin1ELin1EEELin1ELi1ELb1EEEE4rowsEv, symObjAddr: 0xB300, symBinAddr: 0x10000E6B8, symSize: 0x38 }
  - { offset: 0x1DD692, size: 0x8, addend: 0x0, symName: __ZNK5Eigen9EigenBaseINS_5BlockINS_6MatrixIdLin1ELin1ELi0ELin1ELin1EEELin1ELi1ELb1EEEE4colsEv, symObjAddr: 0xB338, symBinAddr: 0x10000E6F0, symSize: 0x28 }
  - { offset: 0x1DD6B8, size: 0x8, addend: 0x0, symName: __ZNK5Eigen9EigenBaseINS_5BlockINS_6MatrixIdLin1ELin1ELi0ELin1ELin1EEELin1ELi1ELb1EEEE7derivedEv, symObjAddr: 0xB360, symBinAddr: 0x10000E718, symSize: 0x14 }
  - { offset: 0x1DD6DE, size: 0x8, addend: 0x0, symName: __ZNK5Eigen7MapBaseINS_5BlockINS_6MatrixIdLin1ELin1ELi0ELin1ELin1EEELin1ELi1ELb1EEELi0EE4rowsEv, symObjAddr: 0xB374, symBinAddr: 0x10000E72C, symSize: 0x28 }
  - { offset: 0x1DD704, size: 0x8, addend: 0x0, symName: __ZNK5Eigen7MapBaseINS_5BlockINS_6MatrixIdLin1ELin1ELi0ELin1ELin1EEELin1ELi1ELb1EEELi0EE4colsEv, symObjAddr: 0xB39C, symBinAddr: 0x10000E754, symSize: 0x30 }
  - { offset: 0x1DD72A, size: 0x8, addend: 0x0, symName: __ZN5Eigen8internal19variable_if_dynamicIlLi1EE5valueEv, symObjAddr: 0xB3CC, symBinAddr: 0x10000E784, symSize: 0x8 }
  - { offset: 0x1DD73E, size: 0x8, addend: 0x0, symName: __ZN5Eigen11VectorBlockINS_5BlockINS_6MatrixIdLin1ELin1ELi0ELin1ELin1EEELin1ELi1ELb1EEELin1EEC2ERS4_ll, symObjAddr: 0xB3D4, symBinAddr: 0x10000E78C, symSize: 0x4C }
  - { offset: 0x1DD792, size: 0x8, addend: 0x0, symName: __ZN5Eigen5BlockINS0_INS_6MatrixIdLin1ELin1ELi0ELin1ELin1EEELin1ELi1ELb1EEELin1ELi1ELb0EEC2ERS3_llll, symObjAddr: 0xB420, symBinAddr: 0x10000E7D8, symSize: 0x190 }
  - { offset: 0x1DD802, size: 0x8, addend: 0x0, symName: __ZN5Eigen9BlockImplINS_5BlockINS_6MatrixIdLin1ELin1ELi0ELin1ELin1EEELin1ELi1ELb1EEELin1ELi1ELb0ENS_5DenseEEC2ERS4_llll, symObjAddr: 0xB5B0, symBinAddr: 0x10000E968, symSize: 0x54 }
  - { offset: 0x1DD872, size: 0x8, addend: 0x0, symName: __ZN5Eigen8internal15BlockImpl_denseINS_5BlockINS_6MatrixIdLin1ELin1ELi0ELin1ELin1EEELin1ELi1ELb1EEELin1ELi1ELb0ELb1EEC2ERS5_llll, symObjAddr: 0xB604, symBinAddr: 0x10000E9BC, symSize: 0xCC }
  - { offset: 0x1DD8E7, size: 0x8, addend: 0x0, symName: __ZN5Eigen7MapBaseINS_5BlockINS_6MatrixIdLin1ELin1ELi0ELin1ELin1EEELin1ELi1ELb1EEELi1EE4dataEv, symObjAddr: 0xB6D0, symBinAddr: 0x10000EA88, symSize: 0x18 }
  - { offset: 0x1DD90D, size: 0x8, addend: 0x0, symName: __ZNK5Eigen8internal15BlockImpl_denseINS_6MatrixIdLin1ELin1ELi0ELin1ELin1EEELin1ELi1ELb1ELb1EE11innerStrideEv, symObjAddr: 0xB6E8, symBinAddr: 0x10000EAA0, symSize: 0x28 }
  - { offset: 0x1DD933, size: 0x8, addend: 0x0, symName: __ZNK5Eigen8internal15BlockImpl_denseINS_6MatrixIdLin1ELin1ELi0ELin1ELin1EEELin1ELi1ELb1ELb1EE11outerStrideEv, symObjAddr: 0xB710, symBinAddr: 0x10000EAC8, symSize: 0x28 }
  - { offset: 0x1DD959, size: 0x8, addend: 0x0, symName: __ZN5Eigen7MapBaseINS_5BlockINS1_INS_6MatrixIdLin1ELin1ELi0ELin1ELin1EEELin1ELi1ELb1EEELin1ELi1ELb0EEELi1EEC2EPdll, symObjAddr: 0xB738, symBinAddr: 0x10000EAF0, symSize: 0x44 }
  - { offset: 0x1DD9B0, size: 0x8, addend: 0x0, symName: __ZN5Eigen8internal19variable_if_dynamicIlLi0EEC1El, symObjAddr: 0xB77C, symBinAddr: 0x10000EB34, symSize: 0x34 }
  - { offset: 0x1DD9E8, size: 0x8, addend: 0x0, symName: __ZN5Eigen8internal15BlockImpl_denseINS_5BlockINS_6MatrixIdLin1ELin1ELi0ELin1ELin1EEELin1ELi1ELb1EEELin1ELi1ELb0ELb1EE4initEv, symObjAddr: 0xB7B0, symBinAddr: 0x10000EB68, symSize: 0x34 }
  - { offset: 0x1DDA0E, size: 0x8, addend: 0x0, symName: __ZNK5Eigen6MatrixIdLin1ELin1ELi0ELin1ELin1EE11innerStrideEv, symObjAddr: 0xB7E4, symBinAddr: 0x10000EB9C, symSize: 0x14 }
  - { offset: 0x1DDA34, size: 0x8, addend: 0x0, symName: __ZN5Eigen7MapBaseINS_5BlockINS1_INS_6MatrixIdLin1ELin1ELi0ELin1ELin1EEELin1ELi1ELb1EEELin1ELi1ELb0EEELi0EEC2EPdll, symObjAddr: 0xB7F8, symBinAddr: 0x10000EBB0, symSize: 0x11C }
  - { offset: 0x1DDA88, size: 0x8, addend: 0x0, symName: __ZN5Eigen10MatrixBaseINS_5BlockINS1_INS_6MatrixIdLin1ELin1ELi0ELin1ELin1EEELin1ELi1ELb1EEELin1ELi1ELb0EEEEC2Ev, symObjAddr: 0xB914, symBinAddr: 0x10000ECCC, symSize: 0x2C }
  - { offset: 0x1DDAB2, size: 0x8, addend: 0x0, symName: __ZNK5Eigen7MapBaseINS_5BlockINS1_INS_6MatrixIdLin1ELin1ELi0ELin1ELin1EEELin1ELi1ELb1EEELin1ELi1ELb0EEELi0EE11checkSanityIS5_EEvNS_8internal9enable_ifIXeqsr8internal6traitsIT_EE9AlignmentLi0EEPvE4typeE, symObjAddr: 0xB940, symBinAddr: 0x10000ECF8, symSize: 0x14 }
  - { offset: 0x1DDAEC, size: 0x8, addend: 0x0, symName: __ZN5Eigen9DenseBaseINS_5BlockINS1_INS_6MatrixIdLin1ELin1ELi0ELin1ELin1EEELin1ELi1ELb1EEELin1ELi1ELb0EEEEC2Ev, symObjAddr: 0xB954, symBinAddr: 0x10000ED0C, symSize: 0x14 }
  - { offset: 0x1DDB16, size: 0x8, addend: 0x0, symName: __ZN5Eigen8internal19variable_if_dynamicIlLi0EEC2El, symObjAddr: 0xB968, symBinAddr: 0x10000ED20, symSize: 0x64 }
  - { offset: 0x1DDB4E, size: 0x8, addend: 0x0, symName: __ZN5Eigen9EigenBaseINS_5BlockINS1_INS_6MatrixIdLin1ELin1ELi0ELin1ELin1EEELin1ELi1ELb1EEELin1ELi1ELb0EEEE7derivedEv, symObjAddr: 0xB9CC, symBinAddr: 0x10000ED84, symSize: 0x14 }
  - { offset: 0x1DDB74, size: 0x8, addend: 0x0, symName: __ZNK5Eigen9EigenBaseINS_5BlockINS1_INS_6MatrixIdLin1ELin1ELi0ELin1ELin1EEELin1ELi1ELb1EEELin1ELi1ELb0EEEE4sizeEv, symObjAddr: 0xB9E0, symBinAddr: 0x10000ED98, symSize: 0x44 }
  - { offset: 0x1DDB9F, size: 0x8, addend: 0x0, symName: __ZN5Eigen11VectorBlockINS_5BlockINS1_INS_6MatrixIdLin1ELin1ELi0ELin1ELin1EEELin1ELi1ELb1EEELin1ELi1ELb0EEELin1EEC1ERS5_ll, symObjAddr: 0xBA24, symBinAddr: 0x10000EDDC, symSize: 0x44 }
  - { offset: 0x1DDBF8, size: 0x8, addend: 0x0, symName: __ZNK5Eigen10MatrixBaseINS_5BlockINS1_INS_6MatrixIdLin1ELin1ELi0ELin1ELin1EEELin1ELi1ELb1EEELin1ELi1ELb0EEEE15makeHouseholderINS_11VectorBlockIS5_Lin1EEEEEvRT_RdSC_, symObjAddr: 0xBA68, symBinAddr: 0x10000EE20, symSize: 0x1F4 }
  - { offset: 0x1DDC99, size: 0x8, addend: 0x0, symName: __ZNK5Eigen9EigenBaseINS_5BlockINS1_INS_6MatrixIdLin1ELin1ELi0ELin1ELin1EEELin1ELi1ELb1EEELin1ELi1ELb0EEEE4rowsEv, symObjAddr: 0xBC5C, symBinAddr: 0x10000F014, symSize: 0x38 }
  - { offset: 0x1DDCBF, size: 0x8, addend: 0x0, symName: __ZNK5Eigen9EigenBaseINS_5BlockINS1_INS_6MatrixIdLin1ELin1ELi0ELin1ELin1EEELin1ELi1ELb1EEELin1ELi1ELb0EEEE4colsEv, symObjAddr: 0xBC94, symBinAddr: 0x10000F04C, symSize: 0x28 }
  - { offset: 0x1DDCE5, size: 0x8, addend: 0x0, symName: __ZNK5Eigen9EigenBaseINS_5BlockINS1_INS_6MatrixIdLin1ELin1ELi0ELin1ELin1EEELin1ELi1ELb1EEELin1ELi1ELb0EEEE7derivedEv, symObjAddr: 0xBCBC, symBinAddr: 0x10000F074, symSize: 0x14 }
  - { offset: 0x1DDD0B, size: 0x8, addend: 0x0, symName: __ZNK5Eigen7MapBaseINS_5BlockINS1_INS_6MatrixIdLin1ELin1ELi0ELin1ELin1EEELin1ELi1ELb1EEELin1ELi1ELb0EEELi0EE4rowsEv, symObjAddr: 0xBCD0, symBinAddr: 0x10000F088, symSize: 0x28 }
  - { offset: 0x1DDD31, size: 0x8, addend: 0x0, symName: __ZNK5Eigen7MapBaseINS_5BlockINS1_INS_6MatrixIdLin1ELin1ELi0ELin1ELin1EEELin1ELi1ELb1EEELin1ELi1ELb0EEELi0EE4colsEv, symObjAddr: 0xBCF8, symBinAddr: 0x10000F0B0, symSize: 0x20 }
  - { offset: 0x1DDD57, size: 0x8, addend: 0x0, symName: __ZN5Eigen11VectorBlockINS_5BlockINS1_INS_6MatrixIdLin1ELin1ELi0ELin1ELin1EEELin1ELi1ELb1EEELin1ELi1ELb0EEELin1EEC2ERS5_ll, symObjAddr: 0xBD18, symBinAddr: 0x10000F0D0, symSize: 0x4C }
  - { offset: 0x1DDDAB, size: 0x8, addend: 0x0, symName: __ZN5Eigen5BlockINS0_INS0_INS_6MatrixIdLin1ELin1ELi0ELin1ELin1EEELin1ELi1ELb1EEELin1ELi1ELb0EEELin1ELi1ELb0EEC2ERS4_llll, symObjAddr: 0xBD64, symBinAddr: 0x10000F11C, symSize: 0x190 }
  - { offset: 0x1DDE1B, size: 0x8, addend: 0x0, symName: __ZN5Eigen9BlockImplINS_5BlockINS1_INS_6MatrixIdLin1ELin1ELi0ELin1ELin1EEELin1ELi1ELb1EEELin1ELi1ELb0EEELin1ELi1ELb0ENS_5DenseEEC2ERS5_llll, symObjAddr: 0xBEF4, symBinAddr: 0x10000F2AC, symSize: 0x54 }
  - { offset: 0x1DDE8B, size: 0x8, addend: 0x0, symName: __ZN5Eigen8internal15BlockImpl_denseINS_5BlockINS2_INS_6MatrixIdLin1ELin1ELi0ELin1ELin1EEELin1ELi1ELb1EEELin1ELi1ELb0EEELin1ELi1ELb0ELb1EEC2ERS6_llll, symObjAddr: 0xBF48, symBinAddr: 0x10000F300, symSize: 0xCC }
  - { offset: 0x1DDF00, size: 0x8, addend: 0x0, symName: __ZN5Eigen7MapBaseINS_5BlockINS1_INS_6MatrixIdLin1ELin1ELi0ELin1ELin1EEELin1ELi1ELb1EEELin1ELi1ELb0EEELi1EE4dataEv, symObjAddr: 0xC014, symBinAddr: 0x10000F3CC, symSize: 0x18 }
  - { offset: 0x1DDF26, size: 0x8, addend: 0x0, symName: __ZNK5Eigen8internal15BlockImpl_denseINS_5BlockINS_6MatrixIdLin1ELin1ELi0ELin1ELin1EEELin1ELi1ELb1EEELin1ELi1ELb0ELb1EE11innerStrideEv, symObjAddr: 0xC02C, symBinAddr: 0x10000F3E4, symSize: 0x28 }
  - { offset: 0x1DDF4C, size: 0x8, addend: 0x0, symName: __ZNK5Eigen8internal15BlockImpl_denseINS_5BlockINS_6MatrixIdLin1ELin1ELi0ELin1ELin1EEELin1ELi1ELb1EEELin1ELi1ELb0ELb1EE11outerStrideEv, symObjAddr: 0xC054, symBinAddr: 0x10000F40C, symSize: 0x28 }
  - { offset: 0x1DDF72, size: 0x8, addend: 0x0, symName: __ZN5Eigen7MapBaseINS_5BlockINS1_INS1_INS_6MatrixIdLin1ELin1ELi0ELin1ELin1EEELin1ELi1ELb1EEELin1ELi1ELb0EEELin1ELi1ELb0EEELi1EEC2EPdll, symObjAddr: 0xC07C, symBinAddr: 0x10000F434, symSize: 0x44 }
  - { offset: 0x1DDFC9, size: 0x8, addend: 0x0, symName: __ZN5Eigen8internal15BlockImpl_denseINS_5BlockINS2_INS_6MatrixIdLin1ELin1ELi0ELin1ELin1EEELin1ELi1ELb1EEELin1ELi1ELb0EEELin1ELi1ELb0ELb1EE4initEv, symObjAddr: 0xC0C0, symBinAddr: 0x10000F478, symSize: 0x34 }
  - { offset: 0x1DDFEF, size: 0x8, addend: 0x0, symName: __ZN5Eigen7MapBaseINS_5BlockINS1_INS1_INS_6MatrixIdLin1ELin1ELi0ELin1ELin1EEELin1ELi1ELb1EEELin1ELi1ELb0EEELin1ELi1ELb0EEELi0EEC2EPdll, symObjAddr: 0xC0F4, symBinAddr: 0x10000F4AC, symSize: 0x11C }
  - { offset: 0x1DE043, size: 0x8, addend: 0x0, symName: __ZN5Eigen10MatrixBaseINS_5BlockINS1_INS1_INS_6MatrixIdLin1ELin1ELi0ELin1ELin1EEELin1ELi1ELb1EEELin1ELi1ELb0EEELin1ELi1ELb0EEEEC2Ev, symObjAddr: 0xC210, symBinAddr: 0x10000F5C8, symSize: 0x2C }
  - { offset: 0x1DE06D, size: 0x8, addend: 0x0, symName: __ZNK5Eigen7MapBaseINS_5BlockINS1_INS1_INS_6MatrixIdLin1ELin1ELi0ELin1ELin1EEELin1ELi1ELb1EEELin1ELi1ELb0EEELin1ELi1ELb0EEELi0EE11checkSanityIS6_EEvNS_8internal9enable_ifIXeqsr8internal6traitsIT_EE9AlignmentLi0EEPvE4typeE, symObjAddr: 0xC23C, symBinAddr: 0x10000F5F4, symSize: 0x14 }
  - { offset: 0x1DE0A7, size: 0x8, addend: 0x0, symName: __ZN5Eigen9DenseBaseINS_5BlockINS1_INS1_INS_6MatrixIdLin1ELin1ELi0ELin1ELin1EEELin1ELi1ELb1EEELin1ELi1ELb0EEELin1ELi1ELb0EEEEC2Ev, symObjAddr: 0xC250, symBinAddr: 0x10000F608, symSize: 0x14 }
  - { offset: 0x1DE0D6, size: 0x8, addend: 0x0, symName: __ZN5Eigen11VectorBlockIKNS_5BlockINS1_INS_6MatrixIdLin1ELin1ELi0ELin1ELin1EEELin1ELi1ELb1EEELin1ELi1ELb0EEELin1EEC1ERS6_ll, symObjAddr: 0xC264, symBinAddr: 0x10000F61C, symSize: 0x44 }
  - { offset: 0x1DE12A, size: 0x8, addend: 0x0, symName: __ZNK5Eigen10MatrixBaseINS_5BlockIKNS1_INS1_INS_6MatrixIdLin1ELin1ELi0ELin1ELin1EEELin1ELi1ELb1EEELin1ELi1ELb0EEELin1ELi1ELb0EEEE11squaredNormEv, symObjAddr: 0xC2A8, symBinAddr: 0x10000F660, symSize: 0x40 }
  - { offset: 0x1DE152, size: 0x8, addend: 0x0, symName: __ZNK5Eigen15DenseCoeffsBaseINS_5BlockINS1_INS_6MatrixIdLin1ELin1ELi0ELin1ELin1EEELin1ELi1ELb1EEELin1ELi1ELb0EEELi0EE5coeffEl, symObjAddr: 0xC2E8, symBinAddr: 0x10000F6A0, symSize: 0x78 }
  - { offset: 0x1DE186, size: 0x8, addend: 0x0, symName: __ZN5Eigen9DenseBaseINS_5BlockINS1_INS1_INS_6MatrixIdLin1ELin1ELi0ELin1ELin1EEELin1ELi1ELb1EEELin1ELi1ELb0EEELin1ELi1ELb0EEEE7setZeroEv, symObjAddr: 0xC3CC, symBinAddr: 0x10000F784, symSize: 0x30 }
  - { offset: 0x1DE1AF, size: 0x8, addend: 0x0, symName: __ZNK5Eigen10MatrixBaseINS_5BlockIKNS1_INS1_INS_6MatrixIdLin1ELin1ELi0ELin1ELin1EEELin1ELi1ELb1EEELin1ELi1ELb0EEELin1ELi1ELb0EEEEdvIdEEKNS_13CwiseBinaryOpINS_8internal18scalar_quotient_opIdNSB_18promote_scalar_argIdT_Xsr5Eigen8internal14has_ReturnTypeINS_20ScalarBinaryOpTraitsIdSE_NSC_IdSE_EEEEEE5valueEE4typeEEEKS7_KNSB_19plain_constant_typeIS7_SJ_E4typeEEERKSE_, symObjAddr: 0xC3FC, symBinAddr: 0x10000F7B4, symSize: 0xA8 }
  - { offset: 0x1DE1EC, size: 0x8, addend: 0x0, symName: __ZN5Eigen5BlockINS0_INS0_INS_6MatrixIdLin1ELin1ELi0ELin1ELin1EEELin1ELi1ELb1EEELin1ELi1ELb0EEELin1ELi1ELb0EEaSINS_13CwiseBinaryOpINS_8internal18scalar_quotient_opIddEEKNS0_IKS4_Lin1ELi1ELb0EEEKNS_14CwiseNullaryOpINS8_18scalar_constant_opIdEEKNS1_IdLin1ELi1ELi0ELin1ELi1EEEEEEEEERS5_RKNS_9DenseBaseIT_EE, symObjAddr: 0xC4A4, symBinAddr: 0x10000F85C, symSize: 0x40 }
  - { offset: 0x1DE229, size: 0x8, addend: 0x0, symName: __ZN5Eigen11VectorBlockIKNS_5BlockINS1_INS_6MatrixIdLin1ELin1ELi0ELin1ELin1EEELin1ELi1ELb1EEELin1ELi1ELb0EEELin1EEC2ERS6_ll, symObjAddr: 0xC4E4, symBinAddr: 0x10000F89C, symSize: 0x4C }
  - { offset: 0x1DE27D, size: 0x8, addend: 0x0, symName: __ZN5Eigen5BlockIKNS0_INS0_INS_6MatrixIdLin1ELin1ELi0ELin1ELin1EEELin1ELi1ELb1EEELin1ELi1ELb0EEELin1ELi1ELb0EEC2ERS5_llll, symObjAddr: 0xC530, symBinAddr: 0x10000F8E8, symSize: 0x190 }
  - { offset: 0x1DE2ED, size: 0x8, addend: 0x0, symName: __ZN5Eigen9BlockImplIKNS_5BlockINS1_INS_6MatrixIdLin1ELin1ELi0ELin1ELin1EEELin1ELi1ELb1EEELin1ELi1ELb0EEELin1ELi1ELb0ENS_5DenseEEC2ERS6_llll, symObjAddr: 0xC6C0, symBinAddr: 0x10000FA78, symSize: 0x54 }
  - { offset: 0x1DE35D, size: 0x8, addend: 0x0, symName: __ZN5Eigen8internal15BlockImpl_denseIKNS_5BlockINS2_INS_6MatrixIdLin1ELin1ELi0ELin1ELin1EEELin1ELi1ELb1EEELin1ELi1ELb0EEELin1ELi1ELb0ELb1EEC2ERS7_llll, symObjAddr: 0xC714, symBinAddr: 0x10000FACC, symSize: 0xCC }
  - { offset: 0x1DE3D2, size: 0x8, addend: 0x0, symName: __ZNK5Eigen7MapBaseINS_5BlockINS1_INS_6MatrixIdLin1ELin1ELi0ELin1ELin1EEELin1ELi1ELb1EEELin1ELi1ELb0EEELi1EE4dataEv, symObjAddr: 0xC7E0, symBinAddr: 0x10000FB98, symSize: 0x18 }
  - { offset: 0x1DE3F8, size: 0x8, addend: 0x0, symName: __ZN5Eigen7MapBaseINS_5BlockIKNS1_INS1_INS_6MatrixIdLin1ELin1ELi0ELin1ELin1EEELin1ELi1ELb1EEELin1ELi1ELb0EEELin1ELi1ELb0EEELi0EEC2EPKdll, symObjAddr: 0xC7F8, symBinAddr: 0x10000FBB0, symSize: 0x11C }
  - { offset: 0x1DE44C, size: 0x8, addend: 0x0, symName: __ZN5Eigen8internal15BlockImpl_denseIKNS_5BlockINS2_INS_6MatrixIdLin1ELin1ELi0ELin1ELin1EEELin1ELi1ELb1EEELin1ELi1ELb0EEELin1ELi1ELb0ELb1EE4initEv, symObjAddr: 0xC914, symBinAddr: 0x10000FCCC, symSize: 0x34 }
  - { offset: 0x1DE472, size: 0x8, addend: 0x0, symName: __ZN5Eigen10MatrixBaseINS_5BlockIKNS1_INS1_INS_6MatrixIdLin1ELin1ELi0ELin1ELin1EEELin1ELi1ELb1EEELin1ELi1ELb0EEELin1ELi1ELb0EEEEC2Ev, symObjAddr: 0xC948, symBinAddr: 0x10000FD00, symSize: 0x2C }
  - { offset: 0x1DE49C, size: 0x8, addend: 0x0, symName: __ZNK5Eigen7MapBaseINS_5BlockIKNS1_INS1_INS_6MatrixIdLin1ELin1ELi0ELin1ELin1EEELin1ELi1ELb1EEELin1ELi1ELb0EEELin1ELi1ELb0EEELi0EE11checkSanityIS7_EEvNS_8internal9enable_ifIXeqsr8internal6traitsIT_EE9AlignmentLi0EEPvE4typeE, symObjAddr: 0xC974, symBinAddr: 0x10000FD2C, symSize: 0x14 }
  - { offset: 0x1DE4D6, size: 0x8, addend: 0x0, symName: __ZN5Eigen9DenseBaseINS_5BlockIKNS1_INS1_INS_6MatrixIdLin1ELin1ELi0ELin1ELin1EEELin1ELi1ELb1EEELin1ELi1ELb0EEELin1ELi1ELb0EEEEC2Ev, symObjAddr: 0xC988, symBinAddr: 0x10000FD40, symSize: 0x14 }
  - { offset: 0x1DE500, size: 0x8, addend: 0x0, symName: __ZNK5Eigen10MatrixBaseINS_5BlockIKNS1_INS1_INS_6MatrixIdLin1ELin1ELi0ELin1ELin1EEELin1ELi1ELb1EEELin1ELi1ELb0EEELin1ELi1ELb0EEEE9cwiseAbs2Ev, symObjAddr: 0xC99C, symBinAddr: 0x10000FD54, symSize: 0x4C }
  - { offset: 0x1DE526, size: 0x8, addend: 0x0, symName: __ZNK5Eigen9DenseBaseINS_12CwiseUnaryOpINS_8internal14scalar_abs2_opIdEEKNS_5BlockIKNS5_INS5_INS_6MatrixIdLin1ELin1ELi0ELin1ELin1EEELin1ELi1ELb1EEELin1ELi1ELb0EEELin1ELi1ELb0EEEEEE3sumEv, symObjAddr: 0xC9E8, symBinAddr: 0x10000FDA0, symSize: 0x74 }
  - { offset: 0x1DE54F, size: 0x8, addend: 0x0, symName: __ZNK5Eigen9EigenBaseINS_5BlockIKNS1_INS1_INS_6MatrixIdLin1ELin1ELi0ELin1ELin1EEELin1ELi1ELb1EEELin1ELi1ELb0EEELin1ELi1ELb0EEEE7derivedEv, symObjAddr: 0xCA5C, symBinAddr: 0x10000FE14, symSize: 0x14 }
  - { offset: 0x1DE575, size: 0x8, addend: 0x0, symName: __ZN5Eigen8internal14scalar_abs2_opIdEC1Ev, symObjAddr: 0xCA70, symBinAddr: 0x10000FE28, symSize: 0x2C }
  - { offset: 0x1DE59F, size: 0x8, addend: 0x0, symName: __ZN5Eigen12CwiseUnaryOpINS_8internal14scalar_abs2_opIdEEKNS_5BlockIKNS4_INS4_INS_6MatrixIdLin1ELin1ELi0ELin1ELin1EEELin1ELi1ELb1EEELin1ELi1ELb0EEELin1ELi1ELb0EEEEC1ERSB_RKS3_, symObjAddr: 0xCA9C, symBinAddr: 0x10000FE54, symSize: 0x3C }
  - { offset: 0x1DE5E5, size: 0x8, addend: 0x0, symName: __ZN5Eigen8internal14scalar_abs2_opIdEC2Ev, symObjAddr: 0xCAD8, symBinAddr: 0x10000FE90, symSize: 0x14 }
  - { offset: 0x1DE60F, size: 0x8, addend: 0x0, symName: __ZN5Eigen12CwiseUnaryOpINS_8internal14scalar_abs2_opIdEEKNS_5BlockIKNS4_INS4_INS_6MatrixIdLin1ELin1ELi0ELin1ELin1EEELin1ELi1ELb1EEELin1ELi1ELb0EEELin1ELi1ELb0EEEEC2ERSB_RKS3_, symObjAddr: 0xCAEC, symBinAddr: 0x10000FEA4, symSize: 0x54 }
  - { offset: 0x1DE65A, size: 0x8, addend: 0x0, symName: __ZN5Eigen16CwiseUnaryOpImplINS_8internal14scalar_abs2_opIdEEKNS_5BlockIKNS4_INS4_INS_6MatrixIdLin1ELin1ELi0ELin1ELin1EEELin1ELi1ELb1EEELin1ELi1ELb0EEELin1ELi1ELb0EEENS_5DenseEEC2Ev, symObjAddr: 0xCB40, symBinAddr: 0x10000FEF8, symSize: 0x2C }
  - { offset: 0x1DE686, size: 0x8, addend: 0x0, symName: __ZN5Eigen8internal14scalar_abs2_opIdEC1ERKS2_, symObjAddr: 0xCB6C, symBinAddr: 0x10000FF24, symSize: 0x34 }
  - { offset: 0x1DE6BB, size: 0x8, addend: 0x0, symName: __ZN5Eigen10MatrixBaseINS_12CwiseUnaryOpINS_8internal14scalar_abs2_opIdEEKNS_5BlockIKNS5_INS5_INS_6MatrixIdLin1ELin1ELi0ELin1ELin1EEELin1ELi1ELb1EEELin1ELi1ELb0EEELin1ELi1ELb0EEEEEEC2Ev, symObjAddr: 0xCBA0, symBinAddr: 0x10000FF58, symSize: 0x2C }
  - { offset: 0x1DE6E5, size: 0x8, addend: 0x0, symName: __ZN5Eigen9DenseBaseINS_12CwiseUnaryOpINS_8internal14scalar_abs2_opIdEEKNS_5BlockIKNS5_INS5_INS_6MatrixIdLin1ELin1ELi0ELin1ELin1EEELin1ELi1ELb1EEELin1ELi1ELb0EEELin1ELi1ELb0EEEEEEC2Ev, symObjAddr: 0xCBCC, symBinAddr: 0x10000FF84, symSize: 0x14 }
  - { offset: 0x1DE70F, size: 0x8, addend: 0x0, symName: __ZN5Eigen8internal14scalar_abs2_opIdEC2ERKS2_, symObjAddr: 0xCBE0, symBinAddr: 0x10000FF98, symSize: 0x18 }
  - { offset: 0x1DE744, size: 0x8, addend: 0x0, symName: __ZNK5Eigen9EigenBaseINS_12CwiseUnaryOpINS_8internal14scalar_abs2_opIdEEKNS_5BlockIKNS5_INS5_INS_6MatrixIdLin1ELin1ELi0ELin1ELin1EEELin1ELi1ELb1EEELin1ELi1ELb0EEELin1ELi1ELb0EEEEEE4sizeEv, symObjAddr: 0xCBF8, symBinAddr: 0x10000FFB0, symSize: 0x44 }
  - { offset: 0x1DE76A, size: 0x8, addend: 0x0, symName: __ZNK5Eigen9EigenBaseINS_12CwiseUnaryOpINS_8internal14scalar_abs2_opIdEEKNS_5BlockIKNS5_INS5_INS_6MatrixIdLin1ELin1ELi0ELin1ELin1EEELin1ELi1ELb1EEELin1ELi1ELb0EEELin1ELi1ELb0EEEEEE7derivedEv, symObjAddr: 0xCC3C, symBinAddr: 0x10000FFF4, symSize: 0x14 }
  - { offset: 0x1DE790, size: 0x8, addend: 0x0, symName: __ZNK5Eigen9DenseBaseINS_12CwiseUnaryOpINS_8internal14scalar_abs2_opIdEEKNS_5BlockIKNS5_INS5_INS_6MatrixIdLin1ELin1ELi0ELin1ELin1EEELin1ELi1ELb1EEELin1ELi1ELb0EEELin1ELi1ELb0EEEEEE5reduxINS2_13scalar_sum_opIddEEEEdRKT_, symObjAddr: 0xCC50, symBinAddr: 0x100010008, symSize: 0x10C }
  - { offset: 0x1DE7EC, size: 0x8, addend: 0x0, symName: __ZN5Eigen8internal13scalar_sum_opIddEC1Ev, symObjAddr: 0xCD5C, symBinAddr: 0x100010114, symSize: 0x2C }
  - { offset: 0x1DE816, size: 0x8, addend: 0x0, symName: __ZNK5Eigen9EigenBaseINS_12CwiseUnaryOpINS_8internal14scalar_abs2_opIdEEKNS_5BlockIKNS5_INS5_INS_6MatrixIdLin1ELin1ELi0ELin1ELin1EEELin1ELi1ELb1EEELin1ELi1ELb0EEELin1ELi1ELb0EEEEEE4rowsEv, symObjAddr: 0xCD88, symBinAddr: 0x100010140, symSize: 0x38 }
  - { offset: 0x1DE83C, size: 0x8, addend: 0x0, symName: __ZNK5Eigen9EigenBaseINS_12CwiseUnaryOpINS_8internal14scalar_abs2_opIdEEKNS_5BlockIKNS5_INS5_INS_6MatrixIdLin1ELin1ELi0ELin1ELin1EEELin1ELi1ELb1EEELin1ELi1ELb0EEELin1ELi1ELb0EEEEEE4colsEv, symObjAddr: 0xCDC0, symBinAddr: 0x100010178, symSize: 0x38 }
  - { offset: 0x1DE862, size: 0x8, addend: 0x0, symName: __ZNK5Eigen12CwiseUnaryOpINS_8internal14scalar_abs2_opIdEEKNS_5BlockIKNS4_INS4_INS_6MatrixIdLin1ELin1ELi0ELin1ELin1EEELin1ELi1ELb1EEELin1ELi1ELb0EEELin1ELi1ELb0EEEE4rowsEv, symObjAddr: 0xCDF8, symBinAddr: 0x1000101B0, symSize: 0x24 }
  - { offset: 0x1DE888, size: 0x8, addend: 0x0, symName: __ZNK5Eigen7MapBaseINS_5BlockIKNS1_INS1_INS_6MatrixIdLin1ELin1ELi0ELin1ELin1EEELin1ELi1ELb1EEELin1ELi1ELb0EEELin1ELi1ELb0EEELi0EE4rowsEv, symObjAddr: 0xCE1C, symBinAddr: 0x1000101D4, symSize: 0x28 }
  - { offset: 0x1DE8AE, size: 0x8, addend: 0x0, symName: __ZNK5Eigen12CwiseUnaryOpINS_8internal14scalar_abs2_opIdEEKNS_5BlockIKNS4_INS4_INS_6MatrixIdLin1ELin1ELi0ELin1ELin1EEELin1ELi1ELb1EEELin1ELi1ELb0EEELin1ELi1ELb0EEEE4colsEv, symObjAddr: 0xCE44, symBinAddr: 0x1000101FC, symSize: 0x24 }
  - { offset: 0x1DE8D4, size: 0x8, addend: 0x0, symName: __ZNK5Eigen7MapBaseINS_5BlockIKNS1_INS1_INS_6MatrixIdLin1ELin1ELi0ELin1ELin1EEELin1ELi1ELb1EEELin1ELi1ELb0EEELin1ELi1ELb0EEELi0EE4colsEv, symObjAddr: 0xCE68, symBinAddr: 0x100010220, symSize: 0x20 }
  - { offset: 0x1DE94F, size: 0x8, addend: 0x0, symName: __ZN5Eigen8internal15redux_evaluatorINS_12CwiseUnaryOpINS0_14scalar_abs2_opIdEEKNS_5BlockIKNS5_INS5_INS_6MatrixIdLin1ELin1ELi0ELin1ELin1EEELin1ELi1ELb1EEELin1ELi1ELb0EEELin1ELi1ELb0EEEEEEC1ERKSD_, symObjAddr: 0xCE88, symBinAddr: 0x100010240, symSize: 0x34 }
  - { offset: 0x1DE98D, size: 0x8, addend: 0x0, symName: __ZN5Eigen8internal10redux_implINS0_13scalar_sum_opIddEENS0_15redux_evaluatorINS_12CwiseUnaryOpINS0_14scalar_abs2_opIdEEKNS_5BlockIKNS8_INS8_INS_6MatrixIdLin1ELin1ELi0ELin1ELin1EEELin1ELi1ELb1EEELin1ELi1ELb0EEELin1ELi1ELb0EEEEEEELi3ELi0EE3runISG_EEdRKSH_RKS3_RKT_, symObjAddr: 0xCEBC, symBinAddr: 0x100010274, symSize: 0x348 }
  - { offset: 0x1DEB0A, size: 0x8, addend: 0x0, symName: __ZN5Eigen8internal15redux_evaluatorINS_12CwiseUnaryOpINS0_14scalar_abs2_opIdEEKNS_5BlockIKNS5_INS5_INS_6MatrixIdLin1ELin1ELi0ELin1ELin1EEELin1ELi1ELb1EEELin1ELi1ELb0EEELin1ELi1ELb0EEEEEED1Ev, symObjAddr: 0xD204, symBinAddr: 0x1000105BC, symSize: 0x2C }
  - { offset: 0x1DEB37, size: 0x8, addend: 0x0, symName: __ZN5Eigen8internal15redux_evaluatorINS_12CwiseUnaryOpINS0_14scalar_abs2_opIdEEKNS_5BlockIKNS5_INS5_INS_6MatrixIdLin1ELin1ELi0ELin1ELin1EEELin1ELi1ELb1EEELin1ELi1ELb0EEELin1ELi1ELb0EEEEEEC2ERKSD_, symObjAddr: 0xD230, symBinAddr: 0x1000105E8, symSize: 0x34 }
  - { offset: 0x1DEB70, size: 0x8, addend: 0x0, symName: __ZN5Eigen8internal9evaluatorINS_12CwiseUnaryOpINS0_14scalar_abs2_opIdEEKNS_5BlockIKNS5_INS5_INS_6MatrixIdLin1ELin1ELi0ELin1ELin1EEELin1ELi1ELb1EEELin1ELi1ELb0EEELin1ELi1ELb0EEEEEEC2ERKSD_, symObjAddr: 0xD264, symBinAddr: 0x10001061C, symSize: 0x34 }
  - { offset: 0x1DEBA8, size: 0x8, addend: 0x0, symName: __ZN5Eigen8internal15unary_evaluatorINS_12CwiseUnaryOpINS0_14scalar_abs2_opIdEEKNS_5BlockIKNS5_INS5_INS_6MatrixIdLin1ELin1ELi0ELin1ELin1EEELin1ELi1ELb1EEELin1ELi1ELb0EEELin1ELi1ELb0EEEEENS0_10IndexBasedEdEC2ERKSD_, symObjAddr: 0xD298, symBinAddr: 0x100010650, symSize: 0x64 }
  - { offset: 0x1DEBE1, size: 0x8, addend: 0x0, symName: __ZN5Eigen8internal14evaluator_baseINS_12CwiseUnaryOpINS0_14scalar_abs2_opIdEEKNS_5BlockIKNS5_INS5_INS_6MatrixIdLin1ELin1ELi0ELin1ELin1EEELin1ELi1ELb1EEELin1ELi1ELb0EEELin1ELi1ELb0EEEEEEC2Ev, symObjAddr: 0xD2FC, symBinAddr: 0x1000106B4, symSize: 0x14 }
  - { offset: 0x1DEC0B, size: 0x8, addend: 0x0, symName: __ZN5Eigen8internal15unary_evaluatorINS_12CwiseUnaryOpINS0_14scalar_abs2_opIdEEKNS_5BlockIKNS5_INS5_INS_6MatrixIdLin1ELin1ELi0ELin1ELin1EEELin1ELi1ELb1EEELin1ELi1ELb0EEELin1ELi1ELb0EEEEENS0_10IndexBasedEdE4DataC1ERKSD_, symObjAddr: 0xD310, symBinAddr: 0x1000106C8, symSize: 0x34 }
  - { offset: 0x1DEC44, size: 0x8, addend: 0x0, symName: __ZN5Eigen8internal14evaluator_baseINS_12CwiseUnaryOpINS0_14scalar_abs2_opIdEEKNS_5BlockIKNS5_INS5_INS_6MatrixIdLin1ELin1ELi0ELin1ELin1EEELin1ELi1ELb1EEELin1ELi1ELb0EEELin1ELi1ELb0EEEEEED2Ev, symObjAddr: 0xD344, symBinAddr: 0x1000106FC, symSize: 0x14 }
  - { offset: 0x1DEC6E, size: 0x8, addend: 0x0, symName: __ZN5Eigen8internal15unary_evaluatorINS_12CwiseUnaryOpINS0_14scalar_abs2_opIdEEKNS_5BlockIKNS5_INS5_INS_6MatrixIdLin1ELin1ELi0ELin1ELin1EEELin1ELi1ELb1EEELin1ELi1ELb0EEELin1ELi1ELb0EEEEENS0_10IndexBasedEdE4DataC2ERKSD_, symObjAddr: 0xD358, symBinAddr: 0x100010710, symSize: 0x58 }
  - { offset: 0x1DECA7, size: 0x8, addend: 0x0, symName: __ZNK5Eigen12CwiseUnaryOpINS_8internal14scalar_abs2_opIdEEKNS_5BlockIKNS4_INS4_INS_6MatrixIdLin1ELin1ELi0ELin1ELin1EEELin1ELi1ELb1EEELin1ELi1ELb0EEELin1ELi1ELb0EEEE7functorEv, symObjAddr: 0xD3B0, symBinAddr: 0x100010768, symSize: 0x18 }
  - { offset: 0x1DECCD, size: 0x8, addend: 0x0, symName: __ZNK5Eigen12CwiseUnaryOpINS_8internal14scalar_abs2_opIdEEKNS_5BlockIKNS4_INS4_INS_6MatrixIdLin1ELin1ELi0ELin1ELin1EEELin1ELi1ELb1EEELin1ELi1ELb0EEELin1ELi1ELb0EEEE16nestedExpressionEv, symObjAddr: 0xD3C8, symBinAddr: 0x100010780, symSize: 0x14 }
  - { offset: 0x1DECF3, size: 0x8, addend: 0x0, symName: __ZN5Eigen8internal9evaluatorIKNS_5BlockIKNS2_INS2_INS_6MatrixIdLin1ELin1ELi0ELin1ELin1EEELin1ELi1ELb1EEELin1ELi1ELb0EEELin1ELi1ELb0EEEEC1ERS9_, symObjAddr: 0xD3DC, symBinAddr: 0x100010794, symSize: 0x34 }
  - { offset: 0x1DED2B, size: 0x8, addend: 0x0, symName: __ZN5Eigen8internal9evaluatorIKNS_5BlockIKNS2_INS2_INS_6MatrixIdLin1ELin1ELi0ELin1ELin1EEELin1ELi1ELb1EEELin1ELi1ELb0EEELin1ELi1ELb0EEEEC2ERS9_, symObjAddr: 0xD410, symBinAddr: 0x1000107C8, symSize: 0x34 }
  - { offset: 0x1DED63, size: 0x8, addend: 0x0, symName: __ZN5Eigen8internal9evaluatorINS_5BlockIKNS2_INS2_INS_6MatrixIdLin1ELin1ELi0ELin1ELin1EEELin1ELi1ELb1EEELin1ELi1ELb0EEELin1ELi1ELb0EEEEC2ERKS8_, symObjAddr: 0xD444, symBinAddr: 0x1000107FC, symSize: 0x34 }
  - { offset: 0x1DED9C, size: 0x8, addend: 0x0, symName: __ZN5Eigen8internal15block_evaluatorIKNS_5BlockINS2_INS_6MatrixIdLin1ELin1ELi0ELin1ELin1EEELin1ELi1ELb1EEELin1ELi1ELb0EEELin1ELi1ELb0ELb1EEC2ERKNS2_IS7_Lin1ELi1ELb0EEE, symObjAddr: 0xD478, symBinAddr: 0x100010830, symSize: 0xDC }
  - { offset: 0x1DEDD5, size: 0x8, addend: 0x0, symName: __ZN5Eigen8internal17mapbase_evaluatorINS_5BlockIKNS2_INS2_INS_6MatrixIdLin1ELin1ELi0ELin1ELin1EEELin1ELi1ELb1EEELin1ELi1ELb0EEELin1ELi1ELb0EEENS3_IdLin1ELi1ELi0ELin1ELi1EEEEC2ERKS8_, symObjAddr: 0xD554, symBinAddr: 0x10001090C, symSize: 0xB0 }
  - { offset: 0x1DEE0E, size: 0x8, addend: 0x0, symName: __ZNK5Eigen7MapBaseINS_5BlockIKNS1_INS1_INS_6MatrixIdLin1ELin1ELi0ELin1ELin1EEELin1ELi1ELb1EEELin1ELi1ELb0EEELin1ELi1ELb0EEELi0EE4dataEv, symObjAddr: 0xD604, symBinAddr: 0x1000109BC, symSize: 0x18 }
  - { offset: 0x1DEE34, size: 0x8, addend: 0x0, symName: __ZN5Eigen8internal17mapbase_evaluatorINS_5BlockIKNS2_INS2_INS_6MatrixIdLin1ELin1ELi0ELin1ELin1EEELin1ELi1ELb1EEELin1ELi1ELb0EEELin1ELi1ELb0EEENS3_IdLin1ELi1ELi0ELin1ELi1EEEED2Ev, symObjAddr: 0xD61C, symBinAddr: 0x1000109D4, symSize: 0x2C }
  - { offset: 0x1DEE61, size: 0x8, addend: 0x0, symName: __ZN5Eigen8internal14evaluator_baseINS_5BlockIKNS2_INS2_INS_6MatrixIdLin1ELin1ELi0ELin1ELin1EEELin1ELi1ELb1EEELin1ELi1ELb0EEELin1ELi1ELb0EEEEC2Ev, symObjAddr: 0xD648, symBinAddr: 0x100010A00, symSize: 0x14 }
  - { offset: 0x1DEE8B, size: 0x8, addend: 0x0, symName: __ZNK5Eigen8internal15BlockImpl_denseIKNS_5BlockINS2_INS_6MatrixIdLin1ELin1ELi0ELin1ELin1EEELin1ELi1ELb1EEELin1ELi1ELb0EEELin1ELi1ELb0ELb1EE11innerStrideEv, symObjAddr: 0xD65C, symBinAddr: 0x100010A14, symSize: 0x28 }
  - { offset: 0x1DEEB1, size: 0x8, addend: 0x0, symName: __ZNK5Eigen8internal15BlockImpl_denseIKNS_5BlockINS2_INS_6MatrixIdLin1ELin1ELi0ELin1ELin1EEELin1ELi1ELb1EEELin1ELi1ELb0EEELin1ELi1ELb0ELb1EE11outerStrideEv, symObjAddr: 0xD684, symBinAddr: 0x100010A3C, symSize: 0x28 }
  - { offset: 0x1DEED7, size: 0x8, addend: 0x0, symName: __ZN5Eigen8internal14evaluator_baseINS_5BlockIKNS2_INS2_INS_6MatrixIdLin1ELin1ELi0ELin1ELin1EEELin1ELi1ELb1EEELin1ELi1ELb0EEELin1ELi1ELb0EEEED2Ev, symObjAddr: 0xD6AC, symBinAddr: 0x100010A64, symSize: 0x14 }
  - { offset: 0x1DEF01, size: 0x8, addend: 0x0, symName: __ZNK5Eigen8internal15unary_evaluatorINS_12CwiseUnaryOpINS0_14scalar_abs2_opIdEEKNS_5BlockIKNS5_INS5_INS_6MatrixIdLin1ELin1ELi0ELin1ELin1EEELin1ELi1ELb1EEELin1ELi1ELb0EEELin1ELi1ELb0EEEEENS0_10IndexBasedEdE6packetILi0E19__simd128_float64_tEET0_l, symObjAddr: 0xD6E4, symBinAddr: 0x100010A9C, symSize: 0x50 }
  - { offset: 0x1DEF49, size: 0x8, addend: 0x0, symName: __ZNK5Eigen8internal13scalar_sum_opIddE8packetOpI19__simd128_float64_tEET_RKS5_S7_, symObjAddr: 0xD734, symBinAddr: 0x100010AEC, symSize: 0x30 }
  - { offset: 0x1DEF94, size: 0x8, addend: 0x0, symName: __ZNK5Eigen8internal13scalar_sum_opIddE6preduxI19__simd128_float64_tEEdRKT_, symObjAddr: 0xD764, symBinAddr: 0x100010B1C, symSize: 0x28 }
  - { offset: 0x1DEFD1, size: 0x8, addend: 0x0, symName: __ZNK5Eigen8internal13scalar_sum_opIddEclERKdS4_, symObjAddr: 0xD78C, symBinAddr: 0x100010B44, symSize: 0x2C }
  - { offset: 0x1DF013, size: 0x8, addend: 0x0, symName: __ZNK5Eigen8internal15unary_evaluatorINS_12CwiseUnaryOpINS0_14scalar_abs2_opIdEEKNS_5BlockIKNS5_INS5_INS_6MatrixIdLin1ELin1ELi0ELin1ELin1EEELin1ELi1ELb1EEELin1ELi1ELb0EEELin1ELi1ELb0EEEEENS0_10IndexBasedEdE5coeffEl, symObjAddr: 0xD7B8, symBinAddr: 0x100010B70, symSize: 0x50 }
  - { offset: 0x1DF048, size: 0x8, addend: 0x0, symName: __ZN5Eigen8internal18first_aligned_implILi16ENS_12CwiseUnaryOpINS0_14scalar_abs2_opIdEEKNS_5BlockIKNS5_INS5_INS_6MatrixIdLin1ELin1ELi0ELin1ELin1EEELin1ELi1ELb1EEELin1ELi1ELb0EEELin1ELi1ELb0EEEEELb1EE3runERKSD_, symObjAddr: 0xD830, symBinAddr: 0x100010BE8, symSize: 0x14 }
  - { offset: 0x1DF068, size: 0x8, addend: 0x0, symName: __ZNK5Eigen8internal15unary_evaluatorINS_12CwiseUnaryOpINS0_14scalar_abs2_opIdEEKNS_5BlockIKNS5_INS5_INS_6MatrixIdLin1ELin1ELi0ELin1ELin1EEELin1ELi1ELb1EEELin1ELi1ELb0EEELin1ELi1ELb0EEEEENS0_10IndexBasedEdE4Data4funcEv, symObjAddr: 0xD844, symBinAddr: 0x100010BFC, symSize: 0x14 }
  - { offset: 0x1DF08E, size: 0x8, addend: 0x0, symName: __ZNK5Eigen8internal14scalar_abs2_opIdE8packetOpI19__simd128_float64_tEEKT_RS6_, symObjAddr: 0xD858, symBinAddr: 0x100010C10, symSize: 0x2C }
  - { offset: 0x1DF0CB, size: 0x8, addend: 0x0, symName: __ZNK5Eigen8internal17mapbase_evaluatorINS_5BlockIKNS2_INS2_INS_6MatrixIdLin1ELin1ELi0ELin1ELin1EEELin1ELi1ELb1EEELin1ELi1ELb0EEELin1ELi1ELb0EEENS3_IdLin1ELi1ELi0ELin1ELi1EEEE6packetILi0E19__simd128_float64_tEET0_l, symObjAddr: 0xD884, symBinAddr: 0x100010C3C, symSize: 0x54 }
  - { offset: 0x1DF131, size: 0x8, addend: 0x0, symName: __ZNK5Eigen8internal14scalar_abs2_opIdEclERKd, symObjAddr: 0xD9D0, symBinAddr: 0x100010D88, symSize: 0x28 }
  - { offset: 0x1DF165, size: 0x8, addend: 0x0, symName: __ZNK5Eigen8internal17mapbase_evaluatorINS_5BlockIKNS2_INS2_INS_6MatrixIdLin1ELin1ELi0ELin1ELin1EEELin1ELi1ELb1EEELin1ELi1ELb0EEELin1ELi1ELb0EEENS3_IdLin1ELi1ELi0ELin1ELi1EEEE5coeffEl, symObjAddr: 0xD9F8, symBinAddr: 0x100010DB0, symSize: 0x48 }
  - { offset: 0x1DF19A, size: 0x8, addend: 0x0, symName: __ZN5Eigen8internal15redux_evaluatorINS_12CwiseUnaryOpINS0_14scalar_abs2_opIdEEKNS_5BlockIKNS5_INS5_INS_6MatrixIdLin1ELin1ELi0ELin1ELin1EEELin1ELi1ELb1EEELin1ELi1ELb0EEELin1ELi1ELb0EEEEEED2Ev, symObjAddr: 0xDA40, symBinAddr: 0x100010DF8, symSize: 0x2C }
  - { offset: 0x1DF1C7, size: 0x8, addend: 0x0, symName: __ZN5Eigen8internal9evaluatorINS_12CwiseUnaryOpINS0_14scalar_abs2_opIdEEKNS_5BlockIKNS5_INS5_INS_6MatrixIdLin1ELin1ELi0ELin1ELin1EEELin1ELi1ELb1EEELin1ELi1ELb0EEELin1ELi1ELb0EEEEEED2Ev, symObjAddr: 0xDA6C, symBinAddr: 0x100010E24, symSize: 0x2C }
  - { offset: 0x1DF1F3, size: 0x8, addend: 0x0, symName: __ZN5Eigen8internal15unary_evaluatorINS_12CwiseUnaryOpINS0_14scalar_abs2_opIdEEKNS_5BlockIKNS5_INS5_INS_6MatrixIdLin1ELin1ELi0ELin1ELin1EEELin1ELi1ELb1EEELin1ELi1ELb0EEELin1ELi1ELb0EEEEENS0_10IndexBasedEdED2Ev, symObjAddr: 0xDA98, symBinAddr: 0x100010E50, symSize: 0x34 }
  - { offset: 0x1DF21F, size: 0x8, addend: 0x0, symName: __ZN5Eigen8internal15unary_evaluatorINS_12CwiseUnaryOpINS0_14scalar_abs2_opIdEEKNS_5BlockIKNS5_INS5_INS_6MatrixIdLin1ELin1ELi0ELin1ELin1EEELin1ELi1ELb1EEELin1ELi1ELb0EEELin1ELi1ELb0EEEEENS0_10IndexBasedEdE4DataD1Ev, symObjAddr: 0xDACC, symBinAddr: 0x100010E84, symSize: 0x2C }
  - { offset: 0x1DF24C, size: 0x8, addend: 0x0, symName: __ZN5Eigen8internal15unary_evaluatorINS_12CwiseUnaryOpINS0_14scalar_abs2_opIdEEKNS_5BlockIKNS5_INS5_INS_6MatrixIdLin1ELin1ELi0ELin1ELin1EEELin1ELi1ELb1EEELin1ELi1ELb0EEELin1ELi1ELb0EEEEENS0_10IndexBasedEdE4DataD2Ev, symObjAddr: 0xDAF8, symBinAddr: 0x100010EB0, symSize: 0x30 }
  - { offset: 0x1DF279, size: 0x8, addend: 0x0, symName: __ZN5Eigen8internal9evaluatorIKNS_5BlockIKNS2_INS2_INS_6MatrixIdLin1ELin1ELi0ELin1ELin1EEELin1ELi1ELb1EEELin1ELi1ELb0EEELin1ELi1ELb0EEEED1Ev, symObjAddr: 0xDB28, symBinAddr: 0x100010EE0, symSize: 0x2C }
  - { offset: 0x1DF2A5, size: 0x8, addend: 0x0, symName: __ZN5Eigen8internal9evaluatorIKNS_5BlockIKNS2_INS2_INS_6MatrixIdLin1ELin1ELi0ELin1ELin1EEELin1ELi1ELb1EEELin1ELi1ELb0EEELin1ELi1ELb0EEEED2Ev, symObjAddr: 0xDB54, symBinAddr: 0x100010F0C, symSize: 0x2C }
  - { offset: 0x1DF2D1, size: 0x8, addend: 0x0, symName: __ZN5Eigen8internal9evaluatorINS_5BlockIKNS2_INS2_INS_6MatrixIdLin1ELin1ELi0ELin1ELin1EEELin1ELi1ELb1EEELin1ELi1ELb0EEELin1ELi1ELb0EEEED2Ev, symObjAddr: 0xDB80, symBinAddr: 0x100010F38, symSize: 0x2C }
  - { offset: 0x1DF2FE, size: 0x8, addend: 0x0, symName: __ZN5Eigen8internal15block_evaluatorIKNS_5BlockINS2_INS_6MatrixIdLin1ELin1ELi0ELin1ELin1EEELin1ELi1ELb1EEELin1ELi1ELb0EEELin1ELi1ELb0ELb1EED2Ev, symObjAddr: 0xDBAC, symBinAddr: 0x100010F64, symSize: 0x2C }
  - { offset: 0x1DF32B, size: 0x8, addend: 0x0, symName: __ZN5Eigen8internal13scalar_sum_opIddEC2Ev, symObjAddr: 0xDBD8, symBinAddr: 0x100010F90, symSize: 0x14 }
  - { offset: 0x1DF355, size: 0x8, addend: 0x0, symName: __ZN5Eigen8internal9evaluatorINS_5BlockINS2_INS_6MatrixIdLin1ELin1ELi0ELin1ELin1EEELin1ELi1ELb1EEELin1ELi1ELb0EEEEC1ERKS6_, symObjAddr: 0xDBEC, symBinAddr: 0x100010FA4, symSize: 0x34 }
  - { offset: 0x1DF38E, size: 0x8, addend: 0x0, symName: __ZNK5Eigen8internal17mapbase_evaluatorINS_5BlockINS2_INS_6MatrixIdLin1ELin1ELi0ELin1ELin1EEELin1ELi1ELb1EEELin1ELi1ELb0EEENS3_IdLin1ELi1ELi0ELin1ELi1EEEE5coeffEl, symObjAddr: 0xDC20, symBinAddr: 0x100010FD8, symSize: 0x48 }
  - { offset: 0x1DF3C3, size: 0x8, addend: 0x0, symName: __ZN5Eigen8internal9evaluatorINS_5BlockINS2_INS_6MatrixIdLin1ELin1ELi0ELin1ELin1EEELin1ELi1ELb1EEELin1ELi1ELb0EEEED1Ev, symObjAddr: 0xDC68, symBinAddr: 0x100011020, symSize: 0x2C }
  - { offset: 0x1DF3F0, size: 0x8, addend: 0x0, symName: __ZN5Eigen8internal9evaluatorINS_5BlockINS2_INS_6MatrixIdLin1ELin1ELi0ELin1ELin1EEELin1ELi1ELb1EEELin1ELi1ELb0EEEEC2ERKS6_, symObjAddr: 0xDC94, symBinAddr: 0x10001104C, symSize: 0x34 }
  - { offset: 0x1DF429, size: 0x8, addend: 0x0, symName: __ZN5Eigen8internal15block_evaluatorINS_5BlockINS_6MatrixIdLin1ELin1ELi0ELin1ELin1EEELin1ELi1ELb1EEELin1ELi1ELb0ELb1EEC2ERKNS2_IS5_Lin1ELi1ELb0EEE, symObjAddr: 0xDCC8, symBinAddr: 0x100011080, symSize: 0xD0 }
  - { offset: 0x1DF462, size: 0x8, addend: 0x0, symName: __ZN5Eigen8internal17mapbase_evaluatorINS_5BlockINS2_INS_6MatrixIdLin1ELin1ELi0ELin1ELin1EEELin1ELi1ELb1EEELin1ELi1ELb0EEENS3_IdLin1ELi1ELi0ELin1ELi1EEEEC2ERKS6_, symObjAddr: 0xDD98, symBinAddr: 0x100011150, symSize: 0xA0 }
  - { offset: 0x1DF49B, size: 0x8, addend: 0x0, symName: __ZN5Eigen8internal17mapbase_evaluatorINS_5BlockINS2_INS_6MatrixIdLin1ELin1ELi0ELin1ELin1EEELin1ELi1ELb1EEELin1ELi1ELb0EEENS3_IdLin1ELi1ELi0ELin1ELi1EEEED2Ev, symObjAddr: 0xDE38, symBinAddr: 0x1000111F0, symSize: 0x2C }
  - { offset: 0x1DF4C8, size: 0x8, addend: 0x0, symName: __ZN5Eigen8internal14evaluator_baseINS_5BlockINS2_INS_6MatrixIdLin1ELin1ELi0ELin1ELin1EEELin1ELi1ELb1EEELin1ELi1ELb0EEEEC2Ev, symObjAddr: 0xDE64, symBinAddr: 0x10001121C, symSize: 0x14 }
  - { offset: 0x1DF4F2, size: 0x8, addend: 0x0, symName: __ZN5Eigen8internal14evaluator_baseINS_5BlockINS2_INS_6MatrixIdLin1ELin1ELi0ELin1ELin1EEELin1ELi1ELb1EEELin1ELi1ELb0EEEED2Ev, symObjAddr: 0xDE78, symBinAddr: 0x100011230, symSize: 0x14 }
  - { offset: 0x1DF51C, size: 0x8, addend: 0x0, symName: __ZN5Eigen8internal9evaluatorINS_5BlockINS2_INS_6MatrixIdLin1ELin1ELi0ELin1ELin1EEELin1ELi1ELb1EEELin1ELi1ELb0EEEED2Ev, symObjAddr: 0xDE8C, symBinAddr: 0x100011244, symSize: 0x2C }
  - { offset: 0x1DF549, size: 0x8, addend: 0x0, symName: __ZN5Eigen8internal15block_evaluatorINS_5BlockINS_6MatrixIdLin1ELin1ELi0ELin1ELin1EEELin1ELi1ELb1EEELin1ELi1ELb0ELb1EED2Ev, symObjAddr: 0xDEB8, symBinAddr: 0x100011270, symSize: 0x2C }
  - { offset: 0x1DF576, size: 0x8, addend: 0x0, symName: __ZN5Eigen8internal9abs2_implIdE3runERKd, symObjAddr: 0xDEE4, symBinAddr: 0x10001129C, symSize: 0x24 }
  - { offset: 0x1DF59A, size: 0x8, addend: 0x0, symName: __ZN5Eigen8internal17abs2_impl_defaultIdLb0EE3runERKd, symObjAddr: 0xDF08, symBinAddr: 0x1000112C0, symSize: 0x24 }
  - { offset: 0x1DF5BE, size: 0x8, addend: 0x0, symName: __ZN5Eigen8internal17imag_default_implIdLb0EE3runERKd, symObjAddr: 0xDF2C, symBinAddr: 0x1000112E4, symSize: 0x14 }
  - { offset: 0x1DF5DE, size: 0x8, addend: 0x0, symName: __ZN5Eigen8internal17real_default_implIdLb0EE3runERKd, symObjAddr: 0xDF40, symBinAddr: 0x1000112F8, symSize: 0x18 }
  - { offset: 0x1DF601, size: 0x8, addend: 0x0, symName: __ZN5Eigen9DenseBaseINS_5BlockINS1_INS1_INS_6MatrixIdLin1ELin1ELi0ELin1ELin1EEELin1ELi1ELb1EEELin1ELi1ELb0EEELin1ELi1ELb0EEEE11setConstantERKd, symObjAddr: 0xDF58, symBinAddr: 0x100011310, symSize: 0x64 }
  - { offset: 0x1DF639, size: 0x8, addend: 0x0, symName: __ZN5Eigen9DenseBaseINS_5BlockINS1_INS1_INS_6MatrixIdLin1ELin1ELi0ELin1ELin1EEELin1ELi1ELb1EEELin1ELi1ELb0EEELin1ELi1ELb0EEEE8ConstantEllRKd, symObjAddr: 0xDFBC, symBinAddr: 0x100011374, symSize: 0x60 }
  - { offset: 0x1DF67D, size: 0x8, addend: 0x0, symName: __ZNK5Eigen9EigenBaseINS_5BlockINS1_INS1_INS_6MatrixIdLin1ELin1ELi0ELin1ELin1EEELin1ELi1ELb1EEELin1ELi1ELb0EEELin1ELi1ELb0EEEE4rowsEv, symObjAddr: 0xE01C, symBinAddr: 0x1000113D4, symSize: 0x38 }
  - { offset: 0x1DF6A3, size: 0x8, addend: 0x0, symName: __ZNK5Eigen9EigenBaseINS_5BlockINS1_INS1_INS_6MatrixIdLin1ELin1ELi0ELin1ELin1EEELin1ELi1ELb1EEELin1ELi1ELb0EEELin1ELi1ELb0EEEE4colsEv, symObjAddr: 0xE054, symBinAddr: 0x10001140C, symSize: 0x28 }
  - { offset: 0x1DF6C9, size: 0x8, addend: 0x0, symName: __ZN5Eigen9EigenBaseINS_5BlockINS1_INS1_INS_6MatrixIdLin1ELin1ELi0ELin1ELin1EEELin1ELi1ELb1EEELin1ELi1ELb0EEELin1ELi1ELb0EEEE7derivedEv, symObjAddr: 0xE07C, symBinAddr: 0x100011434, symSize: 0x14 }
  - { offset: 0x1DF6EF, size: 0x8, addend: 0x0, symName: __ZN5Eigen5BlockINS0_INS0_INS_6MatrixIdLin1ELin1ELi0ELin1ELin1EEELin1ELi1ELb1EEELin1ELi1ELb0EEELin1ELi1ELb0EEaSINS_14CwiseNullaryOpINS_8internal18scalar_constant_opIdEENS1_IdLin1ELi1ELi0ELin1ELi1EEEEEEERS5_RKNS_9DenseBaseIT_EE, symObjAddr: 0xE090, symBinAddr: 0x100011448, symSize: 0x40 }
  - { offset: 0x1DF72C, size: 0x8, addend: 0x0, symName: __ZN5Eigen9DenseBaseINS_5BlockINS1_INS1_INS_6MatrixIdLin1ELin1ELi0ELin1ELin1EEELin1ELi1ELb1EEELin1ELi1ELb0EEELin1ELi1ELb0EEEE11NullaryExprINS_8internal18scalar_constant_opIdEEEEKNS_14CwiseNullaryOpIT_NS2_IdLin1ELi1ELi0ELin1ELi1EEEEEllRKSD_, symObjAddr: 0xE0D0, symBinAddr: 0x100011488, symSize: 0x48 }
  - { offset: 0x1DF779, size: 0x8, addend: 0x0, symName: __ZN5Eigen14CwiseNullaryOpINS_8internal18scalar_constant_opIdEENS_6MatrixIdLin1ELi1ELi0ELin1ELi1EEEEC1EllRKS3_, symObjAddr: 0xE118, symBinAddr: 0x1000114D0, symSize: 0x44 }
  - { offset: 0x1DF7CD, size: 0x8, addend: 0x0, symName: __ZN5Eigen14CwiseNullaryOpINS_8internal18scalar_constant_opIdEENS_6MatrixIdLin1ELi1ELi0ELin1ELi1EEEEC2EllRKS3_, symObjAddr: 0xE15C, symBinAddr: 0x100011514, symSize: 0xE8 }
  - { offset: 0x1DF821, size: 0x8, addend: 0x0, symName: __ZN5Eigen10MatrixBaseINS_14CwiseNullaryOpINS_8internal18scalar_constant_opIdEENS_6MatrixIdLin1ELi1ELi0ELin1ELi1EEEEEEC2Ev, symObjAddr: 0xE244, symBinAddr: 0x1000115FC, symSize: 0x2C }
  - { offset: 0x1DF84B, size: 0x8, addend: 0x0, symName: __ZN5Eigen9DenseBaseINS_14CwiseNullaryOpINS_8internal18scalar_constant_opIdEENS_6MatrixIdLin1ELi1ELi0ELin1ELi1EEEEEEC2Ev, symObjAddr: 0xE270, symBinAddr: 0x100011628, symSize: 0x14 }
  - { offset: 0x1DF875, size: 0x8, addend: 0x0, symName: __ZNK5Eigen9EigenBaseINS_5BlockINS1_INS1_INS_6MatrixIdLin1ELin1ELi0ELin1ELin1EEELin1ELi1ELb1EEELin1ELi1ELb0EEELin1ELi1ELb0EEEE7derivedEv, symObjAddr: 0xE284, symBinAddr: 0x10001163C, symSize: 0x14 }
  - { offset: 0x1DF89B, size: 0x8, addend: 0x0, symName: __ZNK5Eigen7MapBaseINS_5BlockINS1_INS1_INS_6MatrixIdLin1ELin1ELi0ELin1ELin1EEELin1ELi1ELb1EEELin1ELi1ELb0EEELin1ELi1ELb0EEELi0EE4rowsEv, symObjAddr: 0xE298, symBinAddr: 0x100011650, symSize: 0x28 }
  - { offset: 0x1DF8C1, size: 0x8, addend: 0x0, symName: __ZNK5Eigen7MapBaseINS_5BlockINS1_INS1_INS_6MatrixIdLin1ELin1ELi0ELin1ELin1EEELin1ELi1ELb1EEELin1ELi1ELb0EEELin1ELi1ELb0EEELi0EE4colsEv, symObjAddr: 0xE2C0, symBinAddr: 0x100011678, symSize: 0x20 }
  - { offset: 0x1DF8E7, size: 0x8, addend: 0x0, symName: __ZN5Eigen9BlockImplINS_5BlockINS1_INS_6MatrixIdLin1ELin1ELi0ELin1ELin1EEELin1ELi1ELb1EEELin1ELi1ELb0EEELin1ELi1ELb0ENS_5DenseEEaSINS_14CwiseNullaryOpINS_8internal18scalar_constant_opIdEENS2_IdLin1ELi1ELi0ELin1ELi1EEEEEEERS7_RKNS_9DenseBaseIT_EE, symObjAddr: 0xE2E0, symBinAddr: 0x100011698, symSize: 0x40 }
  - { offset: 0x1DF924, size: 0x8, addend: 0x0, symName: __ZNK5Eigen9EigenBaseINS_14CwiseNullaryOpINS_8internal18scalar_constant_opIdEENS_6MatrixIdLin1ELi1ELi0ELin1ELi1EEEEEE7derivedEv, symObjAddr: 0xE320, symBinAddr: 0x1000116D8, symSize: 0x14 }
  - { offset: 0x1DF94A, size: 0x8, addend: 0x0, symName: __ZN5Eigen8internal15BlockImpl_denseINS_5BlockINS2_INS_6MatrixIdLin1ELin1ELi0ELin1ELin1EEELin1ELi1ELb1EEELin1ELi1ELb0EEELin1ELi1ELb0ELb1EEaSINS_14CwiseNullaryOpINS0_18scalar_constant_opIdEENS3_IdLin1ELi1ELi0ELin1ELi1EEEEEEERS7_RKNS_9DenseBaseIT_EE, symObjAddr: 0xE334, symBinAddr: 0x1000116EC, symSize: 0x40 }
  - { offset: 0x1DF988, size: 0x8, addend: 0x0, symName: __ZN5Eigen10MatrixBaseINS_5BlockINS1_INS1_INS_6MatrixIdLin1ELin1ELi0ELin1ELin1EEELin1ELi1ELb1EEELin1ELi1ELb0EEELin1ELi1ELb0EEEEaSINS_14CwiseNullaryOpINS_8internal18scalar_constant_opIdEENS2_IdLin1ELi1ELi0ELin1ELi1EEEEEEERS6_RKNS_9DenseBaseIT_EE, symObjAddr: 0xE374, symBinAddr: 0x10001172C, symSize: 0x4C }
  - { offset: 0x1DF9C7, size: 0x8, addend: 0x0, symName: __ZN5Eigen8internal10AssignmentINS_5BlockINS2_INS2_INS_6MatrixIdLin1ELin1ELi0ELin1ELin1EEELin1ELi1ELb1EEELin1ELi1ELb0EEELin1ELi1ELb0EEENS_14CwiseNullaryOpINS0_18scalar_constant_opIdEENS3_IdLin1ELi1ELi0ELin1ELi1EEEEENS0_9assign_opIddEENS0_11Dense2DenseEvE3runERS7_RKSC_RKSE_, symObjAddr: 0xE484, symBinAddr: 0x10001183C, symSize: 0x40 }
  - { offset: 0x1DFA09, size: 0x8, addend: 0x0, symName: __ZN5Eigen8internal9evaluatorINS_14CwiseNullaryOpINS0_18scalar_constant_opIdEENS_6MatrixIdLin1ELi1ELi0ELin1ELi1EEEEEEC1ERKS7_, symObjAddr: 0xE5B8, symBinAddr: 0x100011970, symSize: 0x34 }
  - { offset: 0x1DFA42, size: 0x8, addend: 0x0, symName: __ZN5Eigen8internal9evaluatorINS_5BlockINS2_INS2_INS_6MatrixIdLin1ELin1ELi0ELin1ELin1EEELin1ELi1ELb1EEELin1ELi1ELb0EEELin1ELi1ELb0EEEEC1ERKS7_, symObjAddr: 0xE6E4, symBinAddr: 0x100011A9C, symSize: 0x34 }
  - { offset: 0x1DFA7B, size: 0x8, addend: 0x0, symName: __ZNK5Eigen9EigenBaseINS_5BlockINS1_INS1_INS_6MatrixIdLin1ELin1ELi0ELin1ELin1EEELin1ELi1ELb1EEELin1ELi1ELb0EEELin1ELi1ELb0EEEE18const_cast_derivedEv, symObjAddr: 0xE718, symBinAddr: 0x100011AD0, symSize: 0x14 }
  - { offset: 0x1DFAA1, size: 0x8, addend: 0x0, symName: __ZN5Eigen8internal31generic_dense_assignment_kernelINS0_9evaluatorINS_5BlockINS3_INS3_INS_6MatrixIdLin1ELin1ELi0ELin1ELin1EEELin1ELi1ELb1EEELin1ELi1ELb0EEELin1ELi1ELb0EEEEENS2_INS_14CwiseNullaryOpINS0_18scalar_constant_opIdEENS4_IdLin1ELi1ELi0ELin1ELi1EEEEEEENS0_9assign_opIddEELi0EEC1ERS9_RKSF_RKSH_RS8_, symObjAddr: 0xE72C, symBinAddr: 0x100011AE4, symSize: 0x4C }
  - { offset: 0x1DFB07, size: 0x8, addend: 0x0, symName: __ZN5Eigen8internal9evaluatorINS_5BlockINS2_INS2_INS_6MatrixIdLin1ELin1ELi0ELin1ELin1EEELin1ELi1ELb1EEELin1ELi1ELb0EEELin1ELi1ELb0EEEED1Ev, symObjAddr: 0xE838, symBinAddr: 0x100011BF0, symSize: 0x2C }
  - { offset: 0x1DFB34, size: 0x8, addend: 0x0, symName: __ZN5Eigen8internal9evaluatorINS_14CwiseNullaryOpINS0_18scalar_constant_opIdEENS_6MatrixIdLin1ELi1ELi0ELin1ELi1EEEEEED1Ev, symObjAddr: 0xE864, symBinAddr: 0x100011C1C, symSize: 0x2C }
  - { offset: 0x1DFB60, size: 0x8, addend: 0x0, symName: __ZN5Eigen8internal9evaluatorINS_14CwiseNullaryOpINS0_18scalar_constant_opIdEENS_6MatrixIdLin1ELi1ELi0ELin1ELi1EEEEEEC2ERKS7_, symObjAddr: 0xE890, symBinAddr: 0x100011C48, symSize: 0x74 }
  - { offset: 0x1DFB99, size: 0x8, addend: 0x0, symName: __ZN5Eigen8internal14evaluator_baseINS_14CwiseNullaryOpINS0_18scalar_constant_opIdEENS_6MatrixIdLin1ELi1ELi0ELin1ELi1EEEEEEC2Ev, symObjAddr: 0xE904, symBinAddr: 0x100011CBC, symSize: 0x14 }
  - { offset: 0x1DFBC3, size: 0x8, addend: 0x0, symName: __ZNK5Eigen14CwiseNullaryOpINS_8internal18scalar_constant_opIdEENS_6MatrixIdLin1ELi1ELi0ELin1ELi1EEEE7functorEv, symObjAddr: 0xE918, symBinAddr: 0x100011CD0, symSize: 0x18 }
  - { offset: 0x1DFBE9, size: 0x8, addend: 0x0, symName: __ZN5Eigen8internal14evaluator_baseINS_14CwiseNullaryOpINS0_18scalar_constant_opIdEENS_6MatrixIdLin1ELi1ELi0ELin1ELi1EEEEEED2Ev, symObjAddr: 0xE930, symBinAddr: 0x100011CE8, symSize: 0x14 }
  - { offset: 0x1DFC13, size: 0x8, addend: 0x0, symName: __ZNK5Eigen14CwiseNullaryOpINS_8internal18scalar_constant_opIdEENS_6MatrixIdLin1ELi1ELi0ELin1ELi1EEEE4rowsEv, symObjAddr: 0xE944, symBinAddr: 0x100011CFC, symSize: 0x24 }
  - { offset: 0x1DFC39, size: 0x8, addend: 0x0, symName: __ZNK5Eigen14CwiseNullaryOpINS_8internal18scalar_constant_opIdEENS_6MatrixIdLin1ELi1ELi0ELin1ELi1EEEE4colsEv, symObjAddr: 0xE968, symBinAddr: 0x100011D20, symSize: 0x20 }
  - { offset: 0x1DFC5F, size: 0x8, addend: 0x0, symName: __ZN5Eigen9DenseBaseINS_5BlockINS1_INS1_INS_6MatrixIdLin1ELin1ELi0ELin1ELin1EEELin1ELi1ELb1EEELin1ELi1ELb0EEELin1ELi1ELb0EEEE6resizeEll, symObjAddr: 0xE988, symBinAddr: 0x100011D40, symSize: 0xBC }
  - { offset: 0x1DFCA3, size: 0x8, addend: 0x0, symName: __ZN5Eigen8internal9evaluatorINS_5BlockINS2_INS2_INS_6MatrixIdLin1ELin1ELi0ELin1ELin1EEELin1ELi1ELb1EEELin1ELi1ELb0EEELin1ELi1ELb0EEEEC2ERKS7_, symObjAddr: 0xEA44, symBinAddr: 0x100011DFC, symSize: 0x34 }
  - { offset: 0x1DFCDC, size: 0x8, addend: 0x0, symName: __ZN5Eigen8internal15block_evaluatorINS_5BlockINS2_INS_6MatrixIdLin1ELin1ELi0ELin1ELin1EEELin1ELi1ELb1EEELin1ELi1ELb0EEELin1ELi1ELb0ELb1EEC2ERKNS2_IS6_Lin1ELi1ELb0EEE, symObjAddr: 0xEA78, symBinAddr: 0x100011E30, symSize: 0xDC }
  - { offset: 0x1DFD15, size: 0x8, addend: 0x0, symName: __ZN5Eigen8internal17mapbase_evaluatorINS_5BlockINS2_INS2_INS_6MatrixIdLin1ELin1ELi0ELin1ELin1EEELin1ELi1ELb1EEELin1ELi1ELb0EEELin1ELi1ELb0EEENS3_IdLin1ELi1ELi0ELin1ELi1EEEEC2ERKS7_, symObjAddr: 0xEB54, symBinAddr: 0x100011F0C, symSize: 0xB0 }
  - { offset: 0x1DFD4E, size: 0x8, addend: 0x0, symName: __ZNK5Eigen7MapBaseINS_5BlockINS1_INS1_INS_6MatrixIdLin1ELin1ELi0ELin1ELin1EEELin1ELi1ELb1EEELin1ELi1ELb0EEELin1ELi1ELb0EEELi1EE4dataEv, symObjAddr: 0xEC04, symBinAddr: 0x100011FBC, symSize: 0x18 }
  - { offset: 0x1DFD74, size: 0x8, addend: 0x0, symName: __ZN5Eigen8internal17mapbase_evaluatorINS_5BlockINS2_INS2_INS_6MatrixIdLin1ELin1ELi0ELin1ELin1EEELin1ELi1ELb1EEELin1ELi1ELb0EEELin1ELi1ELb0EEENS3_IdLin1ELi1ELi0ELin1ELi1EEEED2Ev, symObjAddr: 0xEC1C, symBinAddr: 0x100011FD4, symSize: 0x2C }
  - { offset: 0x1DFDA1, size: 0x8, addend: 0x0, symName: __ZN5Eigen8internal14evaluator_baseINS_5BlockINS2_INS2_INS_6MatrixIdLin1ELin1ELi0ELin1ELin1EEELin1ELi1ELb1EEELin1ELi1ELb0EEELin1ELi1ELb0EEEEC2Ev, symObjAddr: 0xEC48, symBinAddr: 0x100012000, symSize: 0x14 }
  - { offset: 0x1DFDCB, size: 0x8, addend: 0x0, symName: __ZNK5Eigen8internal15BlockImpl_denseINS_5BlockINS2_INS_6MatrixIdLin1ELin1ELi0ELin1ELin1EEELin1ELi1ELb1EEELin1ELi1ELb0EEELin1ELi1ELb0ELb1EE11innerStrideEv, symObjAddr: 0xEC5C, symBinAddr: 0x100012014, symSize: 0x28 }
  - { offset: 0x1DFDF1, size: 0x8, addend: 0x0, symName: __ZNK5Eigen8internal15BlockImpl_denseINS_5BlockINS2_INS_6MatrixIdLin1ELin1ELi0ELin1ELin1EEELin1ELi1ELb1EEELin1ELi1ELb0EEELin1ELi1ELb0ELb1EE11outerStrideEv, symObjAddr: 0xEC84, symBinAddr: 0x10001203C, symSize: 0x28 }
  - { offset: 0x1DFE17, size: 0x8, addend: 0x0, symName: __ZN5Eigen8internal14evaluator_baseINS_5BlockINS2_INS2_INS_6MatrixIdLin1ELin1ELi0ELin1ELin1EEELin1ELi1ELb1EEELin1ELi1ELb0EEELin1ELi1ELb0EEEED2Ev, symObjAddr: 0xECAC, symBinAddr: 0x100012064, symSize: 0x14 }
  - { offset: 0x1DFE41, size: 0x8, addend: 0x0, symName: __ZN5Eigen8internal31generic_dense_assignment_kernelINS0_9evaluatorINS_5BlockINS3_INS3_INS_6MatrixIdLin1ELin1ELi0ELin1ELin1EEELin1ELi1ELb1EEELin1ELi1ELb0EEELin1ELi1ELb0EEEEENS2_INS_14CwiseNullaryOpINS0_18scalar_constant_opIdEENS4_IdLin1ELi1ELi0ELin1ELi1EEEEEEENS0_9assign_opIddEELi0EEC2ERS9_RKSF_RKSH_RS8_, symObjAddr: 0xECC0, symBinAddr: 0x100012078, symSize: 0x44 }
  - { offset: 0x1DFEA7, size: 0x8, addend: 0x0, symName: __ZNK5Eigen8internal31generic_dense_assignment_kernelINS0_9evaluatorINS_5BlockINS3_INS3_INS_6MatrixIdLin1ELin1ELi0ELin1ELin1EEELin1ELi1ELb1EEELin1ELi1ELb0EEELin1ELi1ELb0EEEEENS2_INS_14CwiseNullaryOpINS0_18scalar_constant_opIdEENS4_IdLin1ELi1ELi0ELin1ELi1EEEEEEENS0_9assign_opIddEELi0EE4sizeEv, symObjAddr: 0xED04, symBinAddr: 0x1000120BC, symSize: 0x28 }
  - { offset: 0x1DFECD, size: 0x8, addend: 0x0, symName: __ZNK5Eigen8internal31generic_dense_assignment_kernelINS0_9evaluatorINS_5BlockINS3_INS3_INS_6MatrixIdLin1ELin1ELi0ELin1ELin1EEELin1ELi1ELb1EEELin1ELi1ELb0EEELin1ELi1ELb0EEEEENS2_INS_14CwiseNullaryOpINS0_18scalar_constant_opIdEENS4_IdLin1ELi1ELi0ELin1ELi1EEEEEEENS0_9assign_opIddEELi0EE10dstDataPtrEv, symObjAddr: 0xEDD8, symBinAddr: 0x100012190, symSize: 0x28 }
  - { offset: 0x1DFEF3, size: 0x8, addend: 0x0, symName: __ZN5Eigen8internal31unaligned_dense_assignment_loopILb0EE3runINS0_31generic_dense_assignment_kernelINS0_9evaluatorINS_5BlockINS6_INS6_INS_6MatrixIdLin1ELin1ELi0ELin1ELin1EEELin1ELi1ELb1EEELin1ELi1ELb0EEELin1ELi1ELb0EEEEENS5_INS_14CwiseNullaryOpINS0_18scalar_constant_opIdEENS7_IdLin1ELi1ELi0ELin1ELi1EEEEEEENS0_9assign_opIddEELi0EEEEEvRT_ll, symObjAddr: 0xEE00, symBinAddr: 0x1000121B8, symSize: 0x68 }
  - { offset: 0x1DFF5B, size: 0x8, addend: 0x0, symName: __ZN5Eigen8internal31generic_dense_assignment_kernelINS0_9evaluatorINS_5BlockINS3_INS3_INS_6MatrixIdLin1ELin1ELi0ELin1ELin1EEELin1ELi1ELb1EEELin1ELi1ELb0EEELin1ELi1ELb0EEEEENS2_INS_14CwiseNullaryOpINS0_18scalar_constant_opIdEENS4_IdLin1ELi1ELi0ELin1ELi1EEEEEEENS0_9assign_opIddEELi0EE12assignPacketILi16ELi0E19__simd128_float64_tEEvl, symObjAddr: 0xEE68, symBinAddr: 0x100012220, symSize: 0x64 }
  - { offset: 0x1DFFAD, size: 0x8, addend: 0x0, symName: __ZNK5Eigen9EigenBaseINS_5BlockINS1_INS1_INS_6MatrixIdLin1ELin1ELi0ELin1ELin1EEELin1ELi1ELb1EEELin1ELi1ELb0EEELin1ELi1ELb0EEEE4sizeEv, symObjAddr: 0xEECC, symBinAddr: 0x100012284, symSize: 0x44 }
  - { offset: 0x1DFFD3, size: 0x8, addend: 0x0, symName: __ZN5Eigen7MapBaseINS_5BlockINS1_INS1_INS_6MatrixIdLin1ELin1ELi0ELin1ELin1EEELin1ELi1ELb1EEELin1ELi1ELb0EEELin1ELi1ELb0EEELi1EE4dataEv, symObjAddr: 0xEF10, symBinAddr: 0x1000122C8, symSize: 0x18 }
  - { offset: 0x1DFFF9, size: 0x8, addend: 0x0, symName: __ZN5Eigen8internal31generic_dense_assignment_kernelINS0_9evaluatorINS_5BlockINS3_INS3_INS_6MatrixIdLin1ELin1ELi0ELin1ELin1EEELin1ELi1ELb1EEELin1ELi1ELb0EEELin1ELi1ELb0EEEEENS2_INS_14CwiseNullaryOpINS0_18scalar_constant_opIdEENS4_IdLin1ELi1ELi0ELin1ELi1EEEEEEENS0_9assign_opIddEELi0EE11assignCoeffEl, symObjAddr: 0xEF28, symBinAddr: 0x1000122E0, symSize: 0x64 }
  - { offset: 0x1E002E, size: 0x8, addend: 0x0, symName: __ZN5Eigen8internal17mapbase_evaluatorINS_5BlockINS2_INS2_INS_6MatrixIdLin1ELin1ELi0ELin1ELin1EEELin1ELi1ELb1EEELin1ELi1ELb0EEELin1ELi1ELb0EEENS3_IdLin1ELi1ELi0ELin1ELi1EEEE8coeffRefEl, symObjAddr: 0xEF8C, symBinAddr: 0x100012344, symSize: 0x48 }
  - { offset: 0x1E006D, size: 0x8, addend: 0x0, symName: __ZNK5Eigen8internal9evaluatorINS_14CwiseNullaryOpINS0_18scalar_constant_opIdEENS_6MatrixIdLin1ELi1ELi0ELin1ELi1EEEEEE5coeffIlEEdT_, symObjAddr: 0xEFD4, symBinAddr: 0x10001238C, symSize: 0x38 }
  - { offset: 0x1E00AB, size: 0x8, addend: 0x0, symName: __ZNK5Eigen8internal9evaluatorINS_14CwiseNullaryOpINS0_18scalar_constant_opIdEENS_6MatrixIdLin1ELi1ELi0ELin1ELi1EEEEEE6packetILi0E19__simd128_float64_tlEET0_T1_, symObjAddr: 0xF00C, symBinAddr: 0x1000123C4, symSize: 0x38 }
  - { offset: 0x1E00FC, size: 0x8, addend: 0x0, symName: __ZN5Eigen8internal9evaluatorINS_5BlockINS2_INS2_INS_6MatrixIdLin1ELin1ELi0ELin1ELin1EEELin1ELi1ELb1EEELin1ELi1ELb0EEELin1ELi1ELb0EEEED2Ev, symObjAddr: 0xF044, symBinAddr: 0x1000123FC, symSize: 0x2C }
  - { offset: 0x1E0129, size: 0x8, addend: 0x0, symName: __ZN5Eigen8internal15block_evaluatorINS_5BlockINS2_INS_6MatrixIdLin1ELin1ELi0ELin1ELin1EEELin1ELi1ELb1EEELin1ELi1ELb0EEELin1ELi1ELb0ELb1EED2Ev, symObjAddr: 0xF070, symBinAddr: 0x100012428, symSize: 0x2C }
  - { offset: 0x1E0156, size: 0x8, addend: 0x0, symName: __ZN5Eigen8internal9evaluatorINS_14CwiseNullaryOpINS0_18scalar_constant_opIdEENS_6MatrixIdLin1ELi1ELi0ELin1ELi1EEEEEED2Ev, symObjAddr: 0xF09C, symBinAddr: 0x100012454, symSize: 0x2C }
  - { offset: 0x1E0182, size: 0x8, addend: 0x0, symName: __ZN5Eigen14CwiseNullaryOpINS_8internal18scalar_constant_opIdEEKNS_6MatrixIdLin1ELi1ELi0ELin1ELi1EEEEC1EllRKS3_, symObjAddr: 0xF0C8, symBinAddr: 0x100012480, symSize: 0x44 }
  - { offset: 0x1E01D6, size: 0x8, addend: 0x0, symName: __ZN5Eigen8internal18scalar_quotient_opIddEC1Ev, symObjAddr: 0xF10C, symBinAddr: 0x1000124C4, symSize: 0x2C }
  - { offset: 0x1E0200, size: 0x8, addend: 0x0, symName: __ZN5Eigen13CwiseBinaryOpINS_8internal18scalar_quotient_opIddEEKNS_5BlockIKNS4_INS4_INS_6MatrixIdLin1ELin1ELi0ELin1ELin1EEELin1ELi1ELb1EEELin1ELi1ELb0EEELin1ELi1ELb0EEEKNS_14CwiseNullaryOpINS1_18scalar_constant_opIdEEKNS5_IdLin1ELi1ELi0ELin1ELi1EEEEEEC1ERSB_RSI_RKS3_, symObjAddr: 0xF138, symBinAddr: 0x1000124F0, symSize: 0x44 }
  - { offset: 0x1E0254, size: 0x8, addend: 0x0, symName: __ZN5Eigen14CwiseNullaryOpINS_8internal18scalar_constant_opIdEEKNS_6MatrixIdLin1ELi1ELi0ELin1ELi1EEEEC2EllRKS3_, symObjAddr: 0xF17C, symBinAddr: 0x100012534, symSize: 0xE8 }
  - { offset: 0x1E02A8, size: 0x8, addend: 0x0, symName: __ZN5Eigen10MatrixBaseINS_14CwiseNullaryOpINS_8internal18scalar_constant_opIdEEKNS_6MatrixIdLin1ELi1ELi0ELin1ELi1EEEEEEC2Ev, symObjAddr: 0xF264, symBinAddr: 0x10001261C, symSize: 0x2C }
  - { offset: 0x1E02D2, size: 0x8, addend: 0x0, symName: __ZN5Eigen9DenseBaseINS_14CwiseNullaryOpINS_8internal18scalar_constant_opIdEEKNS_6MatrixIdLin1ELi1ELi0ELin1ELi1EEEEEEC2Ev, symObjAddr: 0xF290, symBinAddr: 0x100012648, symSize: 0x14 }
  - { offset: 0x1E02FC, size: 0x8, addend: 0x0, symName: __ZN5Eigen8internal18scalar_quotient_opIddEC2Ev, symObjAddr: 0xF2A4, symBinAddr: 0x10001265C, symSize: 0x14 }
  - { offset: 0x1E0326, size: 0x8, addend: 0x0, symName: __ZN5Eigen13CwiseBinaryOpINS_8internal18scalar_quotient_opIddEEKNS_5BlockIKNS4_INS4_INS_6MatrixIdLin1ELin1ELi0ELin1ELin1EEELin1ELi1ELb1EEELin1ELi1ELb0EEELin1ELi1ELb0EEEKNS_14CwiseNullaryOpINS1_18scalar_constant_opIdEEKNS5_IdLin1ELi1ELi0ELin1ELi1EEEEEEC2ERSB_RSI_RKS3_, symObjAddr: 0xF2B8, symBinAddr: 0x100012670, symSize: 0xFC }
  - { offset: 0x1E037F, size: 0x8, addend: 0x0, symName: __ZN5Eigen17CwiseBinaryOpImplINS_8internal18scalar_quotient_opIddEEKNS_5BlockIKNS4_INS4_INS_6MatrixIdLin1ELin1ELi0ELin1ELin1EEELin1ELi1ELb1EEELin1ELi1ELb0EEELin1ELi1ELb0EEEKNS_14CwiseNullaryOpINS1_18scalar_constant_opIdEEKNS5_IdLin1ELi1ELi0ELin1ELi1EEEEENS_5DenseEEC2Ev, symObjAddr: 0xF3B4, symBinAddr: 0x10001276C, symSize: 0x2C }
  - { offset: 0x1E03AB, size: 0x8, addend: 0x0, symName: __ZN5Eigen14CwiseNullaryOpINS_8internal18scalar_constant_opIdEEKNS_6MatrixIdLin1ELi1ELi0ELin1ELi1EEEEC1ERKS7_, symObjAddr: 0xF3E0, symBinAddr: 0x100012798, symSize: 0x34 }
  - { offset: 0x1E03E0, size: 0x8, addend: 0x0, symName: __ZNK5Eigen14CwiseNullaryOpINS_8internal18scalar_constant_opIdEEKNS_6MatrixIdLin1ELi1ELi0ELin1ELi1EEEE4rowsEv, symObjAddr: 0xF414, symBinAddr: 0x1000127CC, symSize: 0x24 }
  - { offset: 0x1E0406, size: 0x8, addend: 0x0, symName: __ZNK5Eigen14CwiseNullaryOpINS_8internal18scalar_constant_opIdEEKNS_6MatrixIdLin1ELi1ELi0ELin1ELi1EEEE4colsEv, symObjAddr: 0xF438, symBinAddr: 0x1000127F0, symSize: 0x20 }
  - { offset: 0x1E042C, size: 0x8, addend: 0x0, symName: __ZN5Eigen10MatrixBaseINS_13CwiseBinaryOpINS_8internal18scalar_quotient_opIddEEKNS_5BlockIKNS5_INS5_INS_6MatrixIdLin1ELin1ELi0ELin1ELin1EEELin1ELi1ELb1EEELin1ELi1ELb0EEELin1ELi1ELb0EEEKNS_14CwiseNullaryOpINS2_18scalar_constant_opIdEEKNS6_IdLin1ELi1ELi0ELin1ELi1EEEEEEEEC2Ev, symObjAddr: 0xF458, symBinAddr: 0x100012810, symSize: 0x2C }
  - { offset: 0x1E0456, size: 0x8, addend: 0x0, symName: __ZN5Eigen9DenseBaseINS_13CwiseBinaryOpINS_8internal18scalar_quotient_opIddEEKNS_5BlockIKNS5_INS5_INS_6MatrixIdLin1ELin1ELi0ELin1ELin1EEELin1ELi1ELb1EEELin1ELi1ELb0EEELin1ELi1ELb0EEEKNS_14CwiseNullaryOpINS2_18scalar_constant_opIdEEKNS6_IdLin1ELi1ELi0ELin1ELi1EEEEEEEEC2Ev, symObjAddr: 0xF484, symBinAddr: 0x10001283C, symSize: 0x14 }
  - { offset: 0x1E0480, size: 0x8, addend: 0x0, symName: __ZN5Eigen14CwiseNullaryOpINS_8internal18scalar_constant_opIdEEKNS_6MatrixIdLin1ELi1ELi0ELin1ELi1EEEEC2ERKS7_, symObjAddr: 0xF498, symBinAddr: 0x100012850, symSize: 0x50 }
  - { offset: 0x1E04B5, size: 0x8, addend: 0x0, symName: __ZN5Eigen9BlockImplINS_5BlockINS1_INS_6MatrixIdLin1ELin1ELi0ELin1ELin1EEELin1ELi1ELb1EEELin1ELi1ELb0EEELin1ELi1ELb0ENS_5DenseEEaSINS_13CwiseBinaryOpINS_8internal18scalar_quotient_opIddEEKNS1_IKS5_Lin1ELi1ELb0EEEKNS_14CwiseNullaryOpINSA_18scalar_constant_opIdEEKNS2_IdLin1ELi1ELi0ELin1ELi1EEEEEEEEERS7_RKNS_9DenseBaseIT_EE, symObjAddr: 0xF4E8, symBinAddr: 0x1000128A0, symSize: 0x40 }
  - { offset: 0x1E04F2, size: 0x8, addend: 0x0, symName: __ZNK5Eigen9EigenBaseINS_13CwiseBinaryOpINS_8internal18scalar_quotient_opIddEEKNS_5BlockIKNS5_INS5_INS_6MatrixIdLin1ELin1ELi0ELin1ELin1EEELin1ELi1ELb1EEELin1ELi1ELb0EEELin1ELi1ELb0EEEKNS_14CwiseNullaryOpINS2_18scalar_constant_opIdEEKNS6_IdLin1ELi1ELi0ELin1ELi1EEEEEEEE7derivedEv, symObjAddr: 0xF528, symBinAddr: 0x1000128E0, symSize: 0x14 }
  - { offset: 0x1E0518, size: 0x8, addend: 0x0, symName: __ZN5Eigen8internal15BlockImpl_denseINS_5BlockINS2_INS_6MatrixIdLin1ELin1ELi0ELin1ELin1EEELin1ELi1ELb1EEELin1ELi1ELb0EEELin1ELi1ELb0ELb1EEaSINS_13CwiseBinaryOpINS0_18scalar_quotient_opIddEEKNS2_IKS6_Lin1ELi1ELb0EEEKNS_14CwiseNullaryOpINS0_18scalar_constant_opIdEEKNS3_IdLin1ELi1ELi0ELin1ELi1EEEEEEEEERS7_RKNS_9DenseBaseIT_EE, symObjAddr: 0xF53C, symBinAddr: 0x1000128F4, symSize: 0x40 }
  - { offset: 0x1E0556, size: 0x8, addend: 0x0, symName: __ZN5Eigen10MatrixBaseINS_5BlockINS1_INS1_INS_6MatrixIdLin1ELin1ELi0ELin1ELin1EEELin1ELi1ELb1EEELin1ELi1ELb0EEELin1ELi1ELb0EEEEaSINS_13CwiseBinaryOpINS_8internal18scalar_quotient_opIddEEKNS1_IKS5_Lin1ELi1ELb0EEEKNS_14CwiseNullaryOpINSA_18scalar_constant_opIdEEKNS2_IdLin1ELi1ELi0ELin1ELi1EEEEEEEEERS6_RKNS_9DenseBaseIT_EE, symObjAddr: 0xF57C, symBinAddr: 0x100012934, symSize: 0x4C }
  - { offset: 0x1E0595, size: 0x8, addend: 0x0, symName: __ZN5Eigen8internal10AssignmentINS_5BlockINS2_INS2_INS_6MatrixIdLin1ELin1ELi0ELin1ELin1EEELin1ELi1ELb1EEELin1ELi1ELb0EEELin1ELi1ELb0EEENS_13CwiseBinaryOpINS0_18scalar_quotient_opIddEEKNS2_IKS6_Lin1ELi1ELb0EEEKNS_14CwiseNullaryOpINS0_18scalar_constant_opIdEEKNS3_IdLin1ELi1ELi0ELin1ELi1EEEEEEENS0_9assign_opIddEENS0_11Dense2DenseEvE3runERS7_RKSL_RKSN_, symObjAddr: 0xF68C, symBinAddr: 0x100012A44, symSize: 0x40 }
  - { offset: 0x1E05D7, size: 0x8, addend: 0x0, symName: __ZN5Eigen8internal9evaluatorINS_13CwiseBinaryOpINS0_18scalar_quotient_opIddEEKNS_5BlockIKNS5_INS5_INS_6MatrixIdLin1ELin1ELi0ELin1ELin1EEELin1ELi1ELb1EEELin1ELi1ELb0EEELin1ELi1ELb0EEEKNS_14CwiseNullaryOpINS0_18scalar_constant_opIdEEKNS6_IdLin1ELi1ELi0ELin1ELi1EEEEEEEEC1ERKSK_, symObjAddr: 0xF7B8, symBinAddr: 0x100012B70, symSize: 0x34 }
  - { offset: 0x1E0610, size: 0x8, addend: 0x0, symName: __ZN5Eigen8internal31generic_dense_assignment_kernelINS0_9evaluatorINS_5BlockINS3_INS3_INS_6MatrixIdLin1ELin1ELi0ELin1ELin1EEELin1ELi1ELb1EEELin1ELi1ELb0EEELin1ELi1ELb0EEEEENS2_INS_13CwiseBinaryOpINS0_18scalar_quotient_opIddEEKNS3_IKS7_Lin1ELi1ELb0EEEKNS_14CwiseNullaryOpINS0_18scalar_constant_opIdEEKNS4_IdLin1ELi1ELi0ELin1ELi1EEEEEEEEENS0_9assign_opIddEELi0EEC1ERS9_RKSO_RKSQ_RS8_, symObjAddr: 0xF8E4, symBinAddr: 0x100012C9C, symSize: 0x4C }
  - { offset: 0x1E0676, size: 0x8, addend: 0x0, symName: __ZN5Eigen8internal9evaluatorINS_13CwiseBinaryOpINS0_18scalar_quotient_opIddEEKNS_5BlockIKNS5_INS5_INS_6MatrixIdLin1ELin1ELi0ELin1ELin1EEELin1ELi1ELb1EEELin1ELi1ELb0EEELin1ELi1ELb0EEEKNS_14CwiseNullaryOpINS0_18scalar_constant_opIdEEKNS6_IdLin1ELi1ELi0ELin1ELi1EEEEEEEED1Ev, symObjAddr: 0xF9F0, symBinAddr: 0x100012DA8, symSize: 0x2C }
  - { offset: 0x1E06A3, size: 0x8, addend: 0x0, symName: __ZN5Eigen8internal9evaluatorINS_13CwiseBinaryOpINS0_18scalar_quotient_opIddEEKNS_5BlockIKNS5_INS5_INS_6MatrixIdLin1ELin1ELi0ELin1ELin1EEELin1ELi1ELb1EEELin1ELi1ELb0EEELin1ELi1ELb0EEEKNS_14CwiseNullaryOpINS0_18scalar_constant_opIdEEKNS6_IdLin1ELi1ELi0ELin1ELi1EEEEEEEEC2ERKSK_, symObjAddr: 0xFA1C, symBinAddr: 0x100012DD4, symSize: 0x34 }
  - { offset: 0x1E06DC, size: 0x8, addend: 0x0, symName: __ZN5Eigen8internal16binary_evaluatorINS_13CwiseBinaryOpINS0_18scalar_quotient_opIddEEKNS_5BlockIKNS5_INS5_INS_6MatrixIdLin1ELin1ELi0ELin1ELin1EEELin1ELi1ELb1EEELin1ELi1ELb0EEELin1ELi1ELb0EEEKNS_14CwiseNullaryOpINS0_18scalar_constant_opIdEEKNS6_IdLin1ELi1ELi0ELin1ELi1EEEEEEENS0_10IndexBasedESL_ddEC2ERKSK_, symObjAddr: 0xFA50, symBinAddr: 0x100012E08, symSize: 0x64 }
  - { offset: 0x1E0715, size: 0x8, addend: 0x0, symName: __ZN5Eigen8internal14evaluator_baseINS_13CwiseBinaryOpINS0_18scalar_quotient_opIddEEKNS_5BlockIKNS5_INS5_INS_6MatrixIdLin1ELin1ELi0ELin1ELin1EEELin1ELi1ELb1EEELin1ELi1ELb0EEELin1ELi1ELb0EEEKNS_14CwiseNullaryOpINS0_18scalar_constant_opIdEEKNS6_IdLin1ELi1ELi0ELin1ELi1EEEEEEEEC2Ev, symObjAddr: 0xFAB4, symBinAddr: 0x100012E6C, symSize: 0x14 }
  - { offset: 0x1E073F, size: 0x8, addend: 0x0, symName: __ZN5Eigen8internal16binary_evaluatorINS_13CwiseBinaryOpINS0_18scalar_quotient_opIddEEKNS_5BlockIKNS5_INS5_INS_6MatrixIdLin1ELin1ELi0ELin1ELin1EEELin1ELi1ELb1EEELin1ELi1ELb0EEELin1ELi1ELb0EEEKNS_14CwiseNullaryOpINS0_18scalar_constant_opIdEEKNS6_IdLin1ELi1ELi0ELin1ELi1EEEEEEENS0_10IndexBasedESL_ddE4DataC1ERKSK_, symObjAddr: 0xFAC8, symBinAddr: 0x100012E80, symSize: 0x34 }
  - { offset: 0x1E0778, size: 0x8, addend: 0x0, symName: __ZN5Eigen8internal14evaluator_baseINS_13CwiseBinaryOpINS0_18scalar_quotient_opIddEEKNS_5BlockIKNS5_INS5_INS_6MatrixIdLin1ELin1ELi0ELin1ELin1EEELin1ELi1ELb1EEELin1ELi1ELb0EEELin1ELi1ELb0EEEKNS_14CwiseNullaryOpINS0_18scalar_constant_opIdEEKNS6_IdLin1ELi1ELi0ELin1ELi1EEEEEEEED2Ev, symObjAddr: 0xFAFC, symBinAddr: 0x100012EB4, symSize: 0x14 }
  - { offset: 0x1E07A2, size: 0x8, addend: 0x0, symName: __ZN5Eigen8internal16binary_evaluatorINS_13CwiseBinaryOpINS0_18scalar_quotient_opIddEEKNS_5BlockIKNS5_INS5_INS_6MatrixIdLin1ELin1ELi0ELin1ELin1EEELin1ELi1ELb1EEELin1ELi1ELb0EEELin1ELi1ELb0EEEKNS_14CwiseNullaryOpINS0_18scalar_constant_opIdEEKNS6_IdLin1ELi1ELi0ELin1ELi1EEEEEEENS0_10IndexBasedESL_ddE4DataC2ERKSK_, symObjAddr: 0xFB10, symBinAddr: 0x100012EC8, symSize: 0xA0 }
  - { offset: 0x1E07DB, size: 0x8, addend: 0x0, symName: __ZNK5Eigen13CwiseBinaryOpINS_8internal18scalar_quotient_opIddEEKNS_5BlockIKNS4_INS4_INS_6MatrixIdLin1ELin1ELi0ELin1ELin1EEELin1ELi1ELb1EEELin1ELi1ELb0EEELin1ELi1ELb0EEEKNS_14CwiseNullaryOpINS1_18scalar_constant_opIdEEKNS5_IdLin1ELi1ELi0ELin1ELi1EEEEEE7functorEv, symObjAddr: 0xFBB0, symBinAddr: 0x100012F68, symSize: 0x18 }
  - { offset: 0x1E0801, size: 0x8, addend: 0x0, symName: __ZNK5Eigen13CwiseBinaryOpINS_8internal18scalar_quotient_opIddEEKNS_5BlockIKNS4_INS4_INS_6MatrixIdLin1ELin1ELi0ELin1ELin1EEELin1ELi1ELb1EEELin1ELi1ELb0EEELin1ELi1ELb0EEEKNS_14CwiseNullaryOpINS1_18scalar_constant_opIdEEKNS5_IdLin1ELi1ELi0ELin1ELi1EEEEEE3lhsEv, symObjAddr: 0xFBC8, symBinAddr: 0x100012F80, symSize: 0x14 }
  - { offset: 0x1E0827, size: 0x8, addend: 0x0, symName: __ZNK5Eigen13CwiseBinaryOpINS_8internal18scalar_quotient_opIddEEKNS_5BlockIKNS4_INS4_INS_6MatrixIdLin1ELin1ELi0ELin1ELin1EEELin1ELi1ELb1EEELin1ELi1ELb0EEELin1ELi1ELb0EEEKNS_14CwiseNullaryOpINS1_18scalar_constant_opIdEEKNS5_IdLin1ELi1ELi0ELin1ELi1EEEEEE3rhsEv, symObjAddr: 0xFBDC, symBinAddr: 0x100012F94, symSize: 0x18 }
  - { offset: 0x1E084D, size: 0x8, addend: 0x0, symName: __ZN5Eigen8internal9evaluatorIKNS_14CwiseNullaryOpINS0_18scalar_constant_opIdEEKNS_6MatrixIdLin1ELi1ELi0ELin1ELi1EEEEEEC1ERS9_, symObjAddr: 0xFBF4, symBinAddr: 0x100012FAC, symSize: 0x34 }
  - { offset: 0x1E0885, size: 0x8, addend: 0x0, symName: __ZN5Eigen8internal9evaluatorIKNS_14CwiseNullaryOpINS0_18scalar_constant_opIdEEKNS_6MatrixIdLin1ELi1ELi0ELin1ELi1EEEEEEC2ERS9_, symObjAddr: 0xFC28, symBinAddr: 0x100012FE0, symSize: 0x34 }
  - { offset: 0x1E08BD, size: 0x8, addend: 0x0, symName: __ZN5Eigen8internal9evaluatorINS_14CwiseNullaryOpINS0_18scalar_constant_opIdEEKNS_6MatrixIdLin1ELi1ELi0ELin1ELi1EEEEEEC2ERKS8_, symObjAddr: 0xFC5C, symBinAddr: 0x100013014, symSize: 0x74 }
  - { offset: 0x1E08F6, size: 0x8, addend: 0x0, symName: __ZN5Eigen8internal14evaluator_baseINS_14CwiseNullaryOpINS0_18scalar_constant_opIdEEKNS_6MatrixIdLin1ELi1ELi0ELin1ELi1EEEEEEC2Ev, symObjAddr: 0xFCD0, symBinAddr: 0x100013088, symSize: 0x14 }
  - { offset: 0x1E0920, size: 0x8, addend: 0x0, symName: __ZNK5Eigen14CwiseNullaryOpINS_8internal18scalar_constant_opIdEEKNS_6MatrixIdLin1ELi1ELi0ELin1ELi1EEEE7functorEv, symObjAddr: 0xFCE4, symBinAddr: 0x10001309C, symSize: 0x18 }
  - { offset: 0x1E0946, size: 0x8, addend: 0x0, symName: __ZN5Eigen8internal14evaluator_baseINS_14CwiseNullaryOpINS0_18scalar_constant_opIdEEKNS_6MatrixIdLin1ELi1ELi0ELin1ELi1EEEEEED2Ev, symObjAddr: 0xFCFC, symBinAddr: 0x1000130B4, symSize: 0x14 }
  - { offset: 0x1E0970, size: 0x8, addend: 0x0, symName: __ZNK5Eigen13CwiseBinaryOpINS_8internal18scalar_quotient_opIddEEKNS_5BlockIKNS4_INS4_INS_6MatrixIdLin1ELin1ELi0ELin1ELin1EEELin1ELi1ELb1EEELin1ELi1ELb0EEELin1ELi1ELb0EEEKNS_14CwiseNullaryOpINS1_18scalar_constant_opIdEEKNS5_IdLin1ELi1ELi0ELin1ELi1EEEEEE4rowsEv, symObjAddr: 0xFD10, symBinAddr: 0x1000130C8, symSize: 0x28 }
  - { offset: 0x1E0996, size: 0x8, addend: 0x0, symName: __ZNK5Eigen13CwiseBinaryOpINS_8internal18scalar_quotient_opIddEEKNS_5BlockIKNS4_INS4_INS_6MatrixIdLin1ELin1ELi0ELin1ELin1EEELin1ELi1ELb1EEELin1ELi1ELb0EEELin1ELi1ELb0EEEKNS_14CwiseNullaryOpINS1_18scalar_constant_opIdEEKNS5_IdLin1ELi1ELi0ELin1ELi1EEEEEE4colsEv, symObjAddr: 0xFD38, symBinAddr: 0x1000130F0, symSize: 0x24 }
  - { offset: 0x1E09BC, size: 0x8, addend: 0x0, symName: __ZN5Eigen8internal31generic_dense_assignment_kernelINS0_9evaluatorINS_5BlockINS3_INS3_INS_6MatrixIdLin1ELin1ELi0ELin1ELin1EEELin1ELi1ELb1EEELin1ELi1ELb0EEELin1ELi1ELb0EEEEENS2_INS_13CwiseBinaryOpINS0_18scalar_quotient_opIddEEKNS3_IKS7_Lin1ELi1ELb0EEEKNS_14CwiseNullaryOpINS0_18scalar_constant_opIdEEKNS4_IdLin1ELi1ELi0ELin1ELi1EEEEEEEEENS0_9assign_opIddEELi0EEC2ERS9_RKSO_RKSQ_RS8_, symObjAddr: 0xFD5C, symBinAddr: 0x100013114, symSize: 0x44 }
  - { offset: 0x1E0A22, size: 0x8, addend: 0x0, symName: __ZNK5Eigen8internal31generic_dense_assignment_kernelINS0_9evaluatorINS_5BlockINS3_INS3_INS_6MatrixIdLin1ELin1ELi0ELin1ELin1EEELin1ELi1ELb1EEELin1ELi1ELb0EEELin1ELi1ELb0EEEEENS2_INS_13CwiseBinaryOpINS0_18scalar_quotient_opIddEEKNS3_IKS7_Lin1ELi1ELb0EEEKNS_14CwiseNullaryOpINS0_18scalar_constant_opIdEEKNS4_IdLin1ELi1ELi0ELin1ELi1EEEEEEEEENS0_9assign_opIddEELi0EE4sizeEv, symObjAddr: 0xFDA0, symBinAddr: 0x100013158, symSize: 0x28 }
  - { offset: 0x1E0A48, size: 0x8, addend: 0x0, symName: __ZNK5Eigen8internal31generic_dense_assignment_kernelINS0_9evaluatorINS_5BlockINS3_INS3_INS_6MatrixIdLin1ELin1ELi0ELin1ELin1EEELin1ELi1ELb1EEELin1ELi1ELb0EEELin1ELi1ELb0EEEEENS2_INS_13CwiseBinaryOpINS0_18scalar_quotient_opIddEEKNS3_IKS7_Lin1ELi1ELb0EEEKNS_14CwiseNullaryOpINS0_18scalar_constant_opIdEEKNS4_IdLin1ELi1ELi0ELin1ELi1EEEEEEEEENS0_9assign_opIddEELi0EE10dstDataPtrEv, symObjAddr: 0xFDC8, symBinAddr: 0x100013180, symSize: 0x28 }
  - { offset: 0x1E0A6E, size: 0x8, addend: 0x0, symName: __ZN5Eigen8internal31unaligned_dense_assignment_loopILb0EE3runINS0_31generic_dense_assignment_kernelINS0_9evaluatorINS_5BlockINS6_INS6_INS_6MatrixIdLin1ELin1ELi0ELin1ELin1EEELin1ELi1ELb1EEELin1ELi1ELb0EEELin1ELi1ELb0EEEEENS5_INS_13CwiseBinaryOpINS0_18scalar_quotient_opIddEEKNS6_IKSA_Lin1ELi1ELb0EEEKNS_14CwiseNullaryOpINS0_18scalar_constant_opIdEEKNS7_IdLin1ELi1ELi0ELin1ELi1EEEEEEEEENS0_9assign_opIddEELi0EEEEEvRT_ll, symObjAddr: 0xFDF0, symBinAddr: 0x1000131A8, symSize: 0x68 }
  - { offset: 0x1E0AD6, size: 0x8, addend: 0x0, symName: __ZN5Eigen8internal31generic_dense_assignment_kernelINS0_9evaluatorINS_5BlockINS3_INS3_INS_6MatrixIdLin1ELin1ELi0ELin1ELin1EEELin1ELi1ELb1EEELin1ELi1ELb0EEELin1ELi1ELb0EEEEENS2_INS_13CwiseBinaryOpINS0_18scalar_quotient_opIddEEKNS3_IKS7_Lin1ELi1ELb0EEEKNS_14CwiseNullaryOpINS0_18scalar_constant_opIdEEKNS4_IdLin1ELi1ELi0ELin1ELi1EEEEEEEEENS0_9assign_opIddEELi0EE12assignPacketILi16ELi0E19__simd128_float64_tEEvl, symObjAddr: 0xFE58, symBinAddr: 0x100013210, symSize: 0x64 }
  - { offset: 0x1E0B28, size: 0x8, addend: 0x0, symName: __ZN5Eigen8internal31generic_dense_assignment_kernelINS0_9evaluatorINS_5BlockINS3_INS3_INS_6MatrixIdLin1ELin1ELi0ELin1ELin1EEELin1ELi1ELb1EEELin1ELi1ELb0EEELin1ELi1ELb0EEEEENS2_INS_13CwiseBinaryOpINS0_18scalar_quotient_opIddEEKNS3_IKS7_Lin1ELi1ELb0EEEKNS_14CwiseNullaryOpINS0_18scalar_constant_opIdEEKNS4_IdLin1ELi1ELi0ELin1ELi1EEEEEEEEENS0_9assign_opIddEELi0EE11assignCoeffEl, symObjAddr: 0xFEBC, symBinAddr: 0x100013274, symSize: 0x64 }
  - { offset: 0x1E0B5D, size: 0x8, addend: 0x0, symName: __ZNK5Eigen8internal16binary_evaluatorINS_13CwiseBinaryOpINS0_18scalar_quotient_opIddEEKNS_5BlockIKNS5_INS5_INS_6MatrixIdLin1ELin1ELi0ELin1ELin1EEELin1ELi1ELb1EEELin1ELi1ELb0EEELin1ELi1ELb0EEEKNS_14CwiseNullaryOpINS0_18scalar_constant_opIdEEKNS6_IdLin1ELi1ELi0ELin1ELi1EEEEEEENS0_10IndexBasedESL_ddE5coeffEl, symObjAddr: 0xFF20, symBinAddr: 0x1000132D8, symSize: 0x70 }
  - { offset: 0x1E0B92, size: 0x8, addend: 0x0, symName: __ZNK5Eigen8internal16binary_evaluatorINS_13CwiseBinaryOpINS0_18scalar_quotient_opIddEEKNS_5BlockIKNS5_INS5_INS_6MatrixIdLin1ELin1ELi0ELin1ELin1EEELin1ELi1ELb1EEELin1ELi1ELb0EEELin1ELi1ELb0EEEKNS_14CwiseNullaryOpINS0_18scalar_constant_opIdEEKNS6_IdLin1ELi1ELi0ELin1ELi1EEEEEEENS0_10IndexBasedESL_ddE4Data4funcEv, symObjAddr: 0xFF90, symBinAddr: 0x100013348, symSize: 0x14 }
  - { offset: 0x1E0BC2, size: 0x8, addend: 0x0, symName: __ZNK5Eigen8internal9evaluatorINS_14CwiseNullaryOpINS0_18scalar_constant_opIdEEKNS_6MatrixIdLin1ELi1ELi0ELin1ELi1EEEEEE5coeffIlEEdT_, symObjAddr: 0xFFA4, symBinAddr: 0x10001335C, symSize: 0x38 }
  - { offset: 0x1E0C00, size: 0x8, addend: 0x0, symName: __ZNK5Eigen8internal16binary_evaluatorINS_13CwiseBinaryOpINS0_18scalar_quotient_opIddEEKNS_5BlockIKNS5_INS5_INS_6MatrixIdLin1ELin1ELi0ELin1ELin1EEELin1ELi1ELb1EEELin1ELi1ELb0EEELin1ELi1ELb0EEEKNS_14CwiseNullaryOpINS0_18scalar_constant_opIdEEKNS6_IdLin1ELi1ELi0ELin1ELi1EEEEEEENS0_10IndexBasedESL_ddE6packetILi0E19__simd128_float64_tEET0_l, symObjAddr: 0xFFDC, symBinAddr: 0x100013394, symSize: 0x70 }
  - { offset: 0x1E0C48, size: 0x8, addend: 0x0, symName: __ZNK5Eigen8internal9evaluatorINS_14CwiseNullaryOpINS0_18scalar_constant_opIdEEKNS_6MatrixIdLin1ELi1ELi0ELin1ELi1EEEEEE6packetILi0E19__simd128_float64_tlEET0_T1_, symObjAddr: 0x1004C, symBinAddr: 0x100013404, symSize: 0x38 }
  - { offset: 0x1E0C99, size: 0x8, addend: 0x0, symName: __ZN5Eigen8internal9evaluatorINS_13CwiseBinaryOpINS0_18scalar_quotient_opIddEEKNS_5BlockIKNS5_INS5_INS_6MatrixIdLin1ELin1ELi0ELin1ELin1EEELin1ELi1ELb1EEELin1ELi1ELb0EEELin1ELi1ELb0EEEKNS_14CwiseNullaryOpINS0_18scalar_constant_opIdEEKNS6_IdLin1ELi1ELi0ELin1ELi1EEEEEEEED2Ev, symObjAddr: 0x10084, symBinAddr: 0x10001343C, symSize: 0x2C }
  - { offset: 0x1E0CC6, size: 0x8, addend: 0x0, symName: __ZN5Eigen8internal16binary_evaluatorINS_13CwiseBinaryOpINS0_18scalar_quotient_opIddEEKNS_5BlockIKNS5_INS5_INS_6MatrixIdLin1ELin1ELi0ELin1ELin1EEELin1ELi1ELb1EEELin1ELi1ELb0EEELin1ELi1ELb0EEEKNS_14CwiseNullaryOpINS0_18scalar_constant_opIdEEKNS6_IdLin1ELi1ELi0ELin1ELi1EEEEEEENS0_10IndexBasedESL_ddED2Ev, symObjAddr: 0x100B0, symBinAddr: 0x100013468, symSize: 0x34 }
  - { offset: 0x1E0CF2, size: 0x8, addend: 0x0, symName: __ZN5Eigen8internal16binary_evaluatorINS_13CwiseBinaryOpINS0_18scalar_quotient_opIddEEKNS_5BlockIKNS5_INS5_INS_6MatrixIdLin1ELin1ELi0ELin1ELin1EEELin1ELi1ELb1EEELin1ELi1ELb0EEELin1ELi1ELb0EEEKNS_14CwiseNullaryOpINS0_18scalar_constant_opIdEEKNS6_IdLin1ELi1ELi0ELin1ELi1EEEEEEENS0_10IndexBasedESL_ddE4DataD1Ev, symObjAddr: 0x100E4, symBinAddr: 0x10001349C, symSize: 0x2C }
  - { offset: 0x1E0D1F, size: 0x8, addend: 0x0, symName: __ZN5Eigen8internal16binary_evaluatorINS_13CwiseBinaryOpINS0_18scalar_quotient_opIddEEKNS_5BlockIKNS5_INS5_INS_6MatrixIdLin1ELin1ELi0ELin1ELin1EEELin1ELi1ELb1EEELin1ELi1ELb0EEELin1ELi1ELb0EEEKNS_14CwiseNullaryOpINS0_18scalar_constant_opIdEEKNS6_IdLin1ELi1ELi0ELin1ELi1EEEEEEENS0_10IndexBasedESL_ddE4DataD2Ev, symObjAddr: 0x10110, symBinAddr: 0x1000134C8, symSize: 0x3C }
  - { offset: 0x1E0D4C, size: 0x8, addend: 0x0, symName: __ZN5Eigen8internal9evaluatorIKNS_14CwiseNullaryOpINS0_18scalar_constant_opIdEEKNS_6MatrixIdLin1ELi1ELi0ELin1ELi1EEEEEED1Ev, symObjAddr: 0x1014C, symBinAddr: 0x100013504, symSize: 0x2C }
  - { offset: 0x1E0D78, size: 0x8, addend: 0x0, symName: __ZN5Eigen8internal9evaluatorIKNS_14CwiseNullaryOpINS0_18scalar_constant_opIdEEKNS_6MatrixIdLin1ELi1ELi0ELin1ELi1EEEEEED2Ev, symObjAddr: 0x10178, symBinAddr: 0x100013530, symSize: 0x2C }
  - { offset: 0x1E0DA4, size: 0x8, addend: 0x0, symName: __ZN5Eigen8internal9evaluatorINS_14CwiseNullaryOpINS0_18scalar_constant_opIdEEKNS_6MatrixIdLin1ELi1ELi0ELin1ELi1EEEEEED2Ev, symObjAddr: 0x101A4, symBinAddr: 0x10001355C, symSize: 0x2C }
  - { offset: 0x1E0DD0, size: 0x8, addend: 0x0, symName: __ZNK5Eigen15DenseCoeffsBaseINS_5BlockINS_6MatrixIdLin1ELin1ELi0ELin1ELin1EEELin1ELi1ELb1EEELi3EE11innerStrideEv, symObjAddr: 0x101D0, symBinAddr: 0x100013588, symSize: 0x28 }
  - { offset: 0x1E0DF6, size: 0x8, addend: 0x0, symName: __ZN5Eigen12DenseStorageIdLin1ELin1ELi1ELi0EE4dataEv, symObjAddr: 0x101F8, symBinAddr: 0x1000135B0, symSize: 0x18 }
  - { offset: 0x1E0E1C, size: 0x8, addend: 0x0, symName: __ZN5Eigen5BlockINS_6MatrixIdLin1ELin1ELi0ELin1ELin1EEELin1ELin1ELb0EEC1ERS2_llll, symObjAddr: 0x10210, symBinAddr: 0x1000135C8, symSize: 0x54 }
  - { offset: 0x1E0E8C, size: 0x8, addend: 0x0, symName: __ZN5Eigen5BlockINS_6MatrixIdLin1ELin1ELi0ELin1ELin1EEELin1ELin1ELb0EEC2ERS2_llll, symObjAddr: 0x10264, symBinAddr: 0x10001361C, symSize: 0x154 }
  - { offset: 0x1E0EFC, size: 0x8, addend: 0x0, symName: __ZN5Eigen9BlockImplINS_6MatrixIdLin1ELin1ELi0ELin1ELin1EEELin1ELin1ELb0ENS_5DenseEEC2ERS2_llll, symObjAddr: 0x103B8, symBinAddr: 0x100013770, symSize: 0x54 }
  - { offset: 0x1E0F6C, size: 0x8, addend: 0x0, symName: __ZN5Eigen8internal15BlockImpl_denseINS_6MatrixIdLin1ELin1ELi0ELin1ELin1EEELin1ELin1ELb0ELb1EEC2ERS3_llll, symObjAddr: 0x1040C, symBinAddr: 0x1000137C4, symSize: 0xC0 }
  - { offset: 0x1E0FE1, size: 0x8, addend: 0x0, symName: __ZN5Eigen7MapBaseINS_5BlockINS_6MatrixIdLin1ELin1ELi0ELin1ELin1EEELin1ELin1ELb0EEELi1EEC2EPdll, symObjAddr: 0x104CC, symBinAddr: 0x100013884, symSize: 0x44 }
  - { offset: 0x1E1038, size: 0x8, addend: 0x0, symName: __ZN5Eigen8internal15BlockImpl_denseINS_6MatrixIdLin1ELin1ELi0ELin1ELin1EEELin1ELin1ELb0ELb1EE4initEv, symObjAddr: 0x10510, symBinAddr: 0x1000138C8, symSize: 0x34 }
  - { offset: 0x1E105E, size: 0x8, addend: 0x0, symName: __ZN5Eigen7MapBaseINS_5BlockINS_6MatrixIdLin1ELin1ELi0ELin1ELin1EEELin1ELin1ELb0EEELi0EEC2EPdll, symObjAddr: 0x10544, symBinAddr: 0x1000138FC, symSize: 0x110 }
  - { offset: 0x1E10B2, size: 0x8, addend: 0x0, symName: __ZN5Eigen10MatrixBaseINS_5BlockINS_6MatrixIdLin1ELin1ELi0ELin1ELin1EEELin1ELin1ELb0EEEEC2Ev, symObjAddr: 0x10654, symBinAddr: 0x100013A0C, symSize: 0x2C }
  - { offset: 0x1E10DC, size: 0x8, addend: 0x0, symName: __ZNK5Eigen7MapBaseINS_5BlockINS_6MatrixIdLin1ELin1ELi0ELin1ELin1EEELin1ELin1ELb0EEELi0EE11checkSanityIS4_EEvNS_8internal9enable_ifIXeqsr8internal6traitsIT_EE9AlignmentLi0EEPvE4typeE, symObjAddr: 0x10680, symBinAddr: 0x100013A38, symSize: 0x14 }
  - { offset: 0x1E1116, size: 0x8, addend: 0x0, symName: __ZN5Eigen9DenseBaseINS_5BlockINS_6MatrixIdLin1ELin1ELi0ELin1ELin1EEELin1ELin1ELb0EEEEC2Ev, symObjAddr: 0x10694, symBinAddr: 0x100013A4C, symSize: 0x14 }
  - { offset: 0x1E1140, size: 0x8, addend: 0x0, symName: __ZNK5Eigen9EigenBaseINS_5BlockINS_6MatrixIdLin1ELin1ELi0ELin1ELin1EEELin1ELin1ELb0EEEE4rowsEv, symObjAddr: 0x106A8, symBinAddr: 0x100013A60, symSize: 0x38 }
  - { offset: 0x1E1166, size: 0x8, addend: 0x0, symName: __ZN5Eigen9DenseBaseINS_5BlockINS_6MatrixIdLin1ELin1ELi0ELin1ELin1EEELin1ELin1ELb0EEEEmLERKd, symObjAddr: 0x106E0, symBinAddr: 0x100013A98, symSize: 0x8C }
  - { offset: 0x1E119D, size: 0x8, addend: 0x0, symName: __ZNK5Eigen9EigenBaseINS_5BlockINS_6MatrixIdLin1ELin1ELi0ELin1ELin1EEELin1ELin1ELb0EEEE4colsEv, symObjAddr: 0x1076C, symBinAddr: 0x100013B24, symSize: 0x28 }
  - { offset: 0x1E11C3, size: 0x8, addend: 0x0, symName: __ZN5Eigen6StrideILi0ELi0EEC1Ev, symObjAddr: 0x10794, symBinAddr: 0x100013B4C, symSize: 0x2C }
  - { offset: 0x1E11ED, size: 0x8, addend: 0x0, symName: __ZN5Eigen3MapINS_6MatrixIdLi1ELin1ELi1ELi1ELin1EEELi0ENS_6StrideILi0ELi0EEEEC1EPdlRKS4_, symObjAddr: 0x107C0, symBinAddr: 0x100013B78, symSize: 0x44 }
  - { offset: 0x1E1241, size: 0x8, addend: 0x0, symName: __ZN5Eigen9EigenBaseINS_5BlockINS_6MatrixIdLin1ELin1ELi0ELin1ELin1EEELin1ELin1ELb0EEEE7derivedEv, symObjAddr: 0x10804, symBinAddr: 0x100013BBC, symSize: 0x14 }
  - { offset: 0x1E1267, size: 0x8, addend: 0x0, symName: __ZN5Eigen5BlockINS0_INS_6MatrixIdLin1ELin1ELi0ELin1ELin1EEELin1ELin1ELb0EEELin1ELin1ELb0EEC1ERS3_llll, symObjAddr: 0x10818, symBinAddr: 0x100013BD0, symSize: 0x54 }
  - { offset: 0x1E12D7, size: 0x8, addend: 0x0, symName: __ZNK5Eigen10MatrixBaseINS_5BlockINS1_INS_6MatrixIdLin1ELin1ELi0ELin1ELin1EEELin1ELi1ELb1EEELin1ELi1ELb0EEEE7adjointEv, symObjAddr: 0x1086C, symBinAddr: 0x100013C24, symSize: 0x24 }
  - { offset: 0x1E12FF, size: 0x8, addend: 0x0, symName: __ZNK5Eigen10MatrixBaseINS_9TransposeIKNS_5BlockINS2_INS_6MatrixIdLin1ELin1ELi0ELin1ELin1EEELin1ELi1ELb1EEELin1ELi1ELb0EEEEEEmlINS2_INS2_IS4_Lin1ELin1ELb0EEELin1ELin1ELb0EEEEEKNS_7ProductIS8_T_Li0EEERKNS0_ISE_EE, symObjAddr: 0x10890, symBinAddr: 0x100013C48, symSize: 0x48 }
  - { offset: 0x1E133F, size: 0x8, addend: 0x0, symName: __ZN5Eigen10MatrixBaseINS_3MapINS_6MatrixIdLi1ELin1ELi1ELi1ELin1EEELi0ENS_6StrideILi0ELi0EEEEEE7noaliasEv, symObjAddr: 0x108D8, symBinAddr: 0x100013C90, symSize: 0x34 }
  - { offset: 0x1E1367, size: 0x8, addend: 0x0, symName: __ZN5Eigen7NoAliasINS_3MapINS_6MatrixIdLi1ELin1ELi1ELi1ELin1EEELi0ENS_6StrideILi0ELi0EEEEENS_10MatrixBaseEEaSINS_7ProductINS_9TransposeIKNS_5BlockINSC_INS2_IdLin1ELin1ELi0ELin1ELin1EEELin1ELi1ELb1EEELin1ELi1ELb0EEEEENSC_INSC_ISD_Lin1ELin1ELb0EEELin1ELin1ELb0EEELi0EEEEERS6_RKNS7_IT_EE, symObjAddr: 0x1090C, symBinAddr: 0x100013CC4, symSize: 0x60 }
  - { offset: 0x1E13A4, size: 0x8, addend: 0x0, symName: __ZN5Eigen9DenseBaseINS_5BlockINS_6MatrixIdLin1ELin1ELi0ELin1ELin1EEELin1ELin1ELb0EEEE3rowEl, symObjAddr: 0x1096C, symBinAddr: 0x100013D24, symSize: 0x3C }
  - { offset: 0x1E13D9, size: 0x8, addend: 0x0, symName: __ZN5Eigen10MatrixBaseINS_3MapINS_6MatrixIdLi1ELin1ELi1ELi1ELin1EEELi0ENS_6StrideILi0ELi0EEEEEEpLINS_5BlockINS9_INS2_IdLin1ELin1ELi0ELin1ELin1EEELin1ELin1ELb0EEELi1ELin1ELb0EEEEERS6_RKNS0_IT_EE, symObjAddr: 0x109A8, symBinAddr: 0x100013D60, symSize: 0x64 }
  - { offset: 0x1E1418, size: 0x8, addend: 0x0, symName: __ZN5Eigen10MatrixBaseINS_5BlockINS1_INS_6MatrixIdLin1ELin1ELi0ELin1ELin1EEELin1ELin1ELb0EEELi1ELin1ELb0EEEEmIINS_13CwiseBinaryOpINS_8internal17scalar_product_opIddEEKNS_14CwiseNullaryOpINS9_18scalar_constant_opIdEEKNS2_IdLi1ELin1ELi1ELi1ELin1EEEEEKNS_3MapISF_Li0ENS_6StrideILi0ELi0EEEEEEEEERS5_RKNS0_IT_EE, symObjAddr: 0x10AA8, symBinAddr: 0x100013E60, symSize: 0x64 }
  - { offset: 0x1E1457, size: 0x8, addend: 0x0, symName: __ZNK5Eigen10MatrixBaseINS_13CwiseBinaryOpINS_8internal17scalar_product_opIddEEKNS_14CwiseNullaryOpINS2_18scalar_constant_opIdEEKNS_6MatrixIdLin1ELi1ELi0ELin1ELi1EEEEEKNS_5BlockINSD_INS8_IdLin1ELin1ELi0ELin1ELin1EEELin1ELi1ELb1EEELin1ELi1ELb0EEEEEEmlINS_3MapINS8_IdLi1ELin1ELi1ELi1ELin1EEELi0ENS_6StrideILi0ELi0EEEEEEEKNS_7ProductISI_T_Li0EEERKNS0_ISR_EE, symObjAddr: 0x10BA8, symBinAddr: 0x100013F60, symSize: 0x4C }
  - { offset: 0x1E1497, size: 0x8, addend: 0x0, symName: __ZN5Eigen10MatrixBaseINS_5BlockINS1_INS_6MatrixIdLin1ELin1ELi0ELin1ELin1EEELin1ELin1ELb0EEELin1ELin1ELb0EEEE7noaliasEv, symObjAddr: 0x10BF4, symBinAddr: 0x100013FAC, symSize: 0x34 }
  - { offset: 0x1E14BF, size: 0x8, addend: 0x0, symName: __ZN5Eigen7NoAliasINS_5BlockINS1_INS_6MatrixIdLin1ELin1ELi0ELin1ELin1EEELin1ELin1ELb0EEELin1ELin1ELb0EEENS_10MatrixBaseEEmIINS_7ProductINS_13CwiseBinaryOpINS_8internal17scalar_product_opIddEEKNS_14CwiseNullaryOpINSB_18scalar_constant_opIdEEKNS2_IdLin1ELi1ELi0ELin1ELi1EEEEEKNS1_INS1_IS3_Lin1ELi1ELb1EEELin1ELi1ELb0EEEEENS_3MapINS2_IdLi1ELin1ELi1ELi1ELin1EEELi0ENS_6StrideILi0ELi0EEEEELi0EEEEERS5_RKNS6_IT_EE, symObjAddr: 0x10C28, symBinAddr: 0x100013FE0, symSize: 0x60 }
  - { offset: 0x1E14FC, size: 0x8, addend: 0x0, symName: __ZNK5Eigen9EigenBaseINS_5BlockINS_6MatrixIdLin1ELin1ELi0ELin1ELin1EEELin1ELin1ELb0EEEE7derivedEv, symObjAddr: 0x10C88, symBinAddr: 0x100014040, symSize: 0x14 }
  - { offset: 0x1E1522, size: 0x8, addend: 0x0, symName: __ZNK5Eigen7MapBaseINS_5BlockINS_6MatrixIdLin1ELin1ELi0ELin1ELin1EEELin1ELin1ELb0EEELi0EE4rowsEv, symObjAddr: 0x10C9C, symBinAddr: 0x100014054, symSize: 0x28 }
  - { offset: 0x1E1548, size: 0x8, addend: 0x0, symName: __ZN5Eigen8internal13mul_assign_opIddEC1Ev, symObjAddr: 0x10CFC, symBinAddr: 0x1000140B4, symSize: 0x2C }
  - { offset: 0x1E1572, size: 0x8, addend: 0x0, symName: __ZN5Eigen8internal10AssignmentINS_5BlockINS_6MatrixIdLin1ELin1ELi0ELin1ELin1EEELin1ELin1ELb0EEENS_14CwiseNullaryOpINS0_18scalar_constant_opIdEES4_EENS0_13mul_assign_opIddEENS0_11Dense2DenseEvE3runERS5_RKS9_RKSB_, symObjAddr: 0x10D64, symBinAddr: 0x10001411C, symSize: 0x40 }
  - { offset: 0x1E15B4, size: 0x8, addend: 0x0, symName: __ZNK5Eigen7MapBaseINS_5BlockINS_6MatrixIdLin1ELin1ELi0ELin1ELin1EEELin1ELin1ELb0EEELi0EE4colsEv, symObjAddr: 0x10EE4, symBinAddr: 0x10001429C, symSize: 0x28 }
  - { offset: 0x1E15DA, size: 0x8, addend: 0x0, symName: __ZN5Eigen8internal27checkTransposeAliasing_implINS_5BlockINS_6MatrixIdLin1ELin1ELi0ELin1ELin1EEELin1ELin1ELb0EEENS_14CwiseNullaryOpINS0_18scalar_constant_opIdEES4_EELb0EE3runERKS5_RKS9_, symObjAddr: 0x10F0C, symBinAddr: 0x1000142C4, symSize: 0x14 }
  - { offset: 0x1E1605, size: 0x8, addend: 0x0, symName: __ZN5Eigen8internal9evaluatorINS_14CwiseNullaryOpINS0_18scalar_constant_opIdEENS_6MatrixIdLin1ELin1ELi0ELin1ELin1EEEEEEC1ERKS7_, symObjAddr: 0x10F20, symBinAddr: 0x1000142D8, symSize: 0x34 }
  - { offset: 0x1E163E, size: 0x8, addend: 0x0, symName: __ZN5Eigen8internal9evaluatorINS_5BlockINS_6MatrixIdLin1ELin1ELi0ELin1ELin1EEELin1ELin1ELb0EEEEC1ERKS5_, symObjAddr: 0x11008, symBinAddr: 0x1000143C0, symSize: 0x34 }
  - { offset: 0x1E1677, size: 0x8, addend: 0x0, symName: __ZNK5Eigen9EigenBaseINS_5BlockINS_6MatrixIdLin1ELin1ELi0ELin1ELin1EEELin1ELin1ELb0EEEE18const_cast_derivedEv, symObjAddr: 0x1103C, symBinAddr: 0x1000143F4, symSize: 0x14 }
  - { offset: 0x1E169D, size: 0x8, addend: 0x0, symName: __ZN5Eigen8internal31generic_dense_assignment_kernelINS0_9evaluatorINS_5BlockINS_6MatrixIdLin1ELin1ELi0ELin1ELin1EEELin1ELin1ELb0EEEEENS2_INS_14CwiseNullaryOpINS0_18scalar_constant_opIdEES5_EEEENS0_13mul_assign_opIddEELi0EEC1ERS7_RKSC_RKSE_RS6_, symObjAddr: 0x11050, symBinAddr: 0x100014408, symSize: 0x4C }
  - { offset: 0x1E1703, size: 0x8, addend: 0x0, symName: __ZN5Eigen8internal9evaluatorINS_5BlockINS_6MatrixIdLin1ELin1ELi0ELin1ELin1EEELin1ELin1ELb0EEEED1Ev, symObjAddr: 0x112B0, symBinAddr: 0x100014668, symSize: 0x2C }
  - { offset: 0x1E1730, size: 0x8, addend: 0x0, symName: __ZN5Eigen8internal9evaluatorINS_14CwiseNullaryOpINS0_18scalar_constant_opIdEENS_6MatrixIdLin1ELin1ELi0ELin1ELin1EEEEEED1Ev, symObjAddr: 0x112DC, symBinAddr: 0x100014694, symSize: 0x2C }
  - { offset: 0x1E175C, size: 0x8, addend: 0x0, symName: __ZN5Eigen8internal9evaluatorINS_14CwiseNullaryOpINS0_18scalar_constant_opIdEENS_6MatrixIdLin1ELin1ELi0ELin1ELin1EEEEEEC2ERKS7_, symObjAddr: 0x11308, symBinAddr: 0x1000146C0, symSize: 0x6C }
  - { offset: 0x1E1795, size: 0x8, addend: 0x0, symName: __ZN5Eigen8internal14evaluator_baseINS_14CwiseNullaryOpINS0_18scalar_constant_opIdEENS_6MatrixIdLin1ELin1ELi0ELin1ELin1EEEEEEC2Ev, symObjAddr: 0x11374, symBinAddr: 0x10001472C, symSize: 0x14 }
  - { offset: 0x1E17BF, size: 0x8, addend: 0x0, symName: __ZN5Eigen8internal14evaluator_baseINS_14CwiseNullaryOpINS0_18scalar_constant_opIdEENS_6MatrixIdLin1ELin1ELi0ELin1ELin1EEEEEED2Ev, symObjAddr: 0x11388, symBinAddr: 0x100014740, symSize: 0x14 }
  - { offset: 0x1E17E9, size: 0x8, addend: 0x0, symName: __ZN5Eigen8internal9evaluatorINS_5BlockINS_6MatrixIdLin1ELin1ELi0ELin1ELin1EEELin1ELin1ELb0EEEEC2ERKS5_, symObjAddr: 0x1139C, symBinAddr: 0x100014754, symSize: 0x34 }
  - { offset: 0x1E1822, size: 0x8, addend: 0x0, symName: __ZN5Eigen8internal15block_evaluatorINS_6MatrixIdLin1ELin1ELi0ELin1ELin1EEELin1ELin1ELb0ELb1EEC2ERKNS_5BlockIS3_Lin1ELin1ELb0EEE, symObjAddr: 0x113D0, symBinAddr: 0x100014788, symSize: 0xDC }
  - { offset: 0x1E185B, size: 0x8, addend: 0x0, symName: __ZN5Eigen8internal17mapbase_evaluatorINS_5BlockINS_6MatrixIdLin1ELin1ELi0ELin1ELin1EEELin1ELin1ELb0EEES4_EC2ERKS5_, symObjAddr: 0x114AC, symBinAddr: 0x100014864, symSize: 0xB0 }
  - { offset: 0x1E1894, size: 0x8, addend: 0x0, symName: __ZNK5Eigen7MapBaseINS_5BlockINS_6MatrixIdLin1ELin1ELi0ELin1ELin1EEELin1ELin1ELb0EEELi1EE4dataEv, symObjAddr: 0x1155C, symBinAddr: 0x100014914, symSize: 0x18 }
  - { offset: 0x1E18BA, size: 0x8, addend: 0x0, symName: __ZN5Eigen8internal17mapbase_evaluatorINS_5BlockINS_6MatrixIdLin1ELin1ELi0ELin1ELin1EEELin1ELin1ELb0EEES4_ED2Ev, symObjAddr: 0x11574, symBinAddr: 0x10001492C, symSize: 0x2C }
  - { offset: 0x1E18E7, size: 0x8, addend: 0x0, symName: __ZN5Eigen8internal14evaluator_baseINS_5BlockINS_6MatrixIdLin1ELin1ELi0ELin1ELin1EEELin1ELin1ELb0EEEEC2Ev, symObjAddr: 0x115A0, symBinAddr: 0x100014958, symSize: 0x14 }
  - { offset: 0x1E1911, size: 0x8, addend: 0x0, symName: __ZNK5Eigen8internal15BlockImpl_denseINS_6MatrixIdLin1ELin1ELi0ELin1ELin1EEELin1ELin1ELb0ELb1EE11innerStrideEv, symObjAddr: 0x115B4, symBinAddr: 0x10001496C, symSize: 0x28 }
  - { offset: 0x1E1937, size: 0x8, addend: 0x0, symName: __ZNK5Eigen8internal15BlockImpl_denseINS_6MatrixIdLin1ELin1ELi0ELin1ELin1EEELin1ELin1ELb0ELb1EE11outerStrideEv, symObjAddr: 0x115DC, symBinAddr: 0x100014994, symSize: 0x28 }
  - { offset: 0x1E195D, size: 0x8, addend: 0x0, symName: __ZN5Eigen8internal14evaluator_baseINS_5BlockINS_6MatrixIdLin1ELin1ELi0ELin1ELin1EEELin1ELin1ELb0EEEED2Ev, symObjAddr: 0x11604, symBinAddr: 0x1000149BC, symSize: 0x14 }
  - { offset: 0x1E1987, size: 0x8, addend: 0x0, symName: __ZN5Eigen8internal31generic_dense_assignment_kernelINS0_9evaluatorINS_5BlockINS_6MatrixIdLin1ELin1ELi0ELin1ELin1EEELin1ELin1ELb0EEEEENS2_INS_14CwiseNullaryOpINS0_18scalar_constant_opIdEES5_EEEENS0_13mul_assign_opIddEELi0EEC2ERS7_RKSC_RKSE_RS6_, symObjAddr: 0x11618, symBinAddr: 0x1000149D0, symSize: 0x44 }
  - { offset: 0x1E19ED, size: 0x8, addend: 0x0, symName: __ZNK5Eigen8internal31generic_dense_assignment_kernelINS0_9evaluatorINS_5BlockINS_6MatrixIdLin1ELin1ELi0ELin1ELin1EEELin1ELin1ELb0EEEEENS2_INS_14CwiseNullaryOpINS0_18scalar_constant_opIdEES5_EEEENS0_13mul_assign_opIddEELi0EE10dstDataPtrEv, symObjAddr: 0x1165C, symBinAddr: 0x100014A14, symSize: 0x28 }
  - { offset: 0x1E1A13, size: 0x8, addend: 0x0, symName: __ZN5Eigen8internal21dense_assignment_loopINS0_31generic_dense_assignment_kernelINS0_9evaluatorINS_5BlockINS_6MatrixIdLin1ELin1ELi0ELin1ELin1EEELin1ELin1ELb0EEEEENS3_INS_14CwiseNullaryOpINS0_18scalar_constant_opIdEES6_EEEENS0_13mul_assign_opIddEELi0EEELi0ELi0EE3runERSG_, symObjAddr: 0x11684, symBinAddr: 0x100014A3C, symSize: 0xAC }
  - { offset: 0x1E1A71, size: 0x8, addend: 0x0, symName: __ZNK5Eigen8internal31generic_dense_assignment_kernelINS0_9evaluatorINS_5BlockINS_6MatrixIdLin1ELin1ELi0ELin1ELin1EEELin1ELin1ELb0EEEEENS2_INS_14CwiseNullaryOpINS0_18scalar_constant_opIdEES5_EEEENS0_13mul_assign_opIddEELi0EE9innerSizeEv, symObjAddr: 0x11730, symBinAddr: 0x100014AE8, symSize: 0x38 }
  - { offset: 0x1E1A97, size: 0x8, addend: 0x0, symName: __ZNK5Eigen8internal31generic_dense_assignment_kernelINS0_9evaluatorINS_5BlockINS_6MatrixIdLin1ELin1ELi0ELin1ELin1EEELin1ELin1ELb0EEEEENS2_INS_14CwiseNullaryOpINS0_18scalar_constant_opIdEES5_EEEENS0_13mul_assign_opIddEELi0EE9outerSizeEv, symObjAddr: 0x11768, symBinAddr: 0x100014B20, symSize: 0x38 }
  - { offset: 0x1E1ABD, size: 0x8, addend: 0x0, symName: __ZNK5Eigen8internal31generic_dense_assignment_kernelINS0_9evaluatorINS_5BlockINS_6MatrixIdLin1ELin1ELi0ELin1ELin1EEELin1ELin1ELb0EEEEENS2_INS_14CwiseNullaryOpINS0_18scalar_constant_opIdEES5_EEEENS0_13mul_assign_opIddEELi0EE11outerStrideEv, symObjAddr: 0x117A0, symBinAddr: 0x100014B58, symSize: 0x28 }
  - { offset: 0x1E1AE3, size: 0x8, addend: 0x0, symName: __ZN5Eigen8internal31generic_dense_assignment_kernelINS0_9evaluatorINS_5BlockINS_6MatrixIdLin1ELin1ELi0ELin1ELin1EEELin1ELin1ELb0EEEEENS2_INS_14CwiseNullaryOpINS0_18scalar_constant_opIdEES5_EEEENS0_13mul_assign_opIddEELi0EE23assignCoeffByOuterInnerEll, symObjAddr: 0x117C8, symBinAddr: 0x100014B80, symSize: 0x60 }
  - { offset: 0x1E1B45, size: 0x8, addend: 0x0, symName: __ZN5Eigen8internal31generic_dense_assignment_kernelINS0_9evaluatorINS_5BlockINS_6MatrixIdLin1ELin1ELi0ELin1ELin1EEELin1ELin1ELb0EEEEENS2_INS_14CwiseNullaryOpINS0_18scalar_constant_opIdEES5_EEEENS0_13mul_assign_opIddEELi0EE24assignPacketByOuterInnerILi16ELi0E19__simd128_float64_tEEvll, symObjAddr: 0x11828, symBinAddr: 0x100014BE0, symSize: 0x60 }
  - { offset: 0x1E1BC4, size: 0x8, addend: 0x0, symName: __ZN5Eigen7MapBaseINS_5BlockINS_6MatrixIdLin1ELin1ELi0ELin1ELin1EEELin1ELin1ELb0EEELi1EE4dataEv, symObjAddr: 0x11888, symBinAddr: 0x100014C40, symSize: 0x18 }
  - { offset: 0x1E1BEA, size: 0x8, addend: 0x0, symName: __ZNK5Eigen9DenseBaseINS_5BlockINS_6MatrixIdLin1ELin1ELi0ELin1ELin1EEELin1ELin1ELb0EEEE9innerSizeEv, symObjAddr: 0x118A0, symBinAddr: 0x100014C58, symSize: 0x24 }
  - { offset: 0x1E1C10, size: 0x8, addend: 0x0, symName: __ZNK5Eigen9DenseBaseINS_5BlockINS_6MatrixIdLin1ELin1ELi0ELin1ELin1EEELin1ELin1ELb0EEEE9outerSizeEv, symObjAddr: 0x118C4, symBinAddr: 0x100014C7C, symSize: 0x24 }
  - { offset: 0x1E1C36, size: 0x8, addend: 0x0, symName: __ZN5Eigen8internal31generic_dense_assignment_kernelINS0_9evaluatorINS_5BlockINS_6MatrixIdLin1ELin1ELi0ELin1ELin1EEELin1ELin1ELb0EEEEENS2_INS_14CwiseNullaryOpINS0_18scalar_constant_opIdEES5_EEEENS0_13mul_assign_opIddEELi0EE20rowIndexByOuterInnerEll, symObjAddr: 0x118E8, symBinAddr: 0x100014CA0, symSize: 0x18 }
  - { offset: 0x1E1C69, size: 0x8, addend: 0x0, symName: __ZN5Eigen8internal31generic_dense_assignment_kernelINS0_9evaluatorINS_5BlockINS_6MatrixIdLin1ELin1ELi0ELin1ELin1EEELin1ELin1ELb0EEEEENS2_INS_14CwiseNullaryOpINS0_18scalar_constant_opIdEES5_EEEENS0_13mul_assign_opIddEELi0EE20colIndexByOuterInnerEll, symObjAddr: 0x11900, symBinAddr: 0x100014CB8, symSize: 0x18 }
  - { offset: 0x1E1C9C, size: 0x8, addend: 0x0, symName: __ZN5Eigen8internal31generic_dense_assignment_kernelINS0_9evaluatorINS_5BlockINS_6MatrixIdLin1ELin1ELi0ELin1ELin1EEELin1ELin1ELb0EEEEENS2_INS_14CwiseNullaryOpINS0_18scalar_constant_opIdEES5_EEEENS0_13mul_assign_opIddEELi0EE11assignCoeffEll, symObjAddr: 0x11918, symBinAddr: 0x100014CD0, symSize: 0x70 }
  - { offset: 0x1E1CE0, size: 0x8, addend: 0x0, symName: __ZNK5Eigen8internal13mul_assign_opIddE11assignCoeffERdRKd, symObjAddr: 0x11988, symBinAddr: 0x100014D40, symSize: 0x30 }
  - { offset: 0x1E1D22, size: 0x8, addend: 0x0, symName: __ZN5Eigen8internal17mapbase_evaluatorINS_5BlockINS_6MatrixIdLin1ELin1ELi0ELin1ELin1EEELin1ELin1ELb0EEES4_E8coeffRefEll, symObjAddr: 0x119B8, symBinAddr: 0x100014D70, symSize: 0x78 }
  - { offset: 0x1E1D70, size: 0x8, addend: 0x0, symName: __ZNK5Eigen8internal9evaluatorINS_14CwiseNullaryOpINS0_18scalar_constant_opIdEENS_6MatrixIdLin1ELin1ELi0ELin1ELin1EEEEEE5coeffIlEEdT_SA_, symObjAddr: 0x11A30, symBinAddr: 0x100014DE8, symSize: 0x3C }
  - { offset: 0x1E1DBD, size: 0x8, addend: 0x0, symName: __ZNK5Eigen8internal17mapbase_evaluatorINS_5BlockINS_6MatrixIdLin1ELin1ELi0ELin1ELin1EEELin1ELin1ELb0EEES4_E9colStrideEv, symObjAddr: 0x11A6C, symBinAddr: 0x100014E24, symSize: 0x28 }
  - { offset: 0x1E1DE3, size: 0x8, addend: 0x0, symName: __ZNK5Eigen8internal17mapbase_evaluatorINS_5BlockINS_6MatrixIdLin1ELin1ELi0ELin1ELin1EEELin1ELin1ELb0EEES4_E9rowStrideEv, symObjAddr: 0x11A94, symBinAddr: 0x100014E4C, symSize: 0x20 }
  - { offset: 0x1E1E09, size: 0x8, addend: 0x0, symName: __ZN5Eigen8internal31generic_dense_assignment_kernelINS0_9evaluatorINS_5BlockINS_6MatrixIdLin1ELin1ELi0ELin1ELin1EEELin1ELin1ELb0EEEEENS2_INS_14CwiseNullaryOpINS0_18scalar_constant_opIdEES5_EEEENS0_13mul_assign_opIddEELi0EE12assignPacketILi16ELi0E19__simd128_float64_tEEvll, symObjAddr: 0x11AB4, symBinAddr: 0x100014E6C, symSize: 0x70 }
  - { offset: 0x1E1E6A, size: 0x8, addend: 0x0, symName: __ZNK5Eigen8internal13mul_assign_opIddE12assignPacketILi16E19__simd128_float64_tEEvPdRKT0_, symObjAddr: 0x11B24, symBinAddr: 0x100014EDC, symSize: 0x6C }
  - { offset: 0x1E1F01, size: 0x8, addend: 0x0, symName: __ZNK5Eigen8internal9evaluatorINS_14CwiseNullaryOpINS0_18scalar_constant_opIdEENS_6MatrixIdLin1ELin1ELi0ELin1ELin1EEEEEE6packetILi0E19__simd128_float64_tlEET0_T1_SC_, symObjAddr: 0x11B90, symBinAddr: 0x100014F48, symSize: 0x3C }
  - { offset: 0x1E1F6B, size: 0x8, addend: 0x0, symName: __ZNKSt3__16__lessIvvEclB8ue170006IllEEbRKT_RKT0_, symObjAddr: 0x11C4C, symBinAddr: 0x100015004, symSize: 0x34 }
  - { offset: 0x1E1FBF, size: 0x8, addend: 0x0, symName: __ZN5Eigen8internal9evaluatorINS_5BlockINS_6MatrixIdLin1ELin1ELi0ELin1ELin1EEELin1ELin1ELb0EEEED2Ev, symObjAddr: 0x11C80, symBinAddr: 0x100015038, symSize: 0x2C }
  - { offset: 0x1E1FEC, size: 0x8, addend: 0x0, symName: __ZN5Eigen8internal15block_evaluatorINS_6MatrixIdLin1ELin1ELi0ELin1ELin1EEELin1ELin1ELb0ELb1EED2Ev, symObjAddr: 0x11CAC, symBinAddr: 0x100015064, symSize: 0x2C }
  - { offset: 0x1E2019, size: 0x8, addend: 0x0, symName: __ZN5Eigen8internal9evaluatorINS_14CwiseNullaryOpINS0_18scalar_constant_opIdEENS_6MatrixIdLin1ELin1ELi0ELin1ELin1EEEEEED2Ev, symObjAddr: 0x11CD8, symBinAddr: 0x100015090, symSize: 0x2C }
  - { offset: 0x1E2045, size: 0x8, addend: 0x0, symName: __ZN5Eigen8internal13mul_assign_opIddEC2Ev, symObjAddr: 0x11D04, symBinAddr: 0x1000150BC, symSize: 0x14 }
  - { offset: 0x1E206F, size: 0x8, addend: 0x0, symName: __ZN5Eigen6StrideILi0ELi0EEC2Ev, symObjAddr: 0x11D18, symBinAddr: 0x1000150D0, symSize: 0x44 }
  - { offset: 0x1E2099, size: 0x8, addend: 0x0, symName: __ZN5Eigen3MapINS_6MatrixIdLi1ELin1ELi1ELi1ELin1EEELi0ENS_6StrideILi0ELi0EEEEC2EPdlRKS4_, symObjAddr: 0x11D5C, symBinAddr: 0x100015114, symSize: 0x60 }
  - { offset: 0x1E20ED, size: 0x8, addend: 0x0, symName: __ZN5Eigen3MapINS_6MatrixIdLi1ELin1ELi1ELi1ELin1EEELi0ENS_6StrideILi0ELi0EEEE20cast_to_pointer_typeEPd, symObjAddr: 0x11DBC, symBinAddr: 0x100015174, symSize: 0x18 }
  - { offset: 0x1E2121, size: 0x8, addend: 0x0, symName: __ZN5Eigen7MapBaseINS_3MapINS_6MatrixIdLi1ELin1ELi1ELi1ELin1EEELi0ENS_6StrideILi0ELi0EEEEELi1EEC2EPdl, symObjAddr: 0x11DD4, symBinAddr: 0x10001518C, symSize: 0x3C }
  - { offset: 0x1E2169, size: 0x8, addend: 0x0, symName: __ZN5Eigen6StrideILi0ELi0EEC1ERKS1_, symObjAddr: 0x11E10, symBinAddr: 0x1000151C8, symSize: 0x34 }
  - { offset: 0x1E21A1, size: 0x8, addend: 0x0, symName: __ZN5Eigen7MapBaseINS_3MapINS_6MatrixIdLi1ELin1ELi1ELi1ELin1EEELi0ENS_6StrideILi0ELi0EEEEELi0EEC2EPdl, symObjAddr: 0x11E44, symBinAddr: 0x1000151FC, symSize: 0x120 }
  - { offset: 0x1E21E7, size: 0x8, addend: 0x0, symName: __ZN5Eigen10MatrixBaseINS_3MapINS_6MatrixIdLi1ELin1ELi1ELi1ELin1EEELi0ENS_6StrideILi0ELi0EEEEEEC2Ev, symObjAddr: 0x11F64, symBinAddr: 0x10001531C, symSize: 0x2C }
  - { offset: 0x1E2211, size: 0x8, addend: 0x0, symName: __ZNK5Eigen7MapBaseINS_3MapINS_6MatrixIdLi1ELin1ELi1ELi1ELin1EEELi0ENS_6StrideILi0ELi0EEEEELi0EE11checkSanityIS6_EEvNS_8internal9enable_ifIXeqsr8internal6traitsIT_EE9AlignmentLi0EEPvE4typeE, symObjAddr: 0x11F90, symBinAddr: 0x100015348, symSize: 0x14 }
  - { offset: 0x1E224B, size: 0x8, addend: 0x0, symName: __ZN5Eigen9DenseBaseINS_3MapINS_6MatrixIdLi1ELin1ELi1ELi1ELin1EEELi0ENS_6StrideILi0ELi0EEEEEEC2Ev, symObjAddr: 0x11FA4, symBinAddr: 0x10001535C, symSize: 0x14 }
  - { offset: 0x1E2275, size: 0x8, addend: 0x0, symName: __ZN5Eigen6StrideILi0ELi0EEC2ERKS1_, symObjAddr: 0x11FB8, symBinAddr: 0x100015370, symSize: 0x58 }
  - { offset: 0x1E22AD, size: 0x8, addend: 0x0, symName: __ZNK5Eigen6StrideILi0ELi0EE5outerEv, symObjAddr: 0x12010, symBinAddr: 0x1000153C8, symSize: 0x20 }
  - { offset: 0x1E22D3, size: 0x8, addend: 0x0, symName: __ZNK5Eigen6StrideILi0ELi0EE5innerEv, symObjAddr: 0x12030, symBinAddr: 0x1000153E8, symSize: 0x20 }
  - { offset: 0x1E22F9, size: 0x8, addend: 0x0, symName: __ZN5Eigen8internal19variable_if_dynamicIlLi0EE5valueEv, symObjAddr: 0x12050, symBinAddr: 0x100015408, symSize: 0x8 }
  - { offset: 0x1E230D, size: 0x8, addend: 0x0, symName: __ZN5Eigen5BlockINS0_INS_6MatrixIdLin1ELin1ELi0ELin1ELin1EEELin1ELin1ELb0EEELin1ELin1ELb0EEC2ERS3_llll, symObjAddr: 0x12058, symBinAddr: 0x100015410, symSize: 0x154 }
  - { offset: 0x1E237D, size: 0x8, addend: 0x0, symName: __ZN5Eigen9BlockImplINS_5BlockINS_6MatrixIdLin1ELin1ELi0ELin1ELin1EEELin1ELin1ELb0EEELin1ELin1ELb0ENS_5DenseEEC2ERS4_llll, symObjAddr: 0x121AC, symBinAddr: 0x100015564, symSize: 0x54 }
  - { offset: 0x1E23ED, size: 0x8, addend: 0x0, symName: __ZN5Eigen8internal15BlockImpl_denseINS_5BlockINS_6MatrixIdLin1ELin1ELi0ELin1ELin1EEELin1ELin1ELb0EEELin1ELin1ELb0ELb1EEC2ERS5_llll, symObjAddr: 0x12200, symBinAddr: 0x1000155B8, symSize: 0xCC }
  - { offset: 0x1E2462, size: 0x8, addend: 0x0, symName: __ZN5Eigen7MapBaseINS_5BlockINS1_INS_6MatrixIdLin1ELin1ELi0ELin1ELin1EEELin1ELin1ELb0EEELin1ELin1ELb0EEELi1EEC2EPdll, symObjAddr: 0x122CC, symBinAddr: 0x100015684, symSize: 0x44 }
  - { offset: 0x1E24B9, size: 0x8, addend: 0x0, symName: __ZN5Eigen8internal15BlockImpl_denseINS_5BlockINS_6MatrixIdLin1ELin1ELi0ELin1ELin1EEELin1ELin1ELb0EEELin1ELin1ELb0ELb1EE4initEv, symObjAddr: 0x12310, symBinAddr: 0x1000156C8, symSize: 0x34 }
  - { offset: 0x1E24DF, size: 0x8, addend: 0x0, symName: __ZN5Eigen7MapBaseINS_5BlockINS1_INS_6MatrixIdLin1ELin1ELi0ELin1ELin1EEELin1ELin1ELb0EEELin1ELin1ELb0EEELi0EEC2EPdll, symObjAddr: 0x12344, symBinAddr: 0x1000156FC, symSize: 0x110 }
  - { offset: 0x1E2533, size: 0x8, addend: 0x0, symName: __ZN5Eigen10MatrixBaseINS_5BlockINS1_INS_6MatrixIdLin1ELin1ELi0ELin1ELin1EEELin1ELin1ELb0EEELin1ELin1ELb0EEEEC2Ev, symObjAddr: 0x12454, symBinAddr: 0x10001580C, symSize: 0x2C }
  - { offset: 0x1E255D, size: 0x8, addend: 0x0, symName: __ZNK5Eigen7MapBaseINS_5BlockINS1_INS_6MatrixIdLin1ELin1ELi0ELin1ELin1EEELin1ELin1ELb0EEELin1ELin1ELb0EEELi0EE11checkSanityIS5_EEvNS_8internal9enable_ifIXeqsr8internal6traitsIT_EE9AlignmentLi0EEPvE4typeE, symObjAddr: 0x12480, symBinAddr: 0x100015838, symSize: 0x14 }
  - { offset: 0x1E2597, size: 0x8, addend: 0x0, symName: __ZN5Eigen9DenseBaseINS_5BlockINS1_INS_6MatrixIdLin1ELin1ELi0ELin1ELin1EEELin1ELin1ELb0EEELin1ELin1ELb0EEEEC2Ev, symObjAddr: 0x12494, symBinAddr: 0x10001584C, symSize: 0x14 }
  - { offset: 0x1E25C1, size: 0x8, addend: 0x0, symName: __ZNK5Eigen9DenseBaseINS_5BlockINS1_INS_6MatrixIdLin1ELin1ELi0ELin1ELin1EEELin1ELi1ELb1EEELin1ELi1ELb0EEEE9transposeEv, symObjAddr: 0x124A8, symBinAddr: 0x100015860, symSize: 0x34 }
  - { offset: 0x1E25E9, size: 0x8, addend: 0x0, symName: __ZN5Eigen9TransposeIKNS_5BlockINS1_INS_6MatrixIdLin1ELin1ELi0ELin1ELin1EEELin1ELi1ELb1EEELin1ELi1ELb0EEEEC1ERS6_, symObjAddr: 0x124DC, symBinAddr: 0x100015894, symSize: 0x34 }
  - { offset: 0x1E2621, size: 0x8, addend: 0x0, symName: __ZN5Eigen9TransposeIKNS_5BlockINS1_INS_6MatrixIdLin1ELin1ELi0ELin1ELin1EEELin1ELi1ELb1EEELin1ELi1ELb0EEEEC2ERS6_, symObjAddr: 0x12510, symBinAddr: 0x1000158C8, symSize: 0x40 }
  - { offset: 0x1E2659, size: 0x8, addend: 0x0, symName: __ZN5Eigen13TransposeImplIKNS_5BlockINS1_INS_6MatrixIdLin1ELin1ELi0ELin1ELin1EEELin1ELi1ELb1EEELin1ELi1ELb0EEENS_5DenseEEC2Ev, symObjAddr: 0x12550, symBinAddr: 0x100015908, symSize: 0x2C }
  - { offset: 0x1E2683, size: 0x8, addend: 0x0, symName: __ZN5Eigen10MatrixBaseINS_9TransposeIKNS_5BlockINS2_INS_6MatrixIdLin1ELin1ELi0ELin1ELin1EEELin1ELi1ELb1EEELin1ELi1ELb0EEEEEEC2Ev, symObjAddr: 0x1257C, symBinAddr: 0x100015934, symSize: 0x2C }
  - { offset: 0x1E26AD, size: 0x8, addend: 0x0, symName: __ZN5Eigen9DenseBaseINS_9TransposeIKNS_5BlockINS2_INS_6MatrixIdLin1ELin1ELi0ELin1ELin1EEELin1ELi1ELb1EEELin1ELi1ELb0EEEEEEC2Ev, symObjAddr: 0x125A8, symBinAddr: 0x100015960, symSize: 0x14 }
  - { offset: 0x1E26D7, size: 0x8, addend: 0x0, symName: __ZNK5Eigen9EigenBaseINS_9TransposeIKNS_5BlockINS2_INS_6MatrixIdLin1ELin1ELi0ELin1ELin1EEELin1ELi1ELb1EEELin1ELi1ELb0EEEEEE7derivedEv, symObjAddr: 0x125BC, symBinAddr: 0x100015974, symSize: 0x14 }
  - { offset: 0x1E26FD, size: 0x8, addend: 0x0, symName: __ZNK5Eigen9EigenBaseINS_5BlockINS1_INS_6MatrixIdLin1ELin1ELi0ELin1ELin1EEELin1ELin1ELb0EEELin1ELin1ELb0EEEE7derivedEv, symObjAddr: 0x125D0, symBinAddr: 0x100015988, symSize: 0x14 }
  - { offset: 0x1E2723, size: 0x8, addend: 0x0, symName: __ZN5Eigen7ProductINS_9TransposeIKNS_5BlockINS2_INS_6MatrixIdLin1ELin1ELi0ELin1ELin1EEELin1ELi1ELb1EEELin1ELi1ELb0EEEEENS2_INS2_IS4_Lin1ELin1ELb0EEELin1ELin1ELb0EEELi0EEC1ERKS8_RKSA_, symObjAddr: 0x125E4, symBinAddr: 0x10001599C, symSize: 0x3C }
  - { offset: 0x1E2769, size: 0x8, addend: 0x0, symName: __ZN5Eigen7ProductINS_9TransposeIKNS_5BlockINS2_INS_6MatrixIdLin1ELin1ELi0ELin1ELin1EEELin1ELi1ELb1EEELin1ELi1ELb0EEEEENS2_INS2_IS4_Lin1ELin1ELb0EEELin1ELin1ELb0EEELi0EEC2ERKS8_RKSA_, symObjAddr: 0x12620, symBinAddr: 0x1000159D8, symSize: 0xD0 }
  - { offset: 0x1E27B4, size: 0x8, addend: 0x0, symName: __ZN5Eigen11ProductImplINS_9TransposeIKNS_5BlockINS2_INS_6MatrixIdLin1ELin1ELi0ELin1ELin1EEELin1ELi1ELb1EEELin1ELi1ELb0EEEEENS2_INS2_IS4_Lin1ELin1ELb0EEELin1ELin1ELb0EEELi0ENS_5DenseEEC2Ev, symObjAddr: 0x126F0, symBinAddr: 0x100015AA8, symSize: 0x2C }
  - { offset: 0x1E27E0, size: 0x8, addend: 0x0, symName: __ZNK5Eigen9TransposeIKNS_5BlockINS1_INS_6MatrixIdLin1ELin1ELi0ELin1ELin1EEELin1ELi1ELb1EEELin1ELi1ELb0EEEE4colsEv, symObjAddr: 0x1271C, symBinAddr: 0x100015AD4, symSize: 0x24 }
  - { offset: 0x1E2806, size: 0x8, addend: 0x0, symName: __ZNK5Eigen7MapBaseINS_5BlockINS1_INS_6MatrixIdLin1ELin1ELi0ELin1ELin1EEELin1ELin1ELb0EEELin1ELin1ELb0EEELi0EE4rowsEv, symObjAddr: 0x12740, symBinAddr: 0x100015AF8, symSize: 0x28 }
  - { offset: 0x1E2831, size: 0x8, addend: 0x0, symName: __ZN5Eigen8internal18dense_product_baseINS_9TransposeIKNS_5BlockINS3_INS_6MatrixIdLin1ELin1ELi0ELin1ELin1EEELin1ELi1ELb1EEELin1ELi1ELb0EEEEENS3_INS3_IS5_Lin1ELin1ELb0EEELin1ELin1ELb0EEELi0ELi7EEC2Ev, symObjAddr: 0x12768, symBinAddr: 0x100015B20, symSize: 0x2C }
  - { offset: 0x1E285D, size: 0x8, addend: 0x0, symName: __ZN5Eigen10MatrixBaseINS_7ProductINS_9TransposeIKNS_5BlockINS3_INS_6MatrixIdLin1ELin1ELi0ELin1ELin1EEELin1ELi1ELb1EEELin1ELi1ELb0EEEEENS3_INS3_IS5_Lin1ELin1ELb0EEELin1ELin1ELb0EEELi0EEEEC2Ev, symObjAddr: 0x12794, symBinAddr: 0x100015B4C, symSize: 0x2C }
  - { offset: 0x1E2887, size: 0x8, addend: 0x0, symName: __ZN5Eigen9DenseBaseINS_7ProductINS_9TransposeIKNS_5BlockINS3_INS_6MatrixIdLin1ELin1ELi0ELin1ELin1EEELin1ELi1ELb1EEELin1ELi1ELb0EEEEENS3_INS3_IS5_Lin1ELin1ELb0EEELin1ELin1ELb0EEELi0EEEEC2Ev, symObjAddr: 0x127C0, symBinAddr: 0x100015B78, symSize: 0x14 }
  - { offset: 0x1E28B1, size: 0x8, addend: 0x0, symName: __ZN5Eigen9EigenBaseINS_3MapINS_6MatrixIdLi1ELin1ELi1ELi1ELin1EEELi0ENS_6StrideILi0ELi0EEEEEE7derivedEv, symObjAddr: 0x127D4, symBinAddr: 0x100015B8C, symSize: 0x14 }
  - { offset: 0x1E28D7, size: 0x8, addend: 0x0, symName: __ZN5Eigen7NoAliasINS_3MapINS_6MatrixIdLi1ELin1ELi1ELi1ELin1EEELi0ENS_6StrideILi0ELi0EEEEENS_10MatrixBaseEEC1ERS6_, symObjAddr: 0x127E8, symBinAddr: 0x100015BA0, symSize: 0x34 }
  - { offset: 0x1E290F, size: 0x8, addend: 0x0, symName: __ZN5Eigen7NoAliasINS_3MapINS_6MatrixIdLi1ELin1ELi1ELi1ELin1EEELi0ENS_6StrideILi0ELi0EEEEENS_10MatrixBaseEEC2ERS6_, symObjAddr: 0x1281C, symBinAddr: 0x100015BD4, symSize: 0x20 }
  - { offset: 0x1E2947, size: 0x8, addend: 0x0, symName: __ZNK5Eigen9EigenBaseINS_7ProductINS_9TransposeIKNS_5BlockINS3_INS_6MatrixIdLin1ELin1ELi0ELin1ELin1EEELin1ELi1ELb1EEELin1ELi1ELb0EEEEENS3_INS3_IS5_Lin1ELin1ELb0EEELin1ELin1ELb0EEELi0EEEE7derivedEv, symObjAddr: 0x12878, symBinAddr: 0x100015C30, symSize: 0x14 }
  - { offset: 0x1E2977, size: 0x8, addend: 0x0, symName: __ZN5Eigen8internal10AssignmentINS_3MapINS_6MatrixIdLi1ELin1ELi1ELi1ELin1EEELi0ENS_6StrideILi0ELi0EEEEENS_7ProductINS_9TransposeIKNS_5BlockINSA_INS3_IdLin1ELin1ELi0ELin1ELin1EEELin1ELi1ELb1EEELin1ELi1ELb0EEEEENSA_INSA_ISB_Lin1ELin1ELb0EEELin1ELin1ELb0EEELi0EEENS0_9assign_opIddEENS0_11Dense2DenseEvE3runERS7_RKSI_RKSK_, symObjAddr: 0x1288C, symBinAddr: 0x100015C44, symSize: 0xB4 }
  - { offset: 0x1E29CF, size: 0x8, addend: 0x0, symName: __ZNK5Eigen7ProductINS_9TransposeIKNS_5BlockINS2_INS_6MatrixIdLin1ELin1ELi0ELin1ELin1EEELin1ELi1ELb1EEELin1ELi1ELb0EEEEENS2_INS2_IS4_Lin1ELin1ELb0EEELin1ELin1ELb0EEELi0EE4rowsEv, symObjAddr: 0x12940, symBinAddr: 0x100015CF8, symSize: 0x24 }
  - { offset: 0x1E29F5, size: 0x8, addend: 0x0, symName: __ZNK5Eigen7ProductINS_9TransposeIKNS_5BlockINS2_INS_6MatrixIdLin1ELin1ELi0ELin1ELin1EEELin1ELi1ELb1EEELin1ELi1ELb0EEEEENS2_INS2_IS4_Lin1ELin1ELb0EEELin1ELin1ELb0EEELi0EE4colsEv, symObjAddr: 0x12964, symBinAddr: 0x100015D1C, symSize: 0x28 }
  - { offset: 0x1E2A1B, size: 0x8, addend: 0x0, symName: __ZNK5Eigen7MapBaseINS_3MapINS_6MatrixIdLi1ELin1ELi1ELi1ELin1EEELi0ENS_6StrideILi0ELi0EEEEELi0EE4rowsEv, symObjAddr: 0x1298C, symBinAddr: 0x100015D44, symSize: 0x20 }
  - { offset: 0x1E2A41, size: 0x8, addend: 0x0, symName: __ZNK5Eigen7MapBaseINS_3MapINS_6MatrixIdLi1ELin1ELi1ELi1ELin1EEELi0ENS_6StrideILi0ELi0EEEEELi0EE4colsEv, symObjAddr: 0x129AC, symBinAddr: 0x100015D64, symSize: 0x28 }
  - { offset: 0x1E2A67, size: 0x8, addend: 0x0, symName: __ZN5Eigen9DenseBaseINS_3MapINS_6MatrixIdLi1ELin1ELi1ELi1ELin1EEELi0ENS_6StrideILi0ELi0EEEEEE6resizeEll, symObjAddr: 0x129D4, symBinAddr: 0x100015D8C, symSize: 0xBC }
  - { offset: 0x1E2AAB, size: 0x8, addend: 0x0, symName: __ZN5Eigen8internal25generic_product_impl_baseINS_9TransposeIKNS_5BlockINS3_INS_6MatrixIdLin1ELin1ELi0ELin1ELin1EEELin1ELi1ELb1EEELin1ELi1ELb0EEEEENS3_INS3_IS5_Lin1ELin1ELb0EEELin1ELin1ELb0EEENS0_20generic_product_implIS9_SB_NS_10DenseShapeESD_Li7EEEE6evalToINS_3MapINS4_IdLi1ELin1ELi1ELi1ELin1EEELi0ENS_6StrideILi0ELi0EEEEEEEvRT_RKS9_RKSB_, symObjAddr: 0x12A90, symBinAddr: 0x100015E48, symSize: 0x48 }
  - { offset: 0x1E2AF6, size: 0x8, addend: 0x0, symName: __ZNK5Eigen7ProductINS_9TransposeIKNS_5BlockINS2_INS_6MatrixIdLin1ELin1ELi0ELin1ELin1EEELin1ELi1ELb1EEELin1ELi1ELb0EEEEENS2_INS2_IS4_Lin1ELin1ELb0EEELin1ELin1ELb0EEELi0EE3lhsEv, symObjAddr: 0x12AD8, symBinAddr: 0x100015E90, symSize: 0x14 }
  - { offset: 0x1E2B1C, size: 0x8, addend: 0x0, symName: __ZNK5Eigen7ProductINS_9TransposeIKNS_5BlockINS2_INS_6MatrixIdLin1ELin1ELi0ELin1ELin1EEELin1ELi1ELb1EEELin1ELi1ELb0EEEEENS2_INS2_IS4_Lin1ELin1ELb0EEELin1ELin1ELb0EEELi0EE3rhsEv, symObjAddr: 0x12AEC, symBinAddr: 0x100015EA4, symSize: 0x18 }
  - { offset: 0x1E2B42, size: 0x8, addend: 0x0, symName: __ZNK5Eigen9TransposeIKNS_5BlockINS1_INS_6MatrixIdLin1ELin1ELi0ELin1ELin1EEELin1ELi1ELb1EEELin1ELi1ELb0EEEE4rowsEv, symObjAddr: 0x12B04, symBinAddr: 0x100015EBC, symSize: 0x24 }
  - { offset: 0x1E2B68, size: 0x8, addend: 0x0, symName: __ZNK5Eigen7MapBaseINS_5BlockINS1_INS_6MatrixIdLin1ELin1ELi0ELin1ELin1EEELin1ELin1ELb0EEELin1ELin1ELb0EEELi0EE4colsEv, symObjAddr: 0x12B28, symBinAddr: 0x100015EE0, symSize: 0x28 }
  - { offset: 0x1E2B8E, size: 0x8, addend: 0x0, symName: __ZNK5Eigen9EigenBaseINS_3MapINS_6MatrixIdLi1ELin1ELi1ELi1ELin1EEELi0ENS_6StrideILi0ELi0EEEEEE4rowsEv, symObjAddr: 0x12B50, symBinAddr: 0x100015F08, symSize: 0x38 }
  - { offset: 0x1E2BB4, size: 0x8, addend: 0x0, symName: __ZNK5Eigen9EigenBaseINS_3MapINS_6MatrixIdLi1ELin1ELi1ELi1ELin1EEELi0ENS_6StrideILi0ELi0EEEEEE4colsEv, symObjAddr: 0x12B88, symBinAddr: 0x100015F40, symSize: 0x28 }
  - { offset: 0x1E2BDA, size: 0x8, addend: 0x0, symName: __ZNK5Eigen9EigenBaseINS_3MapINS_6MatrixIdLi1ELin1ELi1ELi1ELin1EEELi0ENS_6StrideILi0ELi0EEEEEE7derivedEv, symObjAddr: 0x12BB0, symBinAddr: 0x100015F68, symSize: 0x14 }
  - { offset: 0x1E2C00, size: 0x8, addend: 0x0, symName: __ZN5Eigen9DenseBaseINS_3MapINS_6MatrixIdLi1ELin1ELi1ELi1ELin1EEELi0ENS_6StrideILi0ELi0EEEEEE7setZeroEv, symObjAddr: 0x12BC4, symBinAddr: 0x100015F7C, symSize: 0x30 }
  - { offset: 0x1E2C33, size: 0x8, addend: 0x0, symName: __ZN5Eigen8internal25generic_product_impl_baseINS_9TransposeIKNS_5BlockINS3_INS_6MatrixIdLin1ELin1ELi0ELin1ELin1EEELin1ELi1ELb1EEELin1ELi1ELb0EEEEENS3_INS3_IS5_Lin1ELin1ELb0EEELin1ELin1ELb0EEENS0_20generic_product_implIS9_SB_NS_10DenseShapeESD_Li7EEEE13scaleAndAddToINS_3MapINS4_IdLi1ELin1ELi1ELi1ELin1EEELi0ENS_6StrideILi0ELi0EEEEEEEvRT_RKS9_RKSB_RKd, symObjAddr: 0x12BF4, symBinAddr: 0x100015FAC, symSize: 0x3C }
  - { offset: 0x1E2C8D, size: 0x8, addend: 0x0, symName: __ZN5Eigen9DenseBaseINS_3MapINS_6MatrixIdLi1ELin1ELi1ELi1ELin1EEELi0ENS_6StrideILi0ELi0EEEEEE11setConstantERKd, symObjAddr: 0x12C30, symBinAddr: 0x100015FE8, symSize: 0x64 }
  - { offset: 0x1E2CC5, size: 0x8, addend: 0x0, symName: __ZN5Eigen9DenseBaseINS_3MapINS_6MatrixIdLi1ELin1ELi1ELi1ELin1EEELi0ENS_6StrideILi0ELi0EEEEEE8ConstantEllRKd, symObjAddr: 0x12C94, symBinAddr: 0x10001604C, symSize: 0x60 }
  - { offset: 0x1E2D09, size: 0x8, addend: 0x0, symName: __ZN5Eigen3MapINS_6MatrixIdLi1ELin1ELi1ELi1ELin1EEELi0ENS_6StrideILi0ELi0EEEEaSINS_14CwiseNullaryOpINS_8internal18scalar_constant_opIdEES2_EEEERS5_RKNS_9DenseBaseIT_EE, symObjAddr: 0x12CF4, symBinAddr: 0x1000160AC, symSize: 0x40 }
  - { offset: 0x1E2D46, size: 0x8, addend: 0x0, symName: __ZN5Eigen9DenseBaseINS_3MapINS_6MatrixIdLi1ELin1ELi1ELi1ELin1EEELi0ENS_6StrideILi0ELi0EEEEEE11NullaryExprINS_8internal18scalar_constant_opIdEEEEKNS_14CwiseNullaryOpIT_S3_EEllRKSD_, symObjAddr: 0x12D34, symBinAddr: 0x1000160EC, symSize: 0x48 }
  - { offset: 0x1E2D93, size: 0x8, addend: 0x0, symName: __ZN5Eigen14CwiseNullaryOpINS_8internal18scalar_constant_opIdEENS_6MatrixIdLi1ELin1ELi1ELi1ELin1EEEEC1EllRKS3_, symObjAddr: 0x12D7C, symBinAddr: 0x100016134, symSize: 0x44 }
  - { offset: 0x1E2DE7, size: 0x8, addend: 0x0, symName: __ZN5Eigen14CwiseNullaryOpINS_8internal18scalar_constant_opIdEENS_6MatrixIdLi1ELin1ELi1ELi1ELin1EEEEC2EllRKS3_, symObjAddr: 0x12DC0, symBinAddr: 0x100016178, symSize: 0xFC }
  - { offset: 0x1E2E3B, size: 0x8, addend: 0x0, symName: __ZN5Eigen10MatrixBaseINS_14CwiseNullaryOpINS_8internal18scalar_constant_opIdEENS_6MatrixIdLi1ELin1ELi1ELi1ELin1EEEEEEC2Ev, symObjAddr: 0x12EBC, symBinAddr: 0x100016274, symSize: 0x2C }
  - { offset: 0x1E2E65, size: 0x8, addend: 0x0, symName: __ZN5Eigen9DenseBaseINS_14CwiseNullaryOpINS_8internal18scalar_constant_opIdEENS_6MatrixIdLi1ELin1ELi1ELi1ELin1EEEEEEC2Ev, symObjAddr: 0x12EE8, symBinAddr: 0x1000162A0, symSize: 0x14 }
  - { offset: 0x1E2E8F, size: 0x8, addend: 0x0, symName: __ZN5Eigen10MatrixBaseINS_3MapINS_6MatrixIdLi1ELin1ELi1ELi1ELin1EEELi0ENS_6StrideILi0ELi0EEEEEEaSINS_14CwiseNullaryOpINS_8internal18scalar_constant_opIdEES3_EEEERS6_RKNS_9DenseBaseIT_EE, symObjAddr: 0x12EFC, symBinAddr: 0x1000162B4, symSize: 0x4C }
  - { offset: 0x1E2ECE, size: 0x8, addend: 0x0, symName: __ZNK5Eigen9EigenBaseINS_14CwiseNullaryOpINS_8internal18scalar_constant_opIdEENS_6MatrixIdLi1ELin1ELi1ELi1ELin1EEEEEE7derivedEv, symObjAddr: 0x12F48, symBinAddr: 0x100016300, symSize: 0x14 }
  - { offset: 0x1E2EF4, size: 0x8, addend: 0x0, symName: __ZN5Eigen8internal10AssignmentINS_3MapINS_6MatrixIdLi1ELin1ELi1ELi1ELin1EEELi0ENS_6StrideILi0ELi0EEEEENS_14CwiseNullaryOpINS0_18scalar_constant_opIdEES4_EENS0_9assign_opIddEENS0_11Dense2DenseEvE3runERS7_RKSB_RKSD_, symObjAddr: 0x13020, symBinAddr: 0x1000163D8, symSize: 0x40 }
  - { offset: 0x1E2F36, size: 0x8, addend: 0x0, symName: __ZN5Eigen8internal9evaluatorINS_14CwiseNullaryOpINS0_18scalar_constant_opIdEENS_6MatrixIdLi1ELin1ELi1ELi1ELin1EEEEEEC1ERKS7_, symObjAddr: 0x13154, symBinAddr: 0x10001650C, symSize: 0x34 }
  - { offset: 0x1E2F6F, size: 0x8, addend: 0x0, symName: __ZN5Eigen8internal9evaluatorINS_3MapINS_6MatrixIdLi1ELin1ELi1ELi1ELin1EEELi0ENS_6StrideILi0ELi0EEEEEEC1ERKS7_, symObjAddr: 0x13280, symBinAddr: 0x100016638, symSize: 0x34 }
  - { offset: 0x1E2FA8, size: 0x8, addend: 0x0, symName: __ZNK5Eigen9EigenBaseINS_3MapINS_6MatrixIdLi1ELin1ELi1ELi1ELin1EEELi0ENS_6StrideILi0ELi0EEEEEE18const_cast_derivedEv, symObjAddr: 0x132B4, symBinAddr: 0x10001666C, symSize: 0x14 }
  - { offset: 0x1E2FCE, size: 0x8, addend: 0x0, symName: __ZN5Eigen8internal31generic_dense_assignment_kernelINS0_9evaluatorINS_3MapINS_6MatrixIdLi1ELin1ELi1ELi1ELin1EEELi0ENS_6StrideILi0ELi0EEEEEEENS2_INS_14CwiseNullaryOpINS0_18scalar_constant_opIdEES5_EEEENS0_9assign_opIddEELi0EEC1ERS9_RKSE_RKSG_RS8_, symObjAddr: 0x132C8, symBinAddr: 0x100016680, symSize: 0x4C }
  - { offset: 0x1E3034, size: 0x8, addend: 0x0, symName: __ZN5Eigen8internal9evaluatorINS_3MapINS_6MatrixIdLi1ELin1ELi1ELi1ELin1EEELi0ENS_6StrideILi0ELi0EEEEEED1Ev, symObjAddr: 0x133D4, symBinAddr: 0x10001678C, symSize: 0x2C }
  - { offset: 0x1E3061, size: 0x8, addend: 0x0, symName: __ZN5Eigen8internal9evaluatorINS_14CwiseNullaryOpINS0_18scalar_constant_opIdEENS_6MatrixIdLi1ELin1ELi1ELi1ELin1EEEEEED1Ev, symObjAddr: 0x13400, symBinAddr: 0x1000167B8, symSize: 0x2C }
  - { offset: 0x1E308D, size: 0x8, addend: 0x0, symName: __ZN5Eigen8internal9evaluatorINS_14CwiseNullaryOpINS0_18scalar_constant_opIdEENS_6MatrixIdLi1ELin1ELi1ELi1ELin1EEEEEEC2ERKS7_, symObjAddr: 0x1342C, symBinAddr: 0x1000167E4, symSize: 0x74 }
  - { offset: 0x1E30C6, size: 0x8, addend: 0x0, symName: __ZN5Eigen8internal14evaluator_baseINS_14CwiseNullaryOpINS0_18scalar_constant_opIdEENS_6MatrixIdLi1ELin1ELi1ELi1ELin1EEEEEEC2Ev, symObjAddr: 0x134A0, symBinAddr: 0x100016858, symSize: 0x14 }
  - { offset: 0x1E30F0, size: 0x8, addend: 0x0, symName: __ZNK5Eigen14CwiseNullaryOpINS_8internal18scalar_constant_opIdEENS_6MatrixIdLi1ELin1ELi1ELi1ELin1EEEE7functorEv, symObjAddr: 0x134B4, symBinAddr: 0x10001686C, symSize: 0x18 }
  - { offset: 0x1E3116, size: 0x8, addend: 0x0, symName: __ZN5Eigen8internal14evaluator_baseINS_14CwiseNullaryOpINS0_18scalar_constant_opIdEENS_6MatrixIdLi1ELin1ELi1ELi1ELin1EEEEEED2Ev, symObjAddr: 0x134CC, symBinAddr: 0x100016884, symSize: 0x14 }
  - { offset: 0x1E3140, size: 0x8, addend: 0x0, symName: __ZNK5Eigen14CwiseNullaryOpINS_8internal18scalar_constant_opIdEENS_6MatrixIdLi1ELin1ELi1ELi1ELin1EEEE4rowsEv, symObjAddr: 0x134E0, symBinAddr: 0x100016898, symSize: 0x20 }
  - { offset: 0x1E3166, size: 0x8, addend: 0x0, symName: __ZNK5Eigen14CwiseNullaryOpINS_8internal18scalar_constant_opIdEENS_6MatrixIdLi1ELin1ELi1ELi1ELin1EEEE4colsEv, symObjAddr: 0x13500, symBinAddr: 0x1000168B8, symSize: 0x28 }
  - { offset: 0x1E318C, size: 0x8, addend: 0x0, symName: __ZN5Eigen8internal9evaluatorINS_3MapINS_6MatrixIdLi1ELin1ELi1ELi1ELin1EEELi0ENS_6StrideILi0ELi0EEEEEEC2ERKS7_, symObjAddr: 0x13528, symBinAddr: 0x1000168E0, symSize: 0x34 }
  - { offset: 0x1E31C5, size: 0x8, addend: 0x0, symName: __ZN5Eigen8internal17mapbase_evaluatorINS_3MapINS_6MatrixIdLi1ELin1ELi1ELi1ELin1EEELi0ENS_6StrideILi0ELi0EEEEES4_EC2ERKS7_, symObjAddr: 0x1355C, symBinAddr: 0x100016914, symSize: 0xC0 }
  - { offset: 0x1E31FE, size: 0x8, addend: 0x0, symName: __ZN5Eigen8internal14evaluator_baseINS_3MapINS_6MatrixIdLi1ELin1ELi1ELi1ELin1EEELi0ENS_6StrideILi0ELi0EEEEEEC2Ev, symObjAddr: 0x1361C, symBinAddr: 0x1000169D4, symSize: 0x14 }
  - { offset: 0x1E3228, size: 0x8, addend: 0x0, symName: __ZNK5Eigen7MapBaseINS_3MapINS_6MatrixIdLi1ELin1ELi1ELi1ELin1EEELi0ENS_6StrideILi0ELi0EEEEELi1EE4dataEv, symObjAddr: 0x13630, symBinAddr: 0x1000169E8, symSize: 0x18 }
  - { offset: 0x1E324E, size: 0x8, addend: 0x0, symName: __ZNK5Eigen3MapINS_6MatrixIdLi1ELin1ELi1ELi1ELin1EEELi0ENS_6StrideILi0ELi0EEEE11innerStrideEv, symObjAddr: 0x13648, symBinAddr: 0x100016A00, symSize: 0x14 }
  - { offset: 0x1E3274, size: 0x8, addend: 0x0, symName: __ZNK5Eigen3MapINS_6MatrixIdLi1ELin1ELi1ELi1ELin1EEELi0ENS_6StrideILi0ELi0EEEE11outerStrideEv, symObjAddr: 0x1365C, symBinAddr: 0x100016A14, symSize: 0x44 }
  - { offset: 0x1E329A, size: 0x8, addend: 0x0, symName: __ZN5Eigen8internal14evaluator_baseINS_3MapINS_6MatrixIdLi1ELin1ELi1ELi1ELin1EEELi0ENS_6StrideILi0ELi0EEEEEED2Ev, symObjAddr: 0x136A0, symBinAddr: 0x100016A58, symSize: 0x14 }
  - { offset: 0x1E32C4, size: 0x8, addend: 0x0, symName: __ZNK5Eigen9EigenBaseINS_3MapINS_6MatrixIdLi1ELin1ELi1ELi1ELin1EEELi0ENS_6StrideILi0ELi0EEEEEE4sizeEv, symObjAddr: 0x136B4, symBinAddr: 0x100016A6C, symSize: 0x44 }
  - { offset: 0x1E32EA, size: 0x8, addend: 0x0, symName: __ZN5Eigen8internal31generic_dense_assignment_kernelINS0_9evaluatorINS_3MapINS_6MatrixIdLi1ELin1ELi1ELi1ELin1EEELi0ENS_6StrideILi0ELi0EEEEEEENS2_INS_14CwiseNullaryOpINS0_18scalar_constant_opIdEES5_EEEENS0_9assign_opIddEELi0EEC2ERS9_RKSE_RKSG_RS8_, symObjAddr: 0x136F8, symBinAddr: 0x100016AB0, symSize: 0x44 }
  - { offset: 0x1E3350, size: 0x8, addend: 0x0, symName: __ZNK5Eigen8internal31generic_dense_assignment_kernelINS0_9evaluatorINS_3MapINS_6MatrixIdLi1ELin1ELi1ELi1ELin1EEELi0ENS_6StrideILi0ELi0EEEEEEENS2_INS_14CwiseNullaryOpINS0_18scalar_constant_opIdEES5_EEEENS0_9assign_opIddEELi0EE4sizeEv, symObjAddr: 0x1373C, symBinAddr: 0x100016AF4, symSize: 0x28 }
  - { offset: 0x1E3376, size: 0x8, addend: 0x0, symName: __ZNK5Eigen8internal31generic_dense_assignment_kernelINS0_9evaluatorINS_3MapINS_6MatrixIdLi1ELin1ELi1ELi1ELin1EEELi0ENS_6StrideILi0ELi0EEEEEEENS2_INS_14CwiseNullaryOpINS0_18scalar_constant_opIdEES5_EEEENS0_9assign_opIddEELi0EE10dstDataPtrEv, symObjAddr: 0x13764, symBinAddr: 0x100016B1C, symSize: 0x28 }
  - { offset: 0x1E339C, size: 0x8, addend: 0x0, symName: __ZN5Eigen8internal31unaligned_dense_assignment_loopILb0EE3runINS0_31generic_dense_assignment_kernelINS0_9evaluatorINS_3MapINS_6MatrixIdLi1ELin1ELi1ELi1ELin1EEELi0ENS_6StrideILi0ELi0EEEEEEENS5_INS_14CwiseNullaryOpINS0_18scalar_constant_opIdEES8_EEEENS0_9assign_opIddEELi0EEEEEvRT_ll, symObjAddr: 0x1378C, symBinAddr: 0x100016B44, symSize: 0x68 }
  - { offset: 0x1E3404, size: 0x8, addend: 0x0, symName: __ZN5Eigen8internal31generic_dense_assignment_kernelINS0_9evaluatorINS_3MapINS_6MatrixIdLi1ELin1ELi1ELi1ELin1EEELi0ENS_6StrideILi0ELi0EEEEEEENS2_INS_14CwiseNullaryOpINS0_18scalar_constant_opIdEES5_EEEENS0_9assign_opIddEELi0EE12assignPacketILi16ELi0E19__simd128_float64_tEEvl, symObjAddr: 0x137F4, symBinAddr: 0x100016BAC, symSize: 0x64 }
  - { offset: 0x1E3456, size: 0x8, addend: 0x0, symName: __ZN5Eigen7MapBaseINS_3MapINS_6MatrixIdLi1ELin1ELi1ELi1ELin1EEELi0ENS_6StrideILi0ELi0EEEEELi1EE4dataEv, symObjAddr: 0x13858, symBinAddr: 0x100016C10, symSize: 0x18 }
  - { offset: 0x1E347C, size: 0x8, addend: 0x0, symName: __ZN5Eigen8internal31generic_dense_assignment_kernelINS0_9evaluatorINS_3MapINS_6MatrixIdLi1ELin1ELi1ELi1ELin1EEELi0ENS_6StrideILi0ELi0EEEEEEENS2_INS_14CwiseNullaryOpINS0_18scalar_constant_opIdEES5_EEEENS0_9assign_opIddEELi0EE11assignCoeffEl, symObjAddr: 0x13870, symBinAddr: 0x100016C28, symSize: 0x64 }
  - { offset: 0x1E34B1, size: 0x8, addend: 0x0, symName: __ZN5Eigen8internal17mapbase_evaluatorINS_3MapINS_6MatrixIdLi1ELin1ELi1ELi1ELin1EEELi0ENS_6StrideILi0ELi0EEEEES4_E8coeffRefEl, symObjAddr: 0x138D4, symBinAddr: 0x100016C8C, symSize: 0x48 }
  - { offset: 0x1E34F0, size: 0x8, addend: 0x0, symName: __ZNK5Eigen8internal9evaluatorINS_14CwiseNullaryOpINS0_18scalar_constant_opIdEENS_6MatrixIdLi1ELin1ELi1ELi1ELin1EEEEEE5coeffIlEEdT_, symObjAddr: 0x1391C, symBinAddr: 0x100016CD4, symSize: 0x38 }
  - { offset: 0x1E352E, size: 0x8, addend: 0x0, symName: __ZNK5Eigen8internal9evaluatorINS_14CwiseNullaryOpINS0_18scalar_constant_opIdEENS_6MatrixIdLi1ELin1ELi1ELi1ELin1EEEEEE6packetILi0E19__simd128_float64_tlEET0_T1_, symObjAddr: 0x13954, symBinAddr: 0x100016D0C, symSize: 0x38 }
  - { offset: 0x1E357F, size: 0x8, addend: 0x0, symName: __ZN5Eigen8internal9evaluatorINS_3MapINS_6MatrixIdLi1ELin1ELi1ELi1ELin1EEELi0ENS_6StrideILi0ELi0EEEEEED2Ev, symObjAddr: 0x1398C, symBinAddr: 0x100016D44, symSize: 0x2C }
  - { offset: 0x1E35AC, size: 0x8, addend: 0x0, symName: __ZN5Eigen8internal17mapbase_evaluatorINS_3MapINS_6MatrixIdLi1ELin1ELi1ELi1ELin1EEELi0ENS_6StrideILi0ELi0EEEEES4_ED2Ev, symObjAddr: 0x139B8, symBinAddr: 0x100016D70, symSize: 0x2C }
  - { offset: 0x1E35D9, size: 0x8, addend: 0x0, symName: __ZN5Eigen8internal9evaluatorINS_14CwiseNullaryOpINS0_18scalar_constant_opIdEENS_6MatrixIdLi1ELin1ELi1ELi1ELin1EEEEEED2Ev, symObjAddr: 0x139E4, symBinAddr: 0x100016D9C, symSize: 0x2C }
  - { offset: 0x1E360F, size: 0x8, addend: 0x0, symName: __ZN5Eigen8internal20generic_product_implINS_9TransposeIKNS_5BlockINS3_INS_6MatrixIdLin1ELin1ELi0ELin1ELin1EEELin1ELi1ELb1EEELin1ELi1ELb0EEEEENS3_INS3_IS5_Lin1ELin1ELb0EEELin1ELin1ELb0EEENS_10DenseShapeESC_Li7EE13scaleAndAddToINS_3MapINS4_IdLi1ELin1ELi1ELi1ELin1EEELi0ENS_6StrideILi0ELi0EEEEEEEvRT_RKS9_RKSB_RKd, symObjAddr: 0x13A10, symBinAddr: 0x100016DC8, symSize: 0x120 }
  - { offset: 0x1E3689, size: 0x8, addend: 0x0, symName: __ZNK5Eigen9DenseBaseINS_9TransposeIKNS_5BlockINS2_INS_6MatrixIdLin1ELin1ELi0ELin1ELin1EEELin1ELi1ELb1EEELin1ELi1ELb0EEEEEE3rowEl, symObjAddr: 0x13B30, symBinAddr: 0x100016EE8, symSize: 0x3C }
  - { offset: 0x1E36BE, size: 0x8, addend: 0x0, symName: __ZNK5Eigen9DenseBaseINS_5BlockIKNS_9TransposeIKNS1_INS1_INS_6MatrixIdLin1ELin1ELi0ELin1ELin1EEELin1ELi1ELb1EEELin1ELi1ELb0EEEEELi1ELin1ELb1EEEE9conjugateEv, symObjAddr: 0x13B6C, symBinAddr: 0x100016F24, symSize: 0x24 }
  - { offset: 0x1E36E4, size: 0x8, addend: 0x0, symName: __ZNK5Eigen10MatrixBaseINS_5BlockIKNS_9TransposeIKNS1_INS1_INS_6MatrixIdLin1ELin1ELi0ELin1ELin1EEELin1ELi1ELb1EEELin1ELi1ELb0EEEEELi1ELin1ELb1EEEE3dotINS1_IKNS1_INS1_IS4_Lin1ELin1ELb0EEELin1ELin1ELb0EEELin1ELi1ELb1EEEEENS_20ScalarBinaryOpTraitsIdNS_8internal6traitsIT_E6ScalarENSI_17scalar_product_opIdSM_EEE10ReturnTypeERKNS0_ISK_EE, symObjAddr: 0x13B90, symBinAddr: 0x100016F48, symSize: 0x80 }
  - { offset: 0x1E3723, size: 0x8, addend: 0x0, symName: __ZNK5Eigen9DenseBaseINS_5BlockINS1_INS_6MatrixIdLin1ELin1ELi0ELin1ELin1EEELin1ELin1ELb0EEELin1ELin1ELb0EEEE3colEl, symObjAddr: 0x13C10, symBinAddr: 0x100016FC8, symSize: 0x3C }
  - { offset: 0x1E3758, size: 0x8, addend: 0x0, symName: __ZN5Eigen7MapBaseINS_3MapINS_6MatrixIdLi1ELin1ELi1ELi1ELin1EEELi0ENS_6StrideILi0ELi0EEEEELi1EE8coeffRefEll, symObjAddr: 0x13C4C, symBinAddr: 0x100017004, symSize: 0x78 }
  - { offset: 0x1E37A6, size: 0x8, addend: 0x0, symName: __ZN5Eigen8internal19gemv_dense_selectorILi1ELi0ELb1EE3runINS_9TransposeIKNS_5BlockINS5_INS_6MatrixIdLin1ELin1ELi0ELin1ELin1EEELin1ELi1ELb1EEELin1ELi1ELb0EEEEENS5_INS5_IS7_Lin1ELin1ELb0EEELin1ELin1ELb0EEENS_3MapINS6_IdLi1ELin1ELi1ELi1ELin1EEELi0ENS_6StrideILi0ELi0EEEEEEEvRKT_RKT0_RT1_RKNSP_6ScalarE, symObjAddr: 0x13CC4, symBinAddr: 0x10001707C, symSize: 0x74 }
  - { offset: 0x1E381D, size: 0x8, addend: 0x0, symName: __ZN5Eigen5BlockIKNS_9TransposeIKNS0_INS0_INS_6MatrixIdLin1ELin1ELi0ELin1ELin1EEELin1ELi1ELb1EEELin1ELi1ELb0EEEEELi1ELin1ELb1EEC1ERS8_l, symObjAddr: 0x13D38, symBinAddr: 0x1000170F0, symSize: 0x3C }
  - { offset: 0x1E3863, size: 0x8, addend: 0x0, symName: __ZN5Eigen5BlockIKNS_9TransposeIKNS0_INS0_INS_6MatrixIdLin1ELin1ELi0ELin1ELin1EEELin1ELi1ELb1EEELin1ELi1ELb0EEEEELi1ELin1ELb1EEC2ERS8_l, symObjAddr: 0x13D74, symBinAddr: 0x10001712C, symSize: 0xCC }
  - { offset: 0x1E38A9, size: 0x8, addend: 0x0, symName: __ZN5Eigen9BlockImplIKNS_9TransposeIKNS_5BlockINS2_INS_6MatrixIdLin1ELin1ELi0ELin1ELin1EEELin1ELi1ELb1EEELin1ELi1ELb0EEEEELi1ELin1ELb1ENS_5DenseEEC2ERS9_l, symObjAddr: 0x13E40, symBinAddr: 0x1000171F8, symSize: 0x3C }
  - { offset: 0x1E38EF, size: 0x8, addend: 0x0, symName: __ZN5Eigen8internal15BlockImpl_denseIKNS_9TransposeIKNS_5BlockINS3_INS_6MatrixIdLin1ELin1ELi0ELin1ELin1EEELin1ELi1ELb1EEELin1ELi1ELb0EEEEELi1ELin1ELb1ELb1EEC2ERSA_l, symObjAddr: 0x13E7C, symBinAddr: 0x100017234, symSize: 0xB8 }
  - { offset: 0x1E3937, size: 0x8, addend: 0x0, symName: __ZNK5Eigen13TransposeImplIKNS_5BlockINS1_INS_6MatrixIdLin1ELin1ELi0ELin1ELin1EEELin1ELi1ELb1EEELin1ELi1ELb0EEENS_5DenseEE4dataEv, symObjAddr: 0x13F34, symBinAddr: 0x1000172EC, symSize: 0x2C }
  - { offset: 0x1E395D, size: 0x8, addend: 0x0, symName: __ZNK5Eigen13TransposeImplIKNS_5BlockINS1_INS_6MatrixIdLin1ELin1ELi0ELin1ELin1EEELin1ELi1ELb1EEELin1ELi1ELb0EEENS_5DenseEE11outerStrideEv, symObjAddr: 0x13F60, symBinAddr: 0x100017318, symSize: 0x2C }
  - { offset: 0x1E3983, size: 0x8, addend: 0x0, symName: __ZN5Eigen7MapBaseINS_5BlockIKNS_9TransposeIKNS1_INS1_INS_6MatrixIdLin1ELin1ELi0ELin1ELin1EEELin1ELi1ELb1EEELin1ELi1ELb0EEEEELi1ELin1ELb1EEELi0EEC2EPKdll, symObjAddr: 0x13F8C, symBinAddr: 0x100017344, symSize: 0x130 }
  - { offset: 0x1E39D7, size: 0x8, addend: 0x0, symName: __ZN5Eigen8internal15BlockImpl_denseIKNS_9TransposeIKNS_5BlockINS3_INS_6MatrixIdLin1ELin1ELi0ELin1ELin1EEELin1ELi1ELb1EEELin1ELi1ELb0EEEEELi1ELin1ELb1ELb1EE4initEv, symObjAddr: 0x140BC, symBinAddr: 0x100017474, symSize: 0x34 }
  - { offset: 0x1E39FD, size: 0x8, addend: 0x0, symName: __ZNK5Eigen9TransposeIKNS_5BlockINS1_INS_6MatrixIdLin1ELin1ELi0ELin1ELin1EEELin1ELi1ELb1EEELin1ELi1ELb0EEEE16nestedExpressionEv, symObjAddr: 0x140F0, symBinAddr: 0x1000174A8, symSize: 0x14 }
  - { offset: 0x1E3A23, size: 0x8, addend: 0x0, symName: __ZN5Eigen10MatrixBaseINS_5BlockIKNS_9TransposeIKNS1_INS1_INS_6MatrixIdLin1ELin1ELi0ELin1ELin1EEELin1ELi1ELb1EEELin1ELi1ELb0EEEEELi1ELin1ELb1EEEEC2Ev, symObjAddr: 0x14104, symBinAddr: 0x1000174BC, symSize: 0x2C }
  - { offset: 0x1E3A4D, size: 0x8, addend: 0x0, symName: __ZNK5Eigen7MapBaseINS_5BlockIKNS_9TransposeIKNS1_INS1_INS_6MatrixIdLin1ELin1ELi0ELin1ELin1EEELin1ELi1ELb1EEELin1ELi1ELb0EEEEELi1ELin1ELb1EEELi0EE11checkSanityISA_EEvNS_8internal9enable_ifIXeqsr8internal6traitsIT_EE9AlignmentLi0EEPvE4typeE, symObjAddr: 0x14130, symBinAddr: 0x1000174E8, symSize: 0x14 }
  - { offset: 0x1E3A87, size: 0x8, addend: 0x0, symName: __ZN5Eigen9DenseBaseINS_5BlockIKNS_9TransposeIKNS1_INS1_INS_6MatrixIdLin1ELin1ELi0ELin1ELin1EEELin1ELi1ELb1EEELin1ELi1ELb0EEEEELi1ELin1ELb1EEEEC2Ev, symObjAddr: 0x14144, symBinAddr: 0x1000174FC, symSize: 0x14 }
  - { offset: 0x1E3AB1, size: 0x8, addend: 0x0, symName: __ZNK5Eigen9EigenBaseINS_5BlockIKNS_9TransposeIKNS1_INS1_INS_6MatrixIdLin1ELin1ELi0ELin1ELin1EEELin1ELi1ELb1EEELin1ELi1ELb0EEEEELi1ELin1ELb1EEEE7derivedEv, symObjAddr: 0x14158, symBinAddr: 0x100017510, symSize: 0x14 }
  - { offset: 0x1E3AD7, size: 0x8, addend: 0x0, symName: __ZNK5Eigen9EigenBaseINS_5BlockIKNS_9TransposeIKNS1_INS1_INS_6MatrixIdLin1ELin1ELi0ELin1ELin1EEELin1ELi1ELb1EEELin1ELi1ELb0EEEEELi1ELin1ELb1EEEE4sizeEv, symObjAddr: 0x1416C, symBinAddr: 0x100017524, symSize: 0x44 }
  - { offset: 0x1E3AFD, size: 0x8, addend: 0x0, symName: __ZNK5Eigen9EigenBaseINS_5BlockIKNS1_INS1_INS_6MatrixIdLin1ELin1ELi0ELin1ELin1EEELin1ELin1ELb0EEELin1ELin1ELb0EEELin1ELi1ELb1EEEE4sizeEv, symObjAddr: 0x141B0, symBinAddr: 0x100017568, symSize: 0x44 }
  - { offset: 0x1E3B23, size: 0x8, addend: 0x0, symName: __ZN5Eigen8internal11dot_nocheckINS_5BlockIKNS_9TransposeIKNS2_INS2_INS_6MatrixIdLin1ELin1ELi0ELin1ELin1EEELin1ELi1ELb1EEELin1ELi1ELb0EEEEELi1ELin1ELb1EEENS2_IKNS2_INS2_IS5_Lin1ELin1ELb0EEELin1ELin1ELb0EEELin1ELi1ELb1EEELb1EE3runERKNS_10MatrixBaseISB_EERKNSH_ISF_EE, symObjAddr: 0x141F4, symBinAddr: 0x1000175AC, symSize: 0x78 }
  - { offset: 0x1E3B54, size: 0x8, addend: 0x0, symName: __ZNK5Eigen9EigenBaseINS_5BlockIKNS_9TransposeIKNS1_INS1_INS_6MatrixIdLin1ELin1ELi0ELin1ELin1EEELin1ELi1ELb1EEELin1ELi1ELb0EEEEELi1ELin1ELb1EEEE4rowsEv, symObjAddr: 0x1426C, symBinAddr: 0x100017624, symSize: 0x28 }
  - { offset: 0x1E3B7A, size: 0x8, addend: 0x0, symName: __ZNK5Eigen9EigenBaseINS_5BlockIKNS_9TransposeIKNS1_INS1_INS_6MatrixIdLin1ELin1ELi0ELin1ELin1EEELin1ELi1ELb1EEELin1ELi1ELb0EEEEELi1ELin1ELb1EEEE4colsEv, symObjAddr: 0x14294, symBinAddr: 0x10001764C, symSize: 0x28 }
  - { offset: 0x1E3BA0, size: 0x8, addend: 0x0, symName: __ZNK5Eigen7MapBaseINS_5BlockIKNS_9TransposeIKNS1_INS1_INS_6MatrixIdLin1ELin1ELi0ELin1ELin1EEELin1ELi1ELb1EEELin1ELi1ELb0EEEEELi1ELin1ELb1EEELi0EE4rowsEv, symObjAddr: 0x142BC, symBinAddr: 0x100017674, symSize: 0x20 }
  - { offset: 0x1E3BC6, size: 0x8, addend: 0x0, symName: __ZNK5Eigen7MapBaseINS_5BlockIKNS_9TransposeIKNS1_INS1_INS_6MatrixIdLin1ELin1ELi0ELin1ELin1EEELin1ELi1ELb1EEELin1ELi1ELb0EEEEELi1ELin1ELb1EEELi0EE4colsEv, symObjAddr: 0x142DC, symBinAddr: 0x100017694, symSize: 0x28 }
  - { offset: 0x1E3BEC, size: 0x8, addend: 0x0, symName: __ZNK5Eigen9EigenBaseINS_5BlockIKNS1_INS1_INS_6MatrixIdLin1ELin1ELi0ELin1ELin1EEELin1ELin1ELb0EEELin1ELin1ELb0EEELin1ELi1ELb1EEEE4rowsEv, symObjAddr: 0x14304, symBinAddr: 0x1000176BC, symSize: 0x38 }
  - { offset: 0x1E3C12, size: 0x8, addend: 0x0, symName: __ZNK5Eigen9EigenBaseINS_5BlockIKNS1_INS1_INS_6MatrixIdLin1ELin1ELi0ELin1ELin1EEELin1ELin1ELb0EEELin1ELin1ELb0EEELin1ELi1ELb1EEEE4colsEv, symObjAddr: 0x1433C, symBinAddr: 0x1000176F4, symSize: 0x28 }
  - { offset: 0x1E3C38, size: 0x8, addend: 0x0, symName: __ZNK5Eigen9EigenBaseINS_5BlockIKNS1_INS1_INS_6MatrixIdLin1ELin1ELi0ELin1ELin1EEELin1ELin1ELb0EEELin1ELin1ELb0EEELin1ELi1ELb1EEEE7derivedEv, symObjAddr: 0x14364, symBinAddr: 0x10001771C, symSize: 0x14 }
  - { offset: 0x1E3C5E, size: 0x8, addend: 0x0, symName: __ZNK5Eigen7MapBaseINS_5BlockIKNS1_INS1_INS_6MatrixIdLin1ELin1ELi0ELin1ELin1EEELin1ELin1ELb0EEELin1ELin1ELb0EEELin1ELi1ELb1EEELi0EE4rowsEv, symObjAddr: 0x14378, symBinAddr: 0x100017730, symSize: 0x28 }
  - { offset: 0x1E3C84, size: 0x8, addend: 0x0, symName: __ZNK5Eigen7MapBaseINS_5BlockIKNS1_INS1_INS_6MatrixIdLin1ELin1ELi0ELin1ELin1EEELin1ELin1ELb0EEELin1ELin1ELb0EEELin1ELi1ELb1EEELi0EE4colsEv, symObjAddr: 0x143A0, symBinAddr: 0x100017758, symSize: 0x20 }
  - { offset: 0x1E3CAA, size: 0x8, addend: 0x0, symName: __ZNK5Eigen9DenseBaseINS_5BlockIKNS_9TransposeIKNS1_INS1_INS_6MatrixIdLin1ELin1ELi0ELin1ELin1EEELin1ELi1ELb1EEELin1ELi1ELb0EEEEELi1ELin1ELb1EEEE9transposeEv, symObjAddr: 0x143C0, symBinAddr: 0x100017778, symSize: 0x34 }
  - { offset: 0x1E3CD2, size: 0x8, addend: 0x0, symName: __ZNK5Eigen10MatrixBaseINS_9TransposeIKNS_5BlockIKNS1_IKNS2_INS2_INS_6MatrixIdLin1ELin1ELi0ELin1ELin1EEELin1ELi1ELb1EEELin1ELi1ELb0EEEEELi1ELin1ELb1EEEEEE10binaryExprINS_8internal22scalar_conj_product_opIddEENS2_IKNS2_INS2_IS4_Lin1ELin1ELb0EEELin1ELin1ELb0EEELin1ELi1ELb1EEEEEKNS_13CwiseBinaryOpIT_KSC_KT0_EERKNS0_ISP_EERKSN_, symObjAddr: 0x143F4, symBinAddr: 0x1000177AC, symSize: 0x54 }
  - { offset: 0x1E3D26, size: 0x8, addend: 0x0, symName: __ZN5Eigen8internal22scalar_conj_product_opIddEC1Ev, symObjAddr: 0x14448, symBinAddr: 0x100017800, symSize: 0x2C }
  - { offset: 0x1E3D50, size: 0x8, addend: 0x0, symName: __ZNK5Eigen9DenseBaseINS_13CwiseBinaryOpINS_8internal22scalar_conj_product_opIddEEKNS_9TransposeIKNS_5BlockIKNS5_IKNS6_INS6_INS_6MatrixIdLin1ELin1ELi0ELin1ELin1EEELin1ELi1ELb1EEELin1ELi1ELb0EEEEELi1ELin1ELb1EEEEEKNS6_IKNS6_INS6_IS8_Lin1ELin1ELb0EEELin1ELin1ELb0EEELin1ELi1ELb1EEEEEE3sumEv, symObjAddr: 0x14474, symBinAddr: 0x10001782C, symSize: 0x74 }
  - { offset: 0x1E3D79, size: 0x8, addend: 0x0, symName: __ZN5Eigen9TransposeIKNS_5BlockIKNS0_IKNS1_INS1_INS_6MatrixIdLin1ELin1ELi0ELin1ELin1EEELin1ELi1ELb1EEELin1ELi1ELb0EEEEELi1ELin1ELb1EEEEC1ERSA_, symObjAddr: 0x144E8, symBinAddr: 0x1000178A0, symSize: 0x34 }
  - { offset: 0x1E3DB1, size: 0x8, addend: 0x0, symName: __ZN5Eigen9TransposeIKNS_5BlockIKNS0_IKNS1_INS1_INS_6MatrixIdLin1ELin1ELi0ELin1ELin1EEELin1ELi1ELb1EEELin1ELi1ELb0EEEEELi1ELin1ELb1EEEEC2ERSA_, symObjAddr: 0x1451C, symBinAddr: 0x1000178D4, symSize: 0x40 }
  - { offset: 0x1E3DE9, size: 0x8, addend: 0x0, symName: __ZN5Eigen13TransposeImplIKNS_5BlockIKNS_9TransposeIKNS1_INS1_INS_6MatrixIdLin1ELin1ELi0ELin1ELin1EEELin1ELi1ELb1EEELin1ELi1ELb0EEEEELi1ELin1ELb1EEENS_5DenseEEC2Ev, symObjAddr: 0x1455C, symBinAddr: 0x100017914, symSize: 0x2C }
  - { offset: 0x1E3E13, size: 0x8, addend: 0x0, symName: __ZN5Eigen10MatrixBaseINS_9TransposeIKNS_5BlockIKNS1_IKNS2_INS2_INS_6MatrixIdLin1ELin1ELi0ELin1ELin1EEELin1ELi1ELb1EEELin1ELi1ELb0EEEEELi1ELin1ELb1EEEEEEC2Ev, symObjAddr: 0x14588, symBinAddr: 0x100017940, symSize: 0x2C }
  - { offset: 0x1E3E3D, size: 0x8, addend: 0x0, symName: __ZN5Eigen9DenseBaseINS_9TransposeIKNS_5BlockIKNS1_IKNS2_INS2_INS_6MatrixIdLin1ELin1ELi0ELin1ELin1EEELin1ELi1ELb1EEELin1ELi1ELb0EEEEELi1ELin1ELb1EEEEEEC2Ev, symObjAddr: 0x145B4, symBinAddr: 0x10001796C, symSize: 0x14 }
  - { offset: 0x1E3E67, size: 0x8, addend: 0x0, symName: __ZNK5Eigen9EigenBaseINS_9TransposeIKNS_5BlockIKNS1_IKNS2_INS2_INS_6MatrixIdLin1ELin1ELi0ELin1ELin1EEELin1ELi1ELb1EEELin1ELi1ELb0EEEEELi1ELin1ELb1EEEEEE7derivedEv, symObjAddr: 0x145C8, symBinAddr: 0x100017980, symSize: 0x14 }
  - { offset: 0x1E3E8D, size: 0x8, addend: 0x0, symName: __ZN5Eigen13CwiseBinaryOpINS_8internal22scalar_conj_product_opIddEEKNS_9TransposeIKNS_5BlockIKNS4_IKNS5_INS5_INS_6MatrixIdLin1ELin1ELi0ELin1ELin1EEELin1ELi1ELb1EEELin1ELi1ELb0EEEEELi1ELin1ELb1EEEEEKNS5_IKNS5_INS5_IS7_Lin1ELin1ELb0EEELin1ELin1ELb0EEELin1ELi1ELb1EEEEC1ERSG_RSL_RKS3_, symObjAddr: 0x145DC, symBinAddr: 0x100017994, symSize: 0x44 }
  - { offset: 0x1E3EE1, size: 0x8, addend: 0x0, symName: __ZN5Eigen13CwiseBinaryOpINS_8internal22scalar_conj_product_opIddEEKNS_9TransposeIKNS_5BlockIKNS4_IKNS5_INS5_INS_6MatrixIdLin1ELin1ELi0ELin1ELin1EEELin1ELi1ELb1EEELin1ELi1ELb0EEEEELi1ELin1ELb1EEEEEKNS5_IKNS5_INS5_IS7_Lin1ELin1ELb0EEELin1ELin1ELb0EEELin1ELi1ELb1EEEEC2ERSG_RSL_RKS3_, symObjAddr: 0x14620, symBinAddr: 0x1000179D8, symSize: 0x104 }
  - { offset: 0x1E3F3A, size: 0x8, addend: 0x0, symName: __ZN5Eigen17CwiseBinaryOpImplINS_8internal22scalar_conj_product_opIddEEKNS_9TransposeIKNS_5BlockIKNS4_IKNS5_INS5_INS_6MatrixIdLin1ELin1ELi0ELin1ELin1EEELin1ELi1ELb1EEELin1ELi1ELb0EEEEELi1ELin1ELb1EEEEEKNS5_IKNS5_INS5_IS7_Lin1ELin1ELb0EEELin1ELin1ELb0EEELin1ELi1ELb1EEENS_5DenseEEC2Ev, symObjAddr: 0x14724, symBinAddr: 0x100017ADC, symSize: 0x2C }
  - { offset: 0x1E3F66, size: 0x8, addend: 0x0, symName: __ZN5Eigen8internal22scalar_conj_product_opIddEC1ERKS2_, symObjAddr: 0x14750, symBinAddr: 0x100017B08, symSize: 0x34 }
  - { offset: 0x1E3F9B, size: 0x8, addend: 0x0, symName: __ZNK5Eigen9TransposeIKNS_5BlockIKNS0_IKNS1_INS1_INS_6MatrixIdLin1ELin1ELi0ELin1ELin1EEELin1ELi1ELb1EEELin1ELi1ELb0EEEEELi1ELin1ELb1EEEE4rowsEv, symObjAddr: 0x14784, symBinAddr: 0x100017B3C, symSize: 0x24 }
  - { offset: 0x1E3FC1, size: 0x8, addend: 0x0, symName: __ZNK5Eigen9TransposeIKNS_5BlockIKNS0_IKNS1_INS1_INS_6MatrixIdLin1ELin1ELi0ELin1ELin1EEELin1ELi1ELb1EEELin1ELi1ELb0EEEEELi1ELin1ELb1EEEE4colsEv, symObjAddr: 0x147A8, symBinAddr: 0x100017B60, symSize: 0x24 }
  - { offset: 0x1E3FE7, size: 0x8, addend: 0x0, symName: __ZN5Eigen10MatrixBaseINS_13CwiseBinaryOpINS_8internal22scalar_conj_product_opIddEEKNS_9TransposeIKNS_5BlockIKNS5_IKNS6_INS6_INS_6MatrixIdLin1ELin1ELi0ELin1ELin1EEELin1ELi1ELb1EEELin1ELi1ELb0EEEEELi1ELin1ELb1EEEEEKNS6_IKNS6_INS6_IS8_Lin1ELin1ELb0EEELin1ELin1ELb0EEELin1ELi1ELb1EEEEEEC2Ev, symObjAddr: 0x147CC, symBinAddr: 0x100017B84, symSize: 0x2C }
  - { offset: 0x1E4011, size: 0x8, addend: 0x0, symName: __ZN5Eigen9DenseBaseINS_13CwiseBinaryOpINS_8internal22scalar_conj_product_opIddEEKNS_9TransposeIKNS_5BlockIKNS5_IKNS6_INS6_INS_6MatrixIdLin1ELin1ELi0ELin1ELin1EEELin1ELi1ELb1EEELin1ELi1ELb0EEEEELi1ELin1ELb1EEEEEKNS6_IKNS6_INS6_IS8_Lin1ELin1ELb0EEELin1ELin1ELb0EEELin1ELi1ELb1EEEEEEC2Ev, symObjAddr: 0x147F8, symBinAddr: 0x100017BB0, symSize: 0x14 }
  - { offset: 0x1E403B, size: 0x8, addend: 0x0, symName: __ZN5Eigen8internal22scalar_conj_product_opIddEC2ERKS2_, symObjAddr: 0x1480C, symBinAddr: 0x100017BC4, symSize: 0x18 }
  - { offset: 0x1E4070, size: 0x8, addend: 0x0, symName: __ZN5Eigen8internal22scalar_conj_product_opIddEC2Ev, symObjAddr: 0x14824, symBinAddr: 0x100017BDC, symSize: 0x14 }
  - { offset: 0x1E409A, size: 0x8, addend: 0x0, symName: __ZNK5Eigen9EigenBaseINS_13CwiseBinaryOpINS_8internal22scalar_conj_product_opIddEEKNS_9TransposeIKNS_5BlockIKNS5_IKNS6_INS6_INS_6MatrixIdLin1ELin1ELi0ELin1ELin1EEELin1ELi1ELb1EEELin1ELi1ELb0EEEEELi1ELin1ELb1EEEEEKNS6_IKNS6_INS6_IS8_Lin1ELin1ELb0EEELin1ELin1ELb0EEELin1ELi1ELb1EEEEEE4sizeEv, symObjAddr: 0x14838, symBinAddr: 0x100017BF0, symSize: 0x44 }
  - { offset: 0x1E40C0, size: 0x8, addend: 0x0, symName: __ZNK5Eigen9EigenBaseINS_13CwiseBinaryOpINS_8internal22scalar_conj_product_opIddEEKNS_9TransposeIKNS_5BlockIKNS5_IKNS6_INS6_INS_6MatrixIdLin1ELin1ELi0ELin1ELin1EEELin1ELi1ELb1EEELin1ELi1ELb0EEEEELi1ELin1ELb1EEEEEKNS6_IKNS6_INS6_IS8_Lin1ELin1ELb0EEELin1ELin1ELb0EEELin1ELi1ELb1EEEEEE7derivedEv, symObjAddr: 0x1487C, symBinAddr: 0x100017C34, symSize: 0x14 }
  - { offset: 0x1E40E6, size: 0x8, addend: 0x0, symName: __ZNK5Eigen9DenseBaseINS_13CwiseBinaryOpINS_8internal22scalar_conj_product_opIddEEKNS_9TransposeIKNS_5BlockIKNS5_IKNS6_INS6_INS_6MatrixIdLin1ELin1ELi0ELin1ELin1EEELin1ELi1ELb1EEELin1ELi1ELb0EEEEELi1ELin1ELb1EEEEEKNS6_IKNS6_INS6_IS8_Lin1ELin1ELb0EEELin1ELin1ELb0EEELin1ELi1ELb1EEEEEE5reduxINS2_13scalar_sum_opIddEEEEdRKT_, symObjAddr: 0x14890, symBinAddr: 0x100017C48, symSize: 0x10C }
  - { offset: 0x1E4142, size: 0x8, addend: 0x0, symName: __ZNK5Eigen9EigenBaseINS_13CwiseBinaryOpINS_8internal22scalar_conj_product_opIddEEKNS_9TransposeIKNS_5BlockIKNS5_IKNS6_INS6_INS_6MatrixIdLin1ELin1ELi0ELin1ELin1EEELin1ELi1ELb1EEELin1ELi1ELb0EEEEELi1ELin1ELb1EEEEEKNS6_IKNS6_INS6_IS8_Lin1ELin1ELb0EEELin1ELin1ELb0EEELin1ELi1ELb1EEEEEE4rowsEv, symObjAddr: 0x1499C, symBinAddr: 0x100017D54, symSize: 0x38 }
  - { offset: 0x1E4168, size: 0x8, addend: 0x0, symName: __ZNK5Eigen9EigenBaseINS_13CwiseBinaryOpINS_8internal22scalar_conj_product_opIddEEKNS_9TransposeIKNS_5BlockIKNS5_IKNS6_INS6_INS_6MatrixIdLin1ELin1ELi0ELin1ELin1EEELin1ELi1ELb1EEELin1ELi1ELb0EEEEELi1ELin1ELb1EEEEEKNS6_IKNS6_INS6_IS8_Lin1ELin1ELb0EEELin1ELin1ELb0EEELin1ELi1ELb1EEEEEE4colsEv, symObjAddr: 0x149D4, symBinAddr: 0x100017D8C, symSize: 0x38 }
  - { offset: 0x1E418E, size: 0x8, addend: 0x0, symName: __ZNK5Eigen13CwiseBinaryOpINS_8internal22scalar_conj_product_opIddEEKNS_9TransposeIKNS_5BlockIKNS4_IKNS5_INS5_INS_6MatrixIdLin1ELin1ELi0ELin1ELin1EEELin1ELi1ELb1EEELin1ELi1ELb0EEEEELi1ELin1ELb1EEEEEKNS5_IKNS5_INS5_IS7_Lin1ELin1ELb0EEELin1ELin1ELb0EEELin1ELi1ELb1EEEE4rowsEv, symObjAddr: 0x14A0C, symBinAddr: 0x100017DC4, symSize: 0x28 }
  - { offset: 0x1E41B4, size: 0x8, addend: 0x0, symName: __ZNK5Eigen13CwiseBinaryOpINS_8internal22scalar_conj_product_opIddEEKNS_9TransposeIKNS_5BlockIKNS4_IKNS5_INS5_INS_6MatrixIdLin1ELin1ELi0ELin1ELin1EEELin1ELi1ELb1EEELin1ELi1ELb0EEEEELi1ELin1ELb1EEEEEKNS5_IKNS5_INS5_IS7_Lin1ELin1ELb0EEELin1ELin1ELb0EEELin1ELi1ELb1EEEE4colsEv, symObjAddr: 0x14A34, symBinAddr: 0x100017DEC, symSize: 0x24 }
  - { offset: 0x1E42BB, size: 0x8, addend: 0x0, symName: __ZN5Eigen8internal15redux_evaluatorINS_13CwiseBinaryOpINS0_22scalar_conj_product_opIddEEKNS_9TransposeIKNS_5BlockIKNS5_IKNS6_INS6_INS_6MatrixIdLin1ELin1ELi0ELin1ELin1EEELin1ELi1ELb1EEELin1ELi1ELb0EEEEELi1ELin1ELb1EEEEEKNS6_IKNS6_INS6_IS8_Lin1ELin1ELb0EEELin1ELin1ELb0EEELin1ELi1ELb1EEEEEEC1ERKSN_, symObjAddr: 0x14A58, symBinAddr: 0x100017E10, symSize: 0x34 }
  - { offset: 0x1E42F9, size: 0x8, addend: 0x0, symName: __ZN5Eigen8internal10redux_implINS0_13scalar_sum_opIddEENS0_15redux_evaluatorINS_13CwiseBinaryOpINS0_22scalar_conj_product_opIddEEKNS_9TransposeIKNS_5BlockIKNS8_IKNS9_INS9_INS_6MatrixIdLin1ELin1ELi0ELin1ELin1EEELin1ELi1ELb1EEELin1ELi1ELb0EEEEELi1ELin1ELb1EEEEEKNS9_IKNS9_INS9_ISB_Lin1ELin1ELb0EEELin1ELin1ELb0EEELin1ELi1ELb1EEEEEEELi3ELi0EE3runISQ_EEdRKSR_RKS3_RKT_, symObjAddr: 0x14A8C, symBinAddr: 0x100017E44, symSize: 0x348 }
  - { offset: 0x1E4476, size: 0x8, addend: 0x0, symName: __ZN5Eigen8internal15redux_evaluatorINS_13CwiseBinaryOpINS0_22scalar_conj_product_opIddEEKNS_9TransposeIKNS_5BlockIKNS5_IKNS6_INS6_INS_6MatrixIdLin1ELin1ELi0ELin1ELin1EEELin1ELi1ELb1EEELin1ELi1ELb0EEEEELi1ELin1ELb1EEEEEKNS6_IKNS6_INS6_IS8_Lin1ELin1ELb0EEELin1ELin1ELb0EEELin1ELi1ELb1EEEEEED1Ev, symObjAddr: 0x14DD4, symBinAddr: 0x10001818C, symSize: 0x2C }
  - { offset: 0x1E44A3, size: 0x8, addend: 0x0, symName: __ZN5Eigen8internal15redux_evaluatorINS_13CwiseBinaryOpINS0_22scalar_conj_product_opIddEEKNS_9TransposeIKNS_5BlockIKNS5_IKNS6_INS6_INS_6MatrixIdLin1ELin1ELi0ELin1ELin1EEELin1ELi1ELb1EEELin1ELi1ELb0EEEEELi1ELin1ELb1EEEEEKNS6_IKNS6_INS6_IS8_Lin1ELin1ELb0EEELin1ELin1ELb0EEELin1ELi1ELb1EEEEEEC2ERKSN_, symObjAddr: 0x14E00, symBinAddr: 0x1000181B8, symSize: 0x34 }
  - { offset: 0x1E44DC, size: 0x8, addend: 0x0, symName: __ZN5Eigen8internal9evaluatorINS_13CwiseBinaryOpINS0_22scalar_conj_product_opIddEEKNS_9TransposeIKNS_5BlockIKNS5_IKNS6_INS6_INS_6MatrixIdLin1ELin1ELi0ELin1ELin1EEELin1ELi1ELb1EEELin1ELi1ELb0EEEEELi1ELin1ELb1EEEEEKNS6_IKNS6_INS6_IS8_Lin1ELin1ELb0EEELin1ELin1ELb0EEELin1ELi1ELb1EEEEEEC2ERKSN_, symObjAddr: 0x14E34, symBinAddr: 0x1000181EC, symSize: 0x34 }
  - { offset: 0x1E4515, size: 0x8, addend: 0x0, symName: __ZN5Eigen8internal16binary_evaluatorINS_13CwiseBinaryOpINS0_22scalar_conj_product_opIddEEKNS_9TransposeIKNS_5BlockIKNS5_IKNS6_INS6_INS_6MatrixIdLin1ELin1ELi0ELin1ELin1EEELin1ELi1ELb1EEELin1ELi1ELb0EEEEELi1ELin1ELb1EEEEEKNS6_IKNS6_INS6_IS8_Lin1ELin1ELb0EEELin1ELin1ELb0EEELin1ELi1ELb1EEEEENS0_10IndexBasedESO_ddEC2ERKSN_, symObjAddr: 0x14E68, symBinAddr: 0x100018220, symSize: 0x64 }
  - { offset: 0x1E454E, size: 0x8, addend: 0x0, symName: __ZN5Eigen8internal14evaluator_baseINS_13CwiseBinaryOpINS0_22scalar_conj_product_opIddEEKNS_9TransposeIKNS_5BlockIKNS5_IKNS6_INS6_INS_6MatrixIdLin1ELin1ELi0ELin1ELin1EEELin1ELi1ELb1EEELin1ELi1ELb0EEEEELi1ELin1ELb1EEEEEKNS6_IKNS6_INS6_IS8_Lin1ELin1ELb0EEELin1ELin1ELb0EEELin1ELi1ELb1EEEEEEC2Ev, symObjAddr: 0x14ECC, symBinAddr: 0x100018284, symSize: 0x14 }
  - { offset: 0x1E4578, size: 0x8, addend: 0x0, symName: __ZN5Eigen8internal16binary_evaluatorINS_13CwiseBinaryOpINS0_22scalar_conj_product_opIddEEKNS_9TransposeIKNS_5BlockIKNS5_IKNS6_INS6_INS_6MatrixIdLin1ELin1ELi0ELin1ELin1EEELin1ELi1ELb1EEELin1ELi1ELb0EEEEELi1ELin1ELb1EEEEEKNS6_IKNS6_INS6_IS8_Lin1ELin1ELb0EEELin1ELin1ELb0EEELin1ELi1ELb1EEEEENS0_10IndexBasedESO_ddE4DataC1ERKSN_, symObjAddr: 0x14EE0, symBinAddr: 0x100018298, symSize: 0x34 }
  - { offset: 0x1E45B1, size: 0x8, addend: 0x0, symName: __ZN5Eigen8internal14evaluator_baseINS_13CwiseBinaryOpINS0_22scalar_conj_product_opIddEEKNS_9TransposeIKNS_5BlockIKNS5_IKNS6_INS6_INS_6MatrixIdLin1ELin1ELi0ELin1ELin1EEELin1ELi1ELb1EEELin1ELi1ELb0EEEEELi1ELin1ELb1EEEEEKNS6_IKNS6_INS6_IS8_Lin1ELin1ELb0EEELin1ELin1ELb0EEELin1ELi1ELb1EEEEEED2Ev, symObjAddr: 0x14F14, symBinAddr: 0x1000182CC, symSize: 0x14 }
  - { offset: 0x1E45DB, size: 0x8, addend: 0x0, symName: __ZN5Eigen8internal16binary_evaluatorINS_13CwiseBinaryOpINS0_22scalar_conj_product_opIddEEKNS_9TransposeIKNS_5BlockIKNS5_IKNS6_INS6_INS_6MatrixIdLin1ELin1ELi0ELin1ELin1EEELin1ELi1ELb1EEELin1ELi1ELb0EEEEELi1ELin1ELb1EEEEEKNS6_IKNS6_INS6_IS8_Lin1ELin1ELb0EEELin1ELin1ELb0EEELin1ELi1ELb1EEEEENS0_10IndexBasedESO_ddE4DataC2ERKSN_, symObjAddr: 0x14F28, symBinAddr: 0x1000182E0, symSize: 0xA0 }
  - { offset: 0x1E4614, size: 0x8, addend: 0x0, symName: __ZNK5Eigen13CwiseBinaryOpINS_8internal22scalar_conj_product_opIddEEKNS_9TransposeIKNS_5BlockIKNS4_IKNS5_INS5_INS_6MatrixIdLin1ELin1ELi0ELin1ELin1EEELin1ELi1ELb1EEELin1ELi1ELb0EEEEELi1ELin1ELb1EEEEEKNS5_IKNS5_INS5_IS7_Lin1ELin1ELb0EEELin1ELin1ELb0EEELin1ELi1ELb1EEEE7functorEv, symObjAddr: 0x14FC8, symBinAddr: 0x100018380, symSize: 0x18 }
  - { offset: 0x1E463A, size: 0x8, addend: 0x0, symName: __ZNK5Eigen13CwiseBinaryOpINS_8internal22scalar_conj_product_opIddEEKNS_9TransposeIKNS_5BlockIKNS4_IKNS5_INS5_INS_6MatrixIdLin1ELin1ELi0ELin1ELin1EEELin1ELi1ELb1EEELin1ELi1ELb0EEEEELi1ELin1ELb1EEEEEKNS5_IKNS5_INS5_IS7_Lin1ELin1ELb0EEELin1ELin1ELb0EEELin1ELi1ELb1EEEE3lhsEv, symObjAddr: 0x14FE0, symBinAddr: 0x100018398, symSize: 0x14 }
  - { offset: 0x1E4660, size: 0x8, addend: 0x0, symName: __ZN5Eigen8internal9evaluatorIKNS_9TransposeIKNS_5BlockIKNS2_IKNS3_INS3_INS_6MatrixIdLin1ELin1ELi0ELin1ELin1EEELin1ELi1ELb1EEELin1ELi1ELb0EEEEELi1ELin1ELb1EEEEEEC1ERSE_, symObjAddr: 0x14FF4, symBinAddr: 0x1000183AC, symSize: 0x34 }
  - { offset: 0x1E4698, size: 0x8, addend: 0x0, symName: __ZNK5Eigen13CwiseBinaryOpINS_8internal22scalar_conj_product_opIddEEKNS_9TransposeIKNS_5BlockIKNS4_IKNS5_INS5_INS_6MatrixIdLin1ELin1ELi0ELin1ELin1EEELin1ELi1ELb1EEELin1ELi1ELb0EEEEELi1ELin1ELb1EEEEEKNS5_IKNS5_INS5_IS7_Lin1ELin1ELb0EEELin1ELin1ELb0EEELin1ELi1ELb1EEEE3rhsEv, symObjAddr: 0x15028, symBinAddr: 0x1000183E0, symSize: 0x18 }
  - { offset: 0x1E46BE, size: 0x8, addend: 0x0, symName: __ZN5Eigen8internal9evaluatorIKNS_5BlockIKNS2_INS2_INS_6MatrixIdLin1ELin1ELi0ELin1ELin1EEELin1ELin1ELb0EEELin1ELin1ELb0EEELin1ELi1ELb1EEEEC1ERS9_, symObjAddr: 0x15040, symBinAddr: 0x1000183F8, symSize: 0x34 }
  - { offset: 0x1E46F6, size: 0x8, addend: 0x0, symName: __ZN5Eigen8internal9evaluatorIKNS_9TransposeIKNS_5BlockIKNS2_IKNS3_INS3_INS_6MatrixIdLin1ELin1ELi0ELin1ELin1EEELin1ELi1ELb1EEELin1ELi1ELb0EEEEELi1ELin1ELb1EEEEEED1Ev, symObjAddr: 0x15074, symBinAddr: 0x10001842C, symSize: 0x2C }
  - { offset: 0x1E4722, size: 0x8, addend: 0x0, symName: __ZN5Eigen8internal9evaluatorIKNS_9TransposeIKNS_5BlockIKNS2_IKNS3_INS3_INS_6MatrixIdLin1ELin1ELi0ELin1ELin1EEELin1ELi1ELb1EEELin1ELi1ELb0EEEEELi1ELin1ELb1EEEEEEC2ERSE_, symObjAddr: 0x150A0, symBinAddr: 0x100018458, symSize: 0x34 }
  - { offset: 0x1E475A, size: 0x8, addend: 0x0, symName: __ZN5Eigen8internal9evaluatorINS_9TransposeIKNS_5BlockIKNS2_IKNS3_INS3_INS_6MatrixIdLin1ELin1ELi0ELin1ELin1EEELin1ELi1ELb1EEELin1ELi1ELb0EEEEELi1ELin1ELb1EEEEEEC2ERKSD_, symObjAddr: 0x150D4, symBinAddr: 0x10001848C, symSize: 0x34 }
  - { offset: 0x1E4792, size: 0x8, addend: 0x0, symName: __ZN5Eigen8internal15unary_evaluatorINS_9TransposeIKNS_5BlockIKNS2_IKNS3_INS3_INS_6MatrixIdLin1ELin1ELi0ELin1ELin1EEELin1ELi1ELb1EEELin1ELi1ELb0EEEEELi1ELin1ELb1EEEEENS0_10IndexBasedEdEC2ERKSD_, symObjAddr: 0x15108, symBinAddr: 0x1000184C0, symSize: 0x74 }
  - { offset: 0x1E47CB, size: 0x8, addend: 0x0, symName: __ZN5Eigen8internal14evaluator_baseINS_9TransposeIKNS_5BlockIKNS2_IKNS3_INS3_INS_6MatrixIdLin1ELin1ELi0ELin1ELin1EEELin1ELi1ELb1EEELin1ELi1ELb0EEEEELi1ELin1ELb1EEEEEEC2Ev, symObjAddr: 0x1517C, symBinAddr: 0x100018534, symSize: 0x14 }
  - { offset: 0x1E47F5, size: 0x8, addend: 0x0, symName: __ZNK5Eigen9TransposeIKNS_5BlockIKNS0_IKNS1_INS1_INS_6MatrixIdLin1ELin1ELi0ELin1ELin1EEELin1ELi1ELb1EEELin1ELi1ELb0EEEEELi1ELin1ELb1EEEE16nestedExpressionEv, symObjAddr: 0x15190, symBinAddr: 0x100018548, symSize: 0x14 }
  - { offset: 0x1E481B, size: 0x8, addend: 0x0, symName: __ZN5Eigen8internal9evaluatorIKNS_5BlockIKNS_9TransposeIKNS2_INS2_INS_6MatrixIdLin1ELin1ELi0ELin1ELin1EEELin1ELi1ELb1EEELin1ELi1ELb0EEEEELi1ELin1ELb1EEEEC1ERSC_, symObjAddr: 0x151A4, symBinAddr: 0x10001855C, symSize: 0x34 }
  - { offset: 0x1E4853, size: 0x8, addend: 0x0, symName: __ZN5Eigen8internal14evaluator_baseINS_9TransposeIKNS_5BlockIKNS2_IKNS3_INS3_INS_6MatrixIdLin1ELin1ELi0ELin1ELin1EEELin1ELi1ELb1EEELin1ELi1ELb0EEEEELi1ELin1ELb1EEEEEED2Ev, symObjAddr: 0x151D8, symBinAddr: 0x100018590, symSize: 0x14 }
  - { offset: 0x1E487D, size: 0x8, addend: 0x0, symName: __ZN5Eigen8internal9evaluatorIKNS_5BlockIKNS_9TransposeIKNS2_INS2_INS_6MatrixIdLin1ELin1ELi0ELin1ELin1EEELin1ELi1ELb1EEELin1ELi1ELb0EEEEELi1ELin1ELb1EEEEC2ERSC_, symObjAddr: 0x151EC, symBinAddr: 0x1000185A4, symSize: 0x34 }
  - { offset: 0x1E48B5, size: 0x8, addend: 0x0, symName: __ZN5Eigen8internal9evaluatorINS_5BlockIKNS_9TransposeIKNS2_INS2_INS_6MatrixIdLin1ELin1ELi0ELin1ELin1EEELin1ELi1ELb1EEELin1ELi1ELb0EEEEELi1ELin1ELb1EEEEC2ERKSB_, symObjAddr: 0x15220, symBinAddr: 0x1000185D8, symSize: 0x34 }
  - { offset: 0x1E48EE, size: 0x8, addend: 0x0, symName: __ZN5Eigen8internal15block_evaluatorIKNS_9TransposeIKNS_5BlockINS3_INS_6MatrixIdLin1ELin1ELi0ELin1ELin1EEELin1ELi1ELb1EEELin1ELi1ELb0EEEEELi1ELin1ELb1ELb1EEC2ERKNS3_ISA_Li1ELin1ELb1EEE, symObjAddr: 0x15254, symBinAddr: 0x10001860C, symSize: 0xDC }
  - { offset: 0x1E4927, size: 0x8, addend: 0x0, symName: __ZN5Eigen8internal17mapbase_evaluatorINS_5BlockIKNS_9TransposeIKNS2_INS2_INS_6MatrixIdLin1ELin1ELi0ELin1ELin1EEELin1ELi1ELb1EEELin1ELi1ELb0EEEEELi1ELin1ELb1EEENS4_IdLi1ELin1ELi1ELi1ELin1EEEEC2ERKSB_, symObjAddr: 0x15330, symBinAddr: 0x1000186E8, symSize: 0xB0 }
  - { offset: 0x1E4960, size: 0x8, addend: 0x0, symName: __ZNK5Eigen7MapBaseINS_5BlockIKNS_9TransposeIKNS1_INS1_INS_6MatrixIdLin1ELin1ELi0ELin1ELin1EEELin1ELi1ELb1EEELin1ELi1ELb0EEEEELi1ELin1ELb1EEELi0EE4dataEv, symObjAddr: 0x153E0, symBinAddr: 0x100018798, symSize: 0x18 }
  - { offset: 0x1E4986, size: 0x8, addend: 0x0, symName: __ZN5Eigen8internal17mapbase_evaluatorINS_5BlockIKNS_9TransposeIKNS2_INS2_INS_6MatrixIdLin1ELin1ELi0ELin1ELin1EEELin1ELi1ELb1EEELin1ELi1ELb0EEEEELi1ELin1ELb1EEENS4_IdLi1ELin1ELi1ELi1ELin1EEEED2Ev, symObjAddr: 0x153F8, symBinAddr: 0x1000187B0, symSize: 0x2C }
  - { offset: 0x1E49B3, size: 0x8, addend: 0x0, symName: __ZN5Eigen8internal14evaluator_baseINS_5BlockIKNS_9TransposeIKNS2_INS2_INS_6MatrixIdLin1ELin1ELi0ELin1ELin1EEELin1ELi1ELb1EEELin1ELi1ELb0EEEEELi1ELin1ELb1EEEEC2Ev, symObjAddr: 0x15424, symBinAddr: 0x1000187DC, symSize: 0x14 }
  - { offset: 0x1E49DD, size: 0x8, addend: 0x0, symName: __ZNK5Eigen8internal15BlockImpl_denseIKNS_9TransposeIKNS_5BlockINS3_INS_6MatrixIdLin1ELin1ELi0ELin1ELin1EEELin1ELi1ELb1EEELin1ELi1ELb0EEEEELi1ELin1ELb1ELb1EE11innerStrideEv, symObjAddr: 0x15438, symBinAddr: 0x1000187F0, symSize: 0x38 }
  - { offset: 0x1E4A03, size: 0x8, addend: 0x0, symName: __ZNK5Eigen8internal15BlockImpl_denseIKNS_9TransposeIKNS_5BlockINS3_INS_6MatrixIdLin1ELin1ELi0ELin1ELin1EEELin1ELi1ELb1EEELin1ELi1ELb0EEEEELi1ELin1ELb1ELb1EE11outerStrideEv, symObjAddr: 0x15470, symBinAddr: 0x100018828, symSize: 0x28 }
  - { offset: 0x1E4A29, size: 0x8, addend: 0x0, symName: __ZN5Eigen8internal14evaluator_baseINS_5BlockIKNS_9TransposeIKNS2_INS2_INS_6MatrixIdLin1ELin1ELi0ELin1ELin1EEELin1ELi1ELb1EEELin1ELi1ELb0EEEEELi1ELin1ELb1EEEED2Ev, symObjAddr: 0x15498, symBinAddr: 0x100018850, symSize: 0x14 }
  - { offset: 0x1E4A53, size: 0x8, addend: 0x0, symName: __ZNK5Eigen13TransposeImplIKNS_5BlockINS1_INS_6MatrixIdLin1ELin1ELi0ELin1ELin1EEELin1ELi1ELb1EEELin1ELi1ELb0EEENS_5DenseEE11innerStrideEv, symObjAddr: 0x154AC, symBinAddr: 0x100018864, symSize: 0x2C }
  - { offset: 0x1E4A79, size: 0x8, addend: 0x0, symName: __ZN5Eigen8internal9evaluatorIKNS_5BlockIKNS2_INS2_INS_6MatrixIdLin1ELin1ELi0ELin1ELin1EEELin1ELin1ELb0EEELin1ELin1ELb0EEELin1ELi1ELb1EEEEC2ERS9_, symObjAddr: 0x154D8, symBinAddr: 0x100018890, symSize: 0x34 }
  - { offset: 0x1E4AB1, size: 0x8, addend: 0x0, symName: __ZN5Eigen8internal9evaluatorINS_5BlockIKNS2_INS2_INS_6MatrixIdLin1ELin1ELi0ELin1ELin1EEELin1ELin1ELb0EEELin1ELin1ELb0EEELin1ELi1ELb1EEEEC2ERKS8_, symObjAddr: 0x1550C, symBinAddr: 0x1000188C4, symSize: 0x34 }
  - { offset: 0x1E4AEA, size: 0x8, addend: 0x0, symName: __ZN5Eigen8internal15block_evaluatorIKNS_5BlockINS2_INS_6MatrixIdLin1ELin1ELi0ELin1ELin1EEELin1ELin1ELb0EEELin1ELin1ELb0EEELin1ELi1ELb1ELb1EEC2ERKNS2_IS7_Lin1ELi1ELb1EEE, symObjAddr: 0x15540, symBinAddr: 0x1000188F8, symSize: 0xDC }
  - { offset: 0x1E4B23, size: 0x8, addend: 0x0, symName: __ZN5Eigen8internal17mapbase_evaluatorINS_5BlockIKNS2_INS2_INS_6MatrixIdLin1ELin1ELi0ELin1ELin1EEELin1ELin1ELb0EEELin1ELin1ELb0EEELin1ELi1ELb1EEENS3_IdLin1ELi1ELi0ELin1ELi1EEEEC2ERKS8_, symObjAddr: 0x1561C, symBinAddr: 0x1000189D4, symSize: 0xB0 }
  - { offset: 0x1E4B5C, size: 0x8, addend: 0x0, symName: __ZNK5Eigen7MapBaseINS_5BlockIKNS1_INS1_INS_6MatrixIdLin1ELin1ELi0ELin1ELin1EEELin1ELin1ELb0EEELin1ELin1ELb0EEELin1ELi1ELb1EEELi0EE4dataEv, symObjAddr: 0x156CC, symBinAddr: 0x100018A84, symSize: 0x18 }
  - { offset: 0x1E4B82, size: 0x8, addend: 0x0, symName: __ZN5Eigen8internal17mapbase_evaluatorINS_5BlockIKNS2_INS2_INS_6MatrixIdLin1ELin1ELi0ELin1ELin1EEELin1ELin1ELb0EEELin1ELin1ELb0EEELin1ELi1ELb1EEENS3_IdLin1ELi1ELi0ELin1ELi1EEEED2Ev, symObjAddr: 0x156E4, symBinAddr: 0x100018A9C, symSize: 0x2C }
  - { offset: 0x1E4BAF, size: 0x8, addend: 0x0, symName: __ZN5Eigen8internal14evaluator_baseINS_5BlockIKNS2_INS2_INS_6MatrixIdLin1ELin1ELi0ELin1ELin1EEELin1ELin1ELb0EEELin1ELin1ELb0EEELin1ELi1ELb1EEEEC2Ev, symObjAddr: 0x15710, symBinAddr: 0x100018AC8, symSize: 0x14 }
  - { offset: 0x1E4BD9, size: 0x8, addend: 0x0, symName: __ZNK5Eigen8internal15BlockImpl_denseIKNS_5BlockINS2_INS_6MatrixIdLin1ELin1ELi0ELin1ELin1EEELin1ELin1ELb0EEELin1ELin1ELb0EEELin1ELi1ELb1ELb1EE11innerStrideEv, symObjAddr: 0x15724, symBinAddr: 0x100018ADC, symSize: 0x28 }
  - { offset: 0x1E4BFF, size: 0x8, addend: 0x0, symName: __ZNK5Eigen8internal15BlockImpl_denseIKNS_5BlockINS2_INS_6MatrixIdLin1ELin1ELi0ELin1ELin1EEELin1ELin1ELb0EEELin1ELin1ELb0EEELin1ELi1ELb1ELb1EE11outerStrideEv, symObjAddr: 0x1574C, symBinAddr: 0x100018B04, symSize: 0x28 }
  - { offset: 0x1E4C25, size: 0x8, addend: 0x0, symName: __ZN5Eigen8internal14evaluator_baseINS_5BlockIKNS2_INS2_INS_6MatrixIdLin1ELin1ELi0ELin1ELin1EEELin1ELin1ELb0EEELin1ELin1ELb0EEELin1ELi1ELb1EEEED2Ev, symObjAddr: 0x15774, symBinAddr: 0x100018B2C, symSize: 0x14 }
  - { offset: 0x1E4C4F, size: 0x8, addend: 0x0, symName: __ZNK5Eigen8internal15BlockImpl_denseINS_5BlockINS_6MatrixIdLin1ELin1ELi0ELin1ELin1EEELin1ELin1ELb0EEELin1ELin1ELb0ELb1EE11innerStrideEv, symObjAddr: 0x15788, symBinAddr: 0x100018B40, symSize: 0x28 }
  - { offset: 0x1E4C75, size: 0x8, addend: 0x0, symName: __ZNK5Eigen8internal15BlockImpl_denseINS_5BlockINS_6MatrixIdLin1ELin1ELi0ELin1ELin1EEELin1ELin1ELb0EEELin1ELin1ELb0ELb1EE11outerStrideEv, symObjAddr: 0x157B0, symBinAddr: 0x100018B68, symSize: 0x28 }
  - { offset: 0x1E4C9B, size: 0x8, addend: 0x0, symName: __ZN5Eigen8internal9evaluatorIKNS_9TransposeIKNS_5BlockIKNS2_IKNS3_INS3_INS_6MatrixIdLin1ELin1ELi0ELin1ELin1EEELin1ELi1ELb1EEELin1ELi1ELb0EEEEELi1ELin1ELb1EEEEEED2Ev, symObjAddr: 0x157D8, symBinAddr: 0x100018B90, symSize: 0x2C }
  - { offset: 0x1E4CC7, size: 0x8, addend: 0x0, symName: __ZN5Eigen8internal9evaluatorINS_9TransposeIKNS_5BlockIKNS2_IKNS3_INS3_INS_6MatrixIdLin1ELin1ELi0ELin1ELin1EEELin1ELi1ELb1EEELin1ELi1ELb0EEEEELi1ELin1ELb1EEEEEED2Ev, symObjAddr: 0x15804, symBinAddr: 0x100018BBC, symSize: 0x2C }
  - { offset: 0x1E4CF3, size: 0x8, addend: 0x0, symName: __ZN5Eigen8internal15unary_evaluatorINS_9TransposeIKNS_5BlockIKNS2_IKNS3_INS3_INS_6MatrixIdLin1ELin1ELi0ELin1ELin1EEELin1ELi1ELb1EEELin1ELi1ELb0EEEEELi1ELin1ELb1EEEEENS0_10IndexBasedEdED2Ev, symObjAddr: 0x15830, symBinAddr: 0x100018BE8, symSize: 0x34 }
  - { offset: 0x1E4D1F, size: 0x8, addend: 0x0, symName: __ZN5Eigen8internal9evaluatorIKNS_5BlockIKNS_9TransposeIKNS2_INS2_INS_6MatrixIdLin1ELin1ELi0ELin1ELin1EEELin1ELi1ELb1EEELin1ELi1ELb0EEEEELi1ELin1ELb1EEEED1Ev, symObjAddr: 0x15864, symBinAddr: 0x100018C1C, symSize: 0x2C }
  - { offset: 0x1E4D4B, size: 0x8, addend: 0x0, symName: __ZN5Eigen8internal9evaluatorIKNS_5BlockIKNS_9TransposeIKNS2_INS2_INS_6MatrixIdLin1ELin1ELi0ELin1ELin1EEELin1ELi1ELb1EEELin1ELi1ELb0EEEEELi1ELin1ELb1EEEED2Ev, symObjAddr: 0x15890, symBinAddr: 0x100018C48, symSize: 0x2C }
  - { offset: 0x1E4D77, size: 0x8, addend: 0x0, symName: __ZN5Eigen8internal9evaluatorINS_5BlockIKNS_9TransposeIKNS2_INS2_INS_6MatrixIdLin1ELin1ELi0ELin1ELin1EEELin1ELi1ELb1EEELin1ELi1ELb0EEEEELi1ELin1ELb1EEEED2Ev, symObjAddr: 0x158BC, symBinAddr: 0x100018C74, symSize: 0x2C }
  - { offset: 0x1E4DA4, size: 0x8, addend: 0x0, symName: __ZN5Eigen8internal15block_evaluatorIKNS_9TransposeIKNS_5BlockINS3_INS_6MatrixIdLin1ELin1ELi0ELin1ELin1EEELin1ELi1ELb1EEELin1ELi1ELb0EEEEELi1ELin1ELb1ELb1EED2Ev, symObjAddr: 0x158E8, symBinAddr: 0x100018CA0, symSize: 0x2C }
  - { offset: 0x1E4DD1, size: 0x8, addend: 0x0, symName: __ZNK5Eigen8internal16binary_evaluatorINS_13CwiseBinaryOpINS0_22scalar_conj_product_opIddEEKNS_9TransposeIKNS_5BlockIKNS5_IKNS6_INS6_INS_6MatrixIdLin1ELin1ELi0ELin1ELin1EEELin1ELi1ELb1EEELin1ELi1ELb0EEEEELi1ELin1ELb1EEEEEKNS6_IKNS6_INS6_IS8_Lin1ELin1ELb0EEELin1ELin1ELb0EEELin1ELi1ELb1EEEEENS0_10IndexBasedESO_ddE6packetILi0E19__simd128_float64_tEET0_l, symObjAddr: 0x15938, symBinAddr: 0x100018CF0, symSize: 0x70 }
  - { offset: 0x1E4E19, size: 0x8, addend: 0x0, symName: __ZNK5Eigen8internal16binary_evaluatorINS_13CwiseBinaryOpINS0_22scalar_conj_product_opIddEEKNS_9TransposeIKNS_5BlockIKNS5_IKNS6_INS6_INS_6MatrixIdLin1ELin1ELi0ELin1ELin1EEELin1ELi1ELb1EEELin1ELi1ELb0EEEEELi1ELin1ELb1EEEEEKNS6_IKNS6_INS6_IS8_Lin1ELin1ELb0EEELin1ELin1ELb0EEELin1ELi1ELb1EEEEENS0_10IndexBasedESO_ddE5coeffEl, symObjAddr: 0x159A8, symBinAddr: 0x100018D60, symSize: 0x70 }
  - { offset: 0x1E4E4E, size: 0x8, addend: 0x0, symName: __ZN5Eigen8internal18first_aligned_implILi16ENS_13CwiseBinaryOpINS0_22scalar_conj_product_opIddEEKNS_9TransposeIKNS_5BlockIKNS5_IKNS6_INS6_INS_6MatrixIdLin1ELin1ELi0ELin1ELin1EEELin1ELi1ELb1EEELin1ELi1ELb0EEEEELi1ELin1ELb1EEEEEKNS6_IKNS6_INS6_IS8_Lin1ELin1ELb0EEELin1ELin1ELb0EEELin1ELi1ELb1EEEEELb1EE3runERKSN_, symObjAddr: 0x15A40, symBinAddr: 0x100018DF8, symSize: 0x14 }
  - { offset: 0x1E4E6E, size: 0x8, addend: 0x0, symName: __ZNK5Eigen8internal16binary_evaluatorINS_13CwiseBinaryOpINS0_22scalar_conj_product_opIddEEKNS_9TransposeIKNS_5BlockIKNS5_IKNS6_INS6_INS_6MatrixIdLin1ELin1ELi0ELin1ELin1EEELin1ELi1ELb1EEELin1ELi1ELb0EEEEELi1ELin1ELb1EEEEEKNS6_IKNS6_INS6_IS8_Lin1ELin1ELb0EEELin1ELin1ELb0EEELin1ELi1ELb1EEEEENS0_10IndexBasedESO_ddE4Data4funcEv, symObjAddr: 0x15A54, symBinAddr: 0x100018E0C, symSize: 0x14 }
  - { offset: 0x1E4E94, size: 0x8, addend: 0x0, symName: __ZNK5Eigen8internal22scalar_conj_product_opIddE8packetOpI19__simd128_float64_tEET_RKS5_S7_, symObjAddr: 0x15A68, symBinAddr: 0x100018E20, symSize: 0x34 }
  - { offset: 0x1E4EDF, size: 0x8, addend: 0x0, symName: __ZNK5Eigen8internal15unary_evaluatorINS_9TransposeIKNS_5BlockIKNS2_IKNS3_INS3_INS_6MatrixIdLin1ELin1ELi0ELin1ELin1EEELin1ELi1ELb1EEELin1ELi1ELb0EEEEELi1ELin1ELb1EEEEENS0_10IndexBasedEdE6packetILi0E19__simd128_float64_tEET0_l, symObjAddr: 0x15A9C, symBinAddr: 0x100018E54, symSize: 0x2C }
  - { offset: 0x1E4F27, size: 0x8, addend: 0x0, symName: __ZNK5Eigen8internal17mapbase_evaluatorINS_5BlockIKNS2_INS2_INS_6MatrixIdLin1ELin1ELi0ELin1ELin1EEELin1ELin1ELb0EEELin1ELin1ELb0EEELin1ELi1ELb1EEENS3_IdLin1ELi1ELi0ELin1ELi1EEEE6packetILi0E19__simd128_float64_tEET0_l, symObjAddr: 0x15AC8, symBinAddr: 0x100018E80, symSize: 0x54 }
  - { offset: 0x1E4F97, size: 0x8, addend: 0x0, symName: __ZNK5Eigen8internal11conj_helperI19__simd128_float64_tS2_Lb0ELb0EE4pmulERKS2_S5_, symObjAddr: 0x15B1C, symBinAddr: 0x100018ED4, symSize: 0x4C }
  - { offset: 0x1E4FE3, size: 0x8, addend: 0x0, symName: __ZNK5Eigen8internal7conj_ifILb0EE5pconjI19__simd128_float64_tEERKT_S7_, symObjAddr: 0x15B68, symBinAddr: 0x100018F20, symSize: 0x18 }
  - { offset: 0x1E5020, size: 0x8, addend: 0x0, symName: __ZNK5Eigen8internal17mapbase_evaluatorINS_5BlockIKNS_9TransposeIKNS2_INS2_INS_6MatrixIdLin1ELin1ELi0ELin1ELin1EEELin1ELi1ELb1EEELin1ELi1ELb0EEEEELi1ELin1ELb1EEENS4_IdLi1ELin1ELi1ELi1ELin1EEEE6packetILi0E19__simd128_float64_tEET0_l, symObjAddr: 0x15B80, symBinAddr: 0x100018F38, symSize: 0x54 }
  - { offset: 0x1E5086, size: 0x8, addend: 0x0, symName: __ZNK5Eigen8internal22scalar_conj_product_opIddEclERKdS4_, symObjAddr: 0x15BD4, symBinAddr: 0x100018F8C, symSize: 0x34 }
  - { offset: 0x1E50C8, size: 0x8, addend: 0x0, symName: __ZNK5Eigen8internal15unary_evaluatorINS_9TransposeIKNS_5BlockIKNS2_IKNS3_INS3_INS_6MatrixIdLin1ELin1ELi0ELin1ELin1EEELin1ELi1ELb1EEELin1ELi1ELb0EEEEELi1ELin1ELb1EEEEENS0_10IndexBasedEdE5coeffEl, symObjAddr: 0x15C08, symBinAddr: 0x100018FC0, symSize: 0x2C }
  - { offset: 0x1E50FD, size: 0x8, addend: 0x0, symName: __ZNK5Eigen8internal17mapbase_evaluatorINS_5BlockIKNS2_INS2_INS_6MatrixIdLin1ELin1ELi0ELin1ELin1EEELin1ELin1ELb0EEELin1ELin1ELb0EEELin1ELi1ELb1EEENS3_IdLin1ELi1ELi0ELin1ELi1EEEE5coeffEl, symObjAddr: 0x15C34, symBinAddr: 0x100018FEC, symSize: 0x48 }
  - { offset: 0x1E513C, size: 0x8, addend: 0x0, symName: __ZNK5Eigen8internal11conj_helperIddLb0ELb0EE4pmulERKdS4_, symObjAddr: 0x15C7C, symBinAddr: 0x100019034, symSize: 0x4C }
  - { offset: 0x1E517E, size: 0x8, addend: 0x0, symName: __ZNK5Eigen8internal7conj_ifILb0EE5pconjIdEERKT_S6_, symObjAddr: 0x15CF0, symBinAddr: 0x1000190A8, symSize: 0x18 }
  - { offset: 0x1E51BB, size: 0x8, addend: 0x0, symName: __ZNK5Eigen8internal17mapbase_evaluatorINS_5BlockIKNS_9TransposeIKNS2_INS2_INS_6MatrixIdLin1ELin1ELi0ELin1ELin1EEELin1ELi1ELb1EEELin1ELi1ELb0EEEEELi1ELin1ELb1EEENS4_IdLi1ELin1ELi1ELi1ELin1EEEE5coeffEl, symObjAddr: 0x15D08, symBinAddr: 0x1000190C0, symSize: 0x48 }
  - { offset: 0x1E51F0, size: 0x8, addend: 0x0, symName: __ZN5Eigen8internal15redux_evaluatorINS_13CwiseBinaryOpINS0_22scalar_conj_product_opIddEEKNS_9TransposeIKNS_5BlockIKNS5_IKNS6_INS6_INS_6MatrixIdLin1ELin1ELi0ELin1ELin1EEELin1ELi1ELb1EEELin1ELi1ELb0EEEEELi1ELin1ELb1EEEEEKNS6_IKNS6_INS6_IS8_Lin1ELin1ELb0EEELin1ELin1ELb0EEELin1ELi1ELb1EEEEEED2Ev, symObjAddr: 0x15D50, symBinAddr: 0x100019108, symSize: 0x2C }
  - { offset: 0x1E521D, size: 0x8, addend: 0x0, symName: __ZN5Eigen8internal9evaluatorINS_13CwiseBinaryOpINS0_22scalar_conj_product_opIddEEKNS_9TransposeIKNS_5BlockIKNS5_IKNS6_INS6_INS_6MatrixIdLin1ELin1ELi0ELin1ELin1EEELin1ELi1ELb1EEELin1ELi1ELb0EEEEELi1ELin1ELb1EEEEEKNS6_IKNS6_INS6_IS8_Lin1ELin1ELb0EEELin1ELin1ELb0EEELin1ELi1ELb1EEEEEED2Ev, symObjAddr: 0x15D7C, symBinAddr: 0x100019134, symSize: 0x2C }
  - { offset: 0x1E524A, size: 0x8, addend: 0x0, symName: __ZN5Eigen8internal16binary_evaluatorINS_13CwiseBinaryOpINS0_22scalar_conj_product_opIddEEKNS_9TransposeIKNS_5BlockIKNS5_IKNS6_INS6_INS_6MatrixIdLin1ELin1ELi0ELin1ELin1EEELin1ELi1ELb1EEELin1ELi1ELb0EEEEELi1ELin1ELb1EEEEEKNS6_IKNS6_INS6_IS8_Lin1ELin1ELb0EEELin1ELin1ELb0EEELin1ELi1ELb1EEEEENS0_10IndexBasedESO_ddED2Ev, symObjAddr: 0x15DA8, symBinAddr: 0x100019160, symSize: 0x34 }
  - { offset: 0x1E5276, size: 0x8, addend: 0x0, symName: __ZN5Eigen8internal16binary_evaluatorINS_13CwiseBinaryOpINS0_22scalar_conj_product_opIddEEKNS_9TransposeIKNS_5BlockIKNS5_IKNS6_INS6_INS_6MatrixIdLin1ELin1ELi0ELin1ELin1EEELin1ELi1ELb1EEELin1ELi1ELb0EEEEELi1ELin1ELb1EEEEEKNS6_IKNS6_INS6_IS8_Lin1ELin1ELb0EEELin1ELin1ELb0EEELin1ELi1ELb1EEEEENS0_10IndexBasedESO_ddE4DataD1Ev, symObjAddr: 0x15DDC, symBinAddr: 0x100019194, symSize: 0x2C }
  - { offset: 0x1E52A3, size: 0x8, addend: 0x0, symName: __ZN5Eigen8internal16binary_evaluatorINS_13CwiseBinaryOpINS0_22scalar_conj_product_opIddEEKNS_9TransposeIKNS_5BlockIKNS5_IKNS6_INS6_INS_6MatrixIdLin1ELin1ELi0ELin1ELin1EEELin1ELi1ELb1EEELin1ELi1ELb0EEEEELi1ELin1ELb1EEEEEKNS6_IKNS6_INS6_IS8_Lin1ELin1ELb0EEELin1ELin1ELb0EEELin1ELi1ELb1EEEEENS0_10IndexBasedESO_ddE4DataD2Ev, symObjAddr: 0x15E08, symBinAddr: 0x1000191C0, symSize: 0x3C }
  - { offset: 0x1E52D0, size: 0x8, addend: 0x0, symName: __ZN5Eigen8internal9evaluatorIKNS_5BlockIKNS2_INS2_INS_6MatrixIdLin1ELin1ELi0ELin1ELin1EEELin1ELin1ELb0EEELin1ELin1ELb0EEELin1ELi1ELb1EEEED1Ev, symObjAddr: 0x15E44, symBinAddr: 0x1000191FC, symSize: 0x2C }
  - { offset: 0x1E52FC, size: 0x8, addend: 0x0, symName: __ZN5Eigen8internal9evaluatorIKNS_5BlockIKNS2_INS2_INS_6MatrixIdLin1ELin1ELi0ELin1ELin1EEELin1ELin1ELb0EEELin1ELin1ELb0EEELin1ELi1ELb1EEEED2Ev, symObjAddr: 0x15E70, symBinAddr: 0x100019228, symSize: 0x2C }
  - { offset: 0x1E5328, size: 0x8, addend: 0x0, symName: __ZN5Eigen8internal9evaluatorINS_5BlockIKNS2_INS2_INS_6MatrixIdLin1ELin1ELi0ELin1ELin1EEELin1ELin1ELb0EEELin1ELin1ELb0EEELin1ELi1ELb1EEEED2Ev, symObjAddr: 0x15E9C, symBinAddr: 0x100019254, symSize: 0x2C }
  - { offset: 0x1E5355, size: 0x8, addend: 0x0, symName: __ZN5Eigen8internal15block_evaluatorIKNS_5BlockINS2_INS_6MatrixIdLin1ELin1ELi0ELin1ELin1EEELin1ELin1ELb0EEELin1ELin1ELb0EEELin1ELi1ELb1ELb1EED2Ev, symObjAddr: 0x15EC8, symBinAddr: 0x100019280, symSize: 0x2C }
  - { offset: 0x1E5382, size: 0x8, addend: 0x0, symName: __ZN5Eigen5BlockIKNS0_INS0_INS_6MatrixIdLin1ELin1ELi0ELin1ELin1EEELin1ELin1ELb0EEELin1ELin1ELb0EEELin1ELi1ELb1EEC1ERS5_l, symObjAddr: 0x15EF4, symBinAddr: 0x1000192AC, symSize: 0x3C }
  - { offset: 0x1E53C8, size: 0x8, addend: 0x0, symName: __ZN5Eigen5BlockIKNS0_INS0_INS_6MatrixIdLin1ELin1ELi0ELin1ELin1EEELin1ELin1ELb0EEELin1ELin1ELb0EEELin1ELi1ELb1EEC2ERS5_l, symObjAddr: 0x15F30, symBinAddr: 0x1000192E8, symSize: 0xAC }
  - { offset: 0x1E540E, size: 0x8, addend: 0x0, symName: __ZN5Eigen9BlockImplIKNS_5BlockINS1_INS_6MatrixIdLin1ELin1ELi0ELin1ELin1EEELin1ELin1ELb0EEELin1ELin1ELb0EEELin1ELi1ELb1ENS_5DenseEEC2ERS6_l, symObjAddr: 0x15FDC, symBinAddr: 0x100019394, symSize: 0x3C }
  - { offset: 0x1E5454, size: 0x8, addend: 0x0, symName: __ZN5Eigen8internal15BlockImpl_denseIKNS_5BlockINS2_INS_6MatrixIdLin1ELin1ELi0ELin1ELin1EEELin1ELin1ELb0EEELin1ELin1ELb0EEELin1ELi1ELb1ELb1EEC2ERS7_l, symObjAddr: 0x16018, symBinAddr: 0x1000193D0, symSize: 0xB8 }
  - { offset: 0x1E549C, size: 0x8, addend: 0x0, symName: __ZNK5Eigen7MapBaseINS_5BlockINS1_INS_6MatrixIdLin1ELin1ELi0ELin1ELin1EEELin1ELin1ELb0EEELin1ELin1ELb0EEELi1EE4dataEv, symObjAddr: 0x160D0, symBinAddr: 0x100019488, symSize: 0x18 }
  - { offset: 0x1E54C2, size: 0x8, addend: 0x0, symName: __ZN5Eigen7MapBaseINS_5BlockIKNS1_INS1_INS_6MatrixIdLin1ELin1ELi0ELin1ELin1EEELin1ELin1ELb0EEELin1ELin1ELb0EEELin1ELi1ELb1EEELi0EEC2EPKdll, symObjAddr: 0x160E8, symBinAddr: 0x1000194A0, symSize: 0x11C }
  - { offset: 0x1E5516, size: 0x8, addend: 0x0, symName: __ZN5Eigen8internal15BlockImpl_denseIKNS_5BlockINS2_INS_6MatrixIdLin1ELin1ELi0ELin1ELin1EEELin1ELin1ELb0EEELin1ELin1ELb0EEELin1ELi1ELb1ELb1EE4initEv, symObjAddr: 0x16204, symBinAddr: 0x1000195BC, symSize: 0x34 }
  - { offset: 0x1E553C, size: 0x8, addend: 0x0, symName: __ZN5Eigen10MatrixBaseINS_5BlockIKNS1_INS1_INS_6MatrixIdLin1ELin1ELi0ELin1ELin1EEELin1ELin1ELb0EEELin1ELin1ELb0EEELin1ELi1ELb1EEEEC2Ev, symObjAddr: 0x16238, symBinAddr: 0x1000195F0, symSize: 0x2C }
  - { offset: 0x1E5566, size: 0x8, addend: 0x0, symName: __ZNK5Eigen7MapBaseINS_5BlockIKNS1_INS1_INS_6MatrixIdLin1ELin1ELi0ELin1ELin1EEELin1ELin1ELb0EEELin1ELin1ELb0EEELin1ELi1ELb1EEELi0EE11checkSanityIS7_EEvNS_8internal9enable_ifIXeqsr8internal6traitsIT_EE9AlignmentLi0EEPvE4typeE, symObjAddr: 0x16264, symBinAddr: 0x10001961C, symSize: 0x14 }
  - { offset: 0x1E55A0, size: 0x8, addend: 0x0, symName: __ZN5Eigen9DenseBaseINS_5BlockIKNS1_INS1_INS_6MatrixIdLin1ELin1ELi0ELin1ELin1EEELin1ELin1ELb0EEELin1ELin1ELb0EEELin1ELi1ELb1EEEEC2Ev, symObjAddr: 0x16278, symBinAddr: 0x100019630, symSize: 0x14 }
  - { offset: 0x1E55CA, size: 0x8, addend: 0x0, symName: __ZNK5Eigen15DenseCoeffsBaseINS_3MapINS_6MatrixIdLi1ELin1ELi1ELi1ELin1EEELi0ENS_6StrideILi0ELi0EEEEELi3EE9colStrideEv, symObjAddr: 0x1628C, symBinAddr: 0x100019644, symSize: 0x24 }
  - { offset: 0x1E55F0, size: 0x8, addend: 0x0, symName: __ZNK5Eigen15DenseCoeffsBaseINS_3MapINS_6MatrixIdLi1ELin1ELi1ELi1ELin1EEELi0ENS_6StrideILi0ELi0EEEEELi3EE9rowStrideEv, symObjAddr: 0x162B0, symBinAddr: 0x100019668, symSize: 0x24 }
  - { offset: 0x1E5616, size: 0x8, addend: 0x0, symName: __ZNK5Eigen15DenseCoeffsBaseINS_3MapINS_6MatrixIdLi1ELin1ELi1ELi1ELin1EEELi0ENS_6StrideILi0ELi0EEEEELi3EE11innerStrideEv, symObjAddr: 0x162D4, symBinAddr: 0x10001968C, symSize: 0x28 }
  - { offset: 0x1E563C, size: 0x8, addend: 0x0, symName: __ZNK5Eigen15DenseCoeffsBaseINS_3MapINS_6MatrixIdLi1ELin1ELi1ELi1ELin1EEELi0ENS_6StrideILi0ELi0EEEEELi3EE11outerStrideEv, symObjAddr: 0x162FC, symBinAddr: 0x1000196B4, symSize: 0x28 }
  - { offset: 0x1E5662, size: 0x8, addend: 0x0, symName: __ZN5Eigen9TransposeINS_3MapINS_6MatrixIdLi1ELin1ELi1ELi1ELin1EEELi0ENS_6StrideILi0ELi0EEEEEEC1ERS6_, symObjAddr: 0x16324, symBinAddr: 0x1000196DC, symSize: 0x34 }
  - { offset: 0x1E581E, size: 0x8, addend: 0x0, symName: __ZNK5Eigen9DenseBaseINS_5BlockINS1_INS_6MatrixIdLin1ELin1ELi0ELin1ELin1EEELin1ELin1ELb0EEELin1ELin1ELb0EEEE9transposeEv, symObjAddr: 0x1683C, symBinAddr: 0x100019BF4, symSize: 0x34 }
  - { offset: 0x1E5846, size: 0x8, addend: 0x0, symName: __ZNK5Eigen9DenseBaseINS_9TransposeIKNS_5BlockINS2_INS_6MatrixIdLin1ELin1ELi0ELin1ELin1EEELin1ELi1ELb1EEELin1ELi1ELb0EEEEEE9transposeEv, symObjAddr: 0x16870, symBinAddr: 0x100019C28, symSize: 0x34 }
  - { offset: 0x1E586E, size: 0x8, addend: 0x0, symName: __ZN5Eigen9TransposeINS_3MapINS_6MatrixIdLi1ELin1ELi1ELi1ELin1EEELi0ENS_6StrideILi0ELi0EEEEEEC2ERS6_, symObjAddr: 0x168A4, symBinAddr: 0x100019C5C, symSize: 0x3C }
  - { offset: 0x1E58A6, size: 0x8, addend: 0x0, symName: __ZN5Eigen13TransposeImplINS_3MapINS_6MatrixIdLi1ELin1ELi1ELi1ELin1EEELi0ENS_6StrideILi0ELi0EEEEENS_5DenseEEC2Ev, symObjAddr: 0x168E0, symBinAddr: 0x100019C98, symSize: 0x2C }
  - { offset: 0x1E58D0, size: 0x8, addend: 0x0, symName: __ZN5Eigen3MapINS_6MatrixIdLi1ELin1ELi1ELi1ELin1EEELi0ENS_6StrideILi0ELi0EEEEC1ERKS5_, symObjAddr: 0x1690C, symBinAddr: 0x100019CC4, symSize: 0x34 }
  - { offset: 0x1E5905, size: 0x8, addend: 0x0, symName: __ZN5Eigen10MatrixBaseINS_9TransposeINS_3MapINS_6MatrixIdLi1ELin1ELi1ELi1ELin1EEELi0ENS_6StrideILi0ELi0EEEEEEEEC2Ev, symObjAddr: 0x16940, symBinAddr: 0x100019CF8, symSize: 0x2C }
  - { offset: 0x1E592F, size: 0x8, addend: 0x0, symName: __ZN5Eigen9DenseBaseINS_9TransposeINS_3MapINS_6MatrixIdLi1ELin1ELi1ELi1ELin1EEELi0ENS_6StrideILi0ELi0EEEEEEEEC2Ev, symObjAddr: 0x1696C, symBinAddr: 0x100019D24, symSize: 0x14 }
  - { offset: 0x1E5959, size: 0x8, addend: 0x0, symName: __ZN5Eigen3MapINS_6MatrixIdLi1ELin1ELi1ELi1ELin1EEELi0ENS_6StrideILi0ELi0EEEEC2ERKS5_, symObjAddr: 0x16980, symBinAddr: 0x100019D38, symSize: 0x50 }
  - { offset: 0x1E598E, size: 0x8, addend: 0x0, symName: __ZN5Eigen8internal11blas_traitsINS_9TransposeIKNS_5BlockINS3_INS_6MatrixIdLin1ELin1ELi0ELin1ELin1EEELin1ELin1ELb0EEELin1ELin1ELb0EEEEEE7extractERKS9_, symObjAddr: 0x169D0, symBinAddr: 0x100019D88, symSize: 0x38 }
  - { offset: 0x1E59B2, size: 0x8, addend: 0x0, symName: __ZN5Eigen8internal11blas_traitsINS_9TransposeIKNS2_IKNS_5BlockINS3_INS_6MatrixIdLin1ELin1ELi0ELin1ELin1EEELin1ELi1ELb1EEELin1ELi1ELb0EEEEEEEE7extractERKSB_, symObjAddr: 0x16A08, symBinAddr: 0x100019DC0, symSize: 0x40 }
  - { offset: 0x1E59D6, size: 0x8, addend: 0x0, symName: __ZNK5Eigen9EigenBaseINS_9TransposeIKNS1_IKNS_5BlockINS2_INS_6MatrixIdLin1ELin1ELi0ELin1ELin1EEELin1ELi1ELb1EEELin1ELi1ELb0EEEEEEEE4sizeEv, symObjAddr: 0x16A48, symBinAddr: 0x100019E00, symSize: 0x44 }
  - { offset: 0x1E59FC, size: 0x8, addend: 0x0, symName: __ZNK5Eigen13TransposeImplIKNS_9TransposeIKNS_5BlockINS2_INS_6MatrixIdLin1ELin1ELi0ELin1ELin1EEELin1ELi1ELb1EEELin1ELi1ELb0EEEEENS_5DenseEE4dataEv, symObjAddr: 0x16A8C, symBinAddr: 0x100019E44, symSize: 0x2C }
  - { offset: 0x1E5A36, size: 0x8, addend: 0x0, symName: __ZN5Eigen8internal28aligned_stack_memory_handlerIdEC1EPdmb, symObjAddr: 0x16AB8, symBinAddr: 0x100019E70, symSize: 0x50 }
  - { offset: 0x1E5B75, size: 0x8, addend: 0x0, symName: __ZNK5Eigen9TransposeIKNS_5BlockINS1_INS_6MatrixIdLin1ELin1ELi0ELin1ELin1EEELin1ELin1ELb0EEELin1ELin1ELb0EEEE4rowsEv, symObjAddr: 0x182AC, symBinAddr: 0x10001B664, symSize: 0x24 }
  - { offset: 0x1E5B9B, size: 0x8, addend: 0x0, symName: __ZNK5Eigen9TransposeIKNS_5BlockINS1_INS_6MatrixIdLin1ELin1ELi0ELin1ELin1EEELin1ELin1ELb0EEELin1ELin1ELb0EEEE4colsEv, symObjAddr: 0x182D0, symBinAddr: 0x10001B688, symSize: 0x24 }
  - { offset: 0x1E5BC1, size: 0x8, addend: 0x0, symName: __ZNK5Eigen13TransposeImplIKNS_5BlockINS1_INS_6MatrixIdLin1ELin1ELi0ELin1ELin1EEELin1ELin1ELb0EEELin1ELin1ELb0EEENS_5DenseEE4dataEv, symObjAddr: 0x182F4, symBinAddr: 0x10001B6AC, symSize: 0x2C }
  - { offset: 0x1E5BE7, size: 0x8, addend: 0x0, symName: __ZNK5Eigen13TransposeImplIKNS_5BlockINS1_INS_6MatrixIdLin1ELin1ELi0ELin1ELin1EEELin1ELin1ELb0EEELin1ELin1ELb0EEENS_5DenseEE11outerStrideEv, symObjAddr: 0x18320, symBinAddr: 0x10001B6D8, symSize: 0x2C }
  - { offset: 0x1E5C0D, size: 0x8, addend: 0x0, symName: __ZN5Eigen13TransposeImplINS_3MapINS_6MatrixIdLi1ELin1ELi1ELi1ELin1EEELi0ENS_6StrideILi0ELi0EEEEENS_5DenseEE4dataEv, symObjAddr: 0x1834C, symBinAddr: 0x10001B704, symSize: 0x2C }
  - { offset: 0x1E5C33, size: 0x8, addend: 0x0, symName: __ZN5Eigen9DenseBaseINS_9TransposeINS_3MapINS_6MatrixIdLi1ELin1ELi1ELi1ELin1EEELi0ENS_6StrideILi0ELi0EEEEEEEE3colEl, symObjAddr: 0x18378, symBinAddr: 0x10001B730, symSize: 0x40 }
  - { offset: 0x1E5C68, size: 0x8, addend: 0x0, symName: __ZNK5Eigen8internal15BlockImpl_denseINS_9TransposeINS_3MapINS_6MatrixIdLi1ELin1ELi1ELi1ELin1EEELi0ENS_6StrideILi0ELi0EEEEEEELin1ELi1ELb1ELb1EE11innerStrideEv, symObjAddr: 0x183B8, symBinAddr: 0x10001B770, symSize: 0x38 }
  - { offset: 0x1E5C8E, size: 0x8, addend: 0x0, symName: __ZN5Eigen8internal28aligned_stack_memory_handlerIdED1Ev, symObjAddr: 0x183F0, symBinAddr: 0x10001B7A8, symSize: 0x2C }
  - { offset: 0x1E5CB8, size: 0x8, addend: 0x0, symName: __ZN5Eigen8internal11blas_traitsINS_5BlockINS2_INS_6MatrixIdLin1ELin1ELi0ELin1ELin1EEELin1ELin1ELb0EEELin1ELin1ELb0EEEE7extractERKS6_, symObjAddr: 0x1841C, symBinAddr: 0x10001B7D4, symSize: 0x14 }
  - { offset: 0x1E5CDC, size: 0x8, addend: 0x0, symName: __ZNK5Eigen9TransposeIKNS_5BlockINS1_INS_6MatrixIdLin1ELin1ELi0ELin1ELin1EEELin1ELin1ELb0EEELin1ELin1ELb0EEEE16nestedExpressionEv, symObjAddr: 0x18430, symBinAddr: 0x10001B7E8, symSize: 0x14 }
  - { offset: 0x1E5D02, size: 0x8, addend: 0x0, symName: __ZN5Eigen9TransposeIKNS_5BlockINS1_INS_6MatrixIdLin1ELin1ELi0ELin1ELin1EEELin1ELin1ELb0EEELin1ELin1ELb0EEEEC1ERS6_, symObjAddr: 0x18444, symBinAddr: 0x10001B7FC, symSize: 0x34 }
  - { offset: 0x1E5D3A, size: 0x8, addend: 0x0, symName: __ZN5Eigen9TransposeIKNS_5BlockINS1_INS_6MatrixIdLin1ELin1ELi0ELin1ELin1EEELin1ELin1ELb0EEELin1ELin1ELb0EEEEC2ERS6_, symObjAddr: 0x18478, symBinAddr: 0x10001B830, symSize: 0x40 }
  - { offset: 0x1E5D72, size: 0x8, addend: 0x0, symName: __ZN5Eigen13TransposeImplIKNS_5BlockINS1_INS_6MatrixIdLin1ELin1ELi0ELin1ELin1EEELin1ELin1ELb0EEELin1ELin1ELb0EEENS_5DenseEEC2Ev, symObjAddr: 0x184B8, symBinAddr: 0x10001B870, symSize: 0x2C }
  - { offset: 0x1E5D9C, size: 0x8, addend: 0x0, symName: __ZN5Eigen10MatrixBaseINS_9TransposeIKNS_5BlockINS2_INS_6MatrixIdLin1ELin1ELi0ELin1ELin1EEELin1ELin1ELb0EEELin1ELin1ELb0EEEEEEC2Ev, symObjAddr: 0x184E4, symBinAddr: 0x10001B89C, symSize: 0x2C }
  - { offset: 0x1E5DC6, size: 0x8, addend: 0x0, symName: __ZN5Eigen9DenseBaseINS_9TransposeIKNS_5BlockINS2_INS_6MatrixIdLin1ELin1ELi0ELin1ELin1EEELin1ELin1ELb0EEELin1ELin1ELb0EEEEEEC2Ev, symObjAddr: 0x18510, symBinAddr: 0x10001B8C8, symSize: 0x14 }
  - { offset: 0x1E5DF0, size: 0x8, addend: 0x0, symName: __ZN5Eigen8internal11blas_traitsINS_9TransposeIKNS_5BlockINS3_INS_6MatrixIdLin1ELin1ELi0ELin1ELin1EEELin1ELi1ELb1EEELin1ELi1ELb0EEEEEE7extractERKS9_, symObjAddr: 0x18524, symBinAddr: 0x10001B8DC, symSize: 0x38 }
  - { offset: 0x1E5E14, size: 0x8, addend: 0x0, symName: __ZNK5Eigen9TransposeIKNS0_IKNS_5BlockINS1_INS_6MatrixIdLin1ELin1ELi0ELin1ELin1EEELin1ELi1ELb1EEELin1ELi1ELb0EEEEEE16nestedExpressionEv, symObjAddr: 0x1855C, symBinAddr: 0x10001B914, symSize: 0x14 }
  - { offset: 0x1E5E3A, size: 0x8, addend: 0x0, symName: __ZN5Eigen9TransposeIKNS0_IKNS_5BlockINS1_INS_6MatrixIdLin1ELin1ELi0ELin1ELin1EEELin1ELi1ELb1EEELin1ELi1ELb0EEEEEEC1ERS8_, symObjAddr: 0x18570, symBinAddr: 0x10001B928, symSize: 0x34 }
  - { offset: 0x1E5E72, size: 0x8, addend: 0x0, symName: __ZN5Eigen8internal11blas_traitsINS_5BlockINS2_INS_6MatrixIdLin1ELin1ELi0ELin1ELin1EEELin1ELi1ELb1EEELin1ELi1ELb0EEEE7extractERKS6_, symObjAddr: 0x185A4, symBinAddr: 0x10001B95C, symSize: 0x14 }
  - { offset: 0x1E5E96, size: 0x8, addend: 0x0, symName: __ZN5Eigen9TransposeIKNS0_IKNS_5BlockINS1_INS_6MatrixIdLin1ELin1ELi0ELin1ELin1EEELin1ELi1ELb1EEELin1ELi1ELb0EEEEEEC2ERS8_, symObjAddr: 0x185B8, symBinAddr: 0x10001B970, symSize: 0x40 }
  - { offset: 0x1E5ECE, size: 0x8, addend: 0x0, symName: __ZN5Eigen13TransposeImplIKNS_9TransposeIKNS_5BlockINS2_INS_6MatrixIdLin1ELin1ELi0ELin1ELin1EEELin1ELi1ELb1EEELin1ELi1ELb0EEEEENS_5DenseEEC2Ev, symObjAddr: 0x185F8, symBinAddr: 0x10001B9B0, symSize: 0x2C }
  - { offset: 0x1E5EF8, size: 0x8, addend: 0x0, symName: __ZN5Eigen10MatrixBaseINS_9TransposeIKNS1_IKNS_5BlockINS2_INS_6MatrixIdLin1ELin1ELi0ELin1ELin1EEELin1ELi1ELb1EEELin1ELi1ELb0EEEEEEEEC2Ev, symObjAddr: 0x18624, symBinAddr: 0x10001B9DC, symSize: 0x2C }
  - { offset: 0x1E5F22, size: 0x8, addend: 0x0, symName: __ZN5Eigen9DenseBaseINS_9TransposeIKNS1_IKNS_5BlockINS2_INS_6MatrixIdLin1ELin1ELi0ELin1ELin1EEELin1ELi1ELb1EEELin1ELi1ELb0EEEEEEEEC2Ev, symObjAddr: 0x18650, symBinAddr: 0x10001BA08, symSize: 0x14 }
  - { offset: 0x1E5F4C, size: 0x8, addend: 0x0, symName: __ZN5Eigen8internal11blas_traitsINS_9TransposeIKNS_5BlockINS3_INS_6MatrixIdLin1ELin1ELi0ELin1ELin1EEELin1ELin1ELb0EEELin1ELin1ELb0EEEEEE19extractScalarFactorERKS9_, symObjAddr: 0x18664, symBinAddr: 0x10001BA1C, symSize: 0x28 }
  - { offset: 0x1E5F70, size: 0x8, addend: 0x0, symName: __ZN5Eigen8internal11blas_traitsINS_9TransposeIKNS2_IKNS_5BlockINS3_INS_6MatrixIdLin1ELin1ELi0ELin1ELin1EEELin1ELi1ELb1EEELin1ELi1ELb0EEEEEEEE19extractScalarFactorERKSB_, symObjAddr: 0x1868C, symBinAddr: 0x10001BA44, symSize: 0x28 }
  - { offset: 0x1E5F94, size: 0x8, addend: 0x0, symName: __ZN5Eigen8internal11blas_traitsINS_5BlockINS2_INS_6MatrixIdLin1ELin1ELi0ELin1ELin1EEELin1ELin1ELb0EEELin1ELin1ELb0EEEE19extractScalarFactorERKS6_, symObjAddr: 0x186B4, symBinAddr: 0x10001BA6C, symSize: 0x14 }
  - { offset: 0x1E5FB4, size: 0x8, addend: 0x0, symName: __ZN5Eigen8internal11blas_traitsINS_9TransposeIKNS_5BlockINS3_INS_6MatrixIdLin1ELin1ELi0ELin1ELin1EEELin1ELi1ELb1EEELin1ELi1ELb0EEEEEE19extractScalarFactorERKS9_, symObjAddr: 0x186C8, symBinAddr: 0x10001BA80, symSize: 0x28 }
  - { offset: 0x1E5FD8, size: 0x8, addend: 0x0, symName: __ZN5Eigen8internal11blas_traitsINS_5BlockINS2_INS_6MatrixIdLin1ELin1ELi0ELin1ELin1EEELin1ELi1ELb1EEELin1ELi1ELb0EEEE19extractScalarFactorERKS6_, symObjAddr: 0x186F0, symBinAddr: 0x10001BAA8, symSize: 0x14 }
  - { offset: 0x1E5FF8, size: 0x8, addend: 0x0, symName: __ZNK5Eigen9EigenBaseINS_9TransposeIKNS1_IKNS_5BlockINS2_INS_6MatrixIdLin1ELin1ELi0ELin1ELin1EEELin1ELi1ELb1EEELin1ELi1ELb0EEEEEEEE4rowsEv, symObjAddr: 0x18704, symBinAddr: 0x10001BABC, symSize: 0x38 }
  - { offset: 0x1E601E, size: 0x8, addend: 0x0, symName: __ZNK5Eigen9EigenBaseINS_9TransposeIKNS1_IKNS_5BlockINS2_INS_6MatrixIdLin1ELin1ELi0ELin1ELin1EEELin1ELi1ELb1EEELin1ELi1ELb0EEEEEEEE4colsEv, symObjAddr: 0x1873C, symBinAddr: 0x10001BAF4, symSize: 0x28 }
  - { offset: 0x1E6044, size: 0x8, addend: 0x0, symName: __ZNK5Eigen9EigenBaseINS_9TransposeIKNS1_IKNS_5BlockINS2_INS_6MatrixIdLin1ELin1ELi0ELin1ELin1EEELin1ELi1ELb1EEELin1ELi1ELb0EEEEEEEE7derivedEv, symObjAddr: 0x18764, symBinAddr: 0x10001BB1C, symSize: 0x14 }
  - { offset: 0x1E606A, size: 0x8, addend: 0x0, symName: __ZNK5Eigen9TransposeIKNS0_IKNS_5BlockINS1_INS_6MatrixIdLin1ELin1ELi0ELin1ELin1EEELin1ELi1ELb1EEELin1ELi1ELb0EEEEEE4rowsEv, symObjAddr: 0x18778, symBinAddr: 0x10001BB30, symSize: 0x24 }
  - { offset: 0x1E6090, size: 0x8, addend: 0x0, symName: __ZNK5Eigen9TransposeIKNS0_IKNS_5BlockINS1_INS_6MatrixIdLin1ELin1ELi0ELin1ELin1EEELin1ELi1ELb1EEELin1ELi1ELb0EEEEEE4colsEv, symObjAddr: 0x1879C, symBinAddr: 0x10001BB54, symSize: 0x24 }
  - { offset: 0x1E60B6, size: 0x8, addend: 0x0, symName: __ZN5Eigen8internal28aligned_stack_memory_handlerIdEC2EPdmb, symObjAddr: 0x187C0, symBinAddr: 0x10001BB78, symSize: 0x5C }
  - { offset: 0x1E610D, size: 0x8, addend: 0x0, symName: __ZN5Eigen8internal11noncopyableC2Ev, symObjAddr: 0x1881C, symBinAddr: 0x10001BBD4, symSize: 0x14 }
  - { offset: 0x1E6137, size: 0x8, addend: 0x0, symName: __ZNK5Eigen8internal16blas_data_mapperIKdlLi1ELi0ELi1EE6strideEv, symObjAddr: 0x18830, symBinAddr: 0x10001BBE8, symSize: 0x18 }
  - { offset: 0x1E615D, size: 0x8, addend: 0x0, symName: __ZNK5Eigen8internal11conj_helperI19__simd128_float64_tS2_Lb0ELb0EE5pmaddERKS2_S5_S5_, symObjAddr: 0x18848, symBinAddr: 0x10001BC00, symSize: 0x54 }
  - { offset: 0x1E61AD, size: 0x8, addend: 0x0, symName: __ZNK5Eigen9EigenBaseINS_9TransposeIKNS_5BlockINS2_INS_6MatrixIdLin1ELin1ELi0ELin1ELin1EEELin1ELin1ELb0EEELin1ELin1ELb0EEEEEE7derivedEv, symObjAddr: 0x188F0, symBinAddr: 0x10001BCA8, symSize: 0x14 }
  - { offset: 0x1E61D3, size: 0x8, addend: 0x0, symName: __ZN5Eigen9EigenBaseINS_9TransposeINS_3MapINS_6MatrixIdLi1ELin1ELi1ELi1ELin1EEELi0ENS_6StrideILi0ELi0EEEEEEEE7derivedEv, symObjAddr: 0x18904, symBinAddr: 0x10001BCBC, symSize: 0x14 }
  - { offset: 0x1E61F9, size: 0x8, addend: 0x0, symName: __ZN5Eigen9TransposeINS_3MapINS_6MatrixIdLi1ELin1ELi1ELi1ELin1EEELi0ENS_6StrideILi0ELi0EEEEEE16nestedExpressionEv, symObjAddr: 0x18918, symBinAddr: 0x10001BCD0, symSize: 0x14 }
  - { offset: 0x1E621F, size: 0x8, addend: 0x0, symName: __ZN5Eigen5BlockINS_9TransposeINS_3MapINS_6MatrixIdLi1ELin1ELi1ELi1ELin1EEELi0ENS_6StrideILi0ELi0EEEEEEELin1ELi1ELb1EEC1ERS8_l, symObjAddr: 0x1892C, symBinAddr: 0x10001BCE4, symSize: 0x3C }
  - { offset: 0x1E6265, size: 0x8, addend: 0x0, symName: __ZN5Eigen5BlockINS_9TransposeINS_3MapINS_6MatrixIdLi1ELin1ELi1ELi1ELin1EEELi0ENS_6StrideILi0ELi0EEEEEEELin1ELi1ELb1EEC2ERS8_l, symObjAddr: 0x18968, symBinAddr: 0x10001BD20, symSize: 0xAC }
  - { offset: 0x1E62AB, size: 0x8, addend: 0x0, symName: __ZN5Eigen9BlockImplINS_9TransposeINS_3MapINS_6MatrixIdLi1ELin1ELi1ELi1ELin1EEELi0ENS_6StrideILi0ELi0EEEEEEELin1ELi1ELb1ENS_5DenseEEC2ERS8_l, symObjAddr: 0x18A14, symBinAddr: 0x10001BDCC, symSize: 0x3C }
  - { offset: 0x1E62F1, size: 0x8, addend: 0x0, symName: __ZNK5Eigen9TransposeINS_3MapINS_6MatrixIdLi1ELin1ELi1ELi1ELin1EEELi0ENS_6StrideILi0ELi0EEEEEE4colsEv, symObjAddr: 0x18A50, symBinAddr: 0x10001BE08, symSize: 0x24 }
  - { offset: 0x1E6317, size: 0x8, addend: 0x0, symName: __ZN5Eigen8internal15BlockImpl_denseINS_9TransposeINS_3MapINS_6MatrixIdLi1ELin1ELi1ELi1ELin1EEELi0ENS_6StrideILi0ELi0EEEEEEELin1ELi1ELb1ELb1EEC2ERS9_l, symObjAddr: 0x18A74, symBinAddr: 0x10001BE2C, symSize: 0xB4 }
  - { offset: 0x1E635F, size: 0x8, addend: 0x0, symName: __ZNK5Eigen13TransposeImplINS_3MapINS_6MatrixIdLi1ELin1ELi1ELi1ELin1EEELi0ENS_6StrideILi0ELi0EEEEENS_5DenseEE11outerStrideEv, symObjAddr: 0x18B28, symBinAddr: 0x10001BEE0, symSize: 0x2C }
  - { offset: 0x1E6385, size: 0x8, addend: 0x0, symName: __ZNK5Eigen9TransposeINS_3MapINS_6MatrixIdLi1ELin1ELi1ELi1ELin1EEELi0ENS_6StrideILi0ELi0EEEEEE4rowsEv, symObjAddr: 0x18B54, symBinAddr: 0x10001BF0C, symSize: 0x24 }
  - { offset: 0x1E63AB, size: 0x8, addend: 0x0, symName: __ZN5Eigen7MapBaseINS_5BlockINS_9TransposeINS_3MapINS_6MatrixIdLi1ELin1ELi1ELi1ELin1EEELi0ENS_6StrideILi0ELi0EEEEEEELin1ELi1ELb1EEELi1EEC2EPdll, symObjAddr: 0x18B78, symBinAddr: 0x10001BF30, symSize: 0x44 }
  - { offset: 0x1E6402, size: 0x8, addend: 0x0, symName: __ZN5Eigen9TransposeINS_3MapINS_6MatrixIdLi1ELin1ELi1ELi1ELin1EEELi0ENS_6StrideILi0ELi0EEEEEEC1ERKS7_, symObjAddr: 0x18BBC, symBinAddr: 0x10001BF74, symSize: 0x34 }
  - { offset: 0x1E6437, size: 0x8, addend: 0x0, symName: __ZN5Eigen8internal15BlockImpl_denseINS_9TransposeINS_3MapINS_6MatrixIdLi1ELin1ELi1ELi1ELin1EEELi0ENS_6StrideILi0ELi0EEEEEEELin1ELi1ELb1ELb1EE4initEv, symObjAddr: 0x18BF0, symBinAddr: 0x10001BFA8, symSize: 0x34 }
  - { offset: 0x1E645D, size: 0x8, addend: 0x0, symName: __ZNK5Eigen9EigenBaseINS_9TransposeINS_3MapINS_6MatrixIdLi1ELin1ELi1ELi1ELin1EEELi0ENS_6StrideILi0ELi0EEEEEEEE7derivedEv, symObjAddr: 0x18C24, symBinAddr: 0x10001BFDC, symSize: 0x14 }
  - { offset: 0x1E6483, size: 0x8, addend: 0x0, symName: __ZNK5Eigen9TransposeINS_3MapINS_6MatrixIdLi1ELin1ELi1ELi1ELin1EEELi0ENS_6StrideILi0ELi0EEEEEE16nestedExpressionEv, symObjAddr: 0x18C38, symBinAddr: 0x10001BFF0, symSize: 0x14 }
  - { offset: 0x1E64A9, size: 0x8, addend: 0x0, symName: __ZN5Eigen7MapBaseINS_5BlockINS_9TransposeINS_3MapINS_6MatrixIdLi1ELin1ELi1ELi1ELin1EEELi0ENS_6StrideILi0ELi0EEEEEEELin1ELi1ELb1EEELi0EEC2EPdll, symObjAddr: 0x18C4C, symBinAddr: 0x10001C004, symSize: 0x11C }
  - { offset: 0x1E64FD, size: 0x8, addend: 0x0, symName: __ZN5Eigen10MatrixBaseINS_5BlockINS_9TransposeINS_3MapINS_6MatrixIdLi1ELin1ELi1ELi1ELin1EEELi0ENS_6StrideILi0ELi0EEEEEEELin1ELi1ELb1EEEEC2Ev, symObjAddr: 0x18D68, symBinAddr: 0x10001C120, symSize: 0x2C }
  - { offset: 0x1E6527, size: 0x8, addend: 0x0, symName: __ZNK5Eigen7MapBaseINS_5BlockINS_9TransposeINS_3MapINS_6MatrixIdLi1ELin1ELi1ELi1ELin1EEELi0ENS_6StrideILi0ELi0EEEEEEELin1ELi1ELb1EEELi0EE11checkSanityISA_EEvNS_8internal9enable_ifIXeqsr8internal6traitsIT_EE9AlignmentLi0EEPvE4typeE, symObjAddr: 0x18D94, symBinAddr: 0x10001C14C, symSize: 0x14 }
  - { offset: 0x1E6561, size: 0x8, addend: 0x0, symName: __ZN5Eigen9DenseBaseINS_5BlockINS_9TransposeINS_3MapINS_6MatrixIdLi1ELin1ELi1ELi1ELin1EEELi0ENS_6StrideILi0ELi0EEEEEEELin1ELi1ELb1EEEEC2Ev, symObjAddr: 0x18DA8, symBinAddr: 0x10001C160, symSize: 0x14 }
  - { offset: 0x1E658B, size: 0x8, addend: 0x0, symName: __ZN5Eigen9TransposeINS_3MapINS_6MatrixIdLi1ELin1ELi1ELi1ELin1EEELi0ENS_6StrideILi0ELi0EEEEEEC2ERKS7_, symObjAddr: 0x18DBC, symBinAddr: 0x10001C174, symSize: 0x34 }
  - { offset: 0x1E65C0, size: 0x8, addend: 0x0, symName: __ZNK5Eigen13TransposeImplINS_3MapINS_6MatrixIdLi1ELin1ELi1ELi1ELin1EEELi0ENS_6StrideILi0ELi0EEEEENS_5DenseEE11innerStrideEv, symObjAddr: 0x18DF0, symBinAddr: 0x10001C1A8, symSize: 0x2C }
  - { offset: 0x1E65E6, size: 0x8, addend: 0x0, symName: __ZN5Eigen8internal28aligned_stack_memory_handlerIdED2Ev, symObjAddr: 0x18E1C, symBinAddr: 0x10001C1D4, symSize: 0x5C }
  - { offset: 0x1E6610, size: 0x8, addend: 0x0, symName: __ZN5Eigen8internal11noncopyableD2Ev, symObjAddr: 0x18E78, symBinAddr: 0x10001C230, symSize: 0x14 }
  - { offset: 0x1E663A, size: 0x8, addend: 0x0, symName: __ZN5Eigen5BlockINS0_INS_6MatrixIdLin1ELin1ELi0ELin1ELin1EEELin1ELin1ELb0EEELi1ELin1ELb0EEC1ERS3_l, symObjAddr: 0x18E8C, symBinAddr: 0x10001C244, symSize: 0x3C }
  - { offset: 0x1E6680, size: 0x8, addend: 0x0, symName: __ZN5Eigen5BlockINS0_INS_6MatrixIdLin1ELin1ELi0ELin1ELin1EEELin1ELin1ELb0EEELi1ELin1ELb0EEC2ERS3_l, symObjAddr: 0x18EC8, symBinAddr: 0x10001C280, symSize: 0xCC }
  - { offset: 0x1E66C6, size: 0x8, addend: 0x0, symName: __ZN5Eigen9BlockImplINS_5BlockINS_6MatrixIdLin1ELin1ELi0ELin1ELin1EEELin1ELin1ELb0EEELi1ELin1ELb0ENS_5DenseEEC2ERS4_l, symObjAddr: 0x18F94, symBinAddr: 0x10001C34C, symSize: 0x3C }
  - { offset: 0x1E670C, size: 0x8, addend: 0x0, symName: __ZN5Eigen8internal15BlockImpl_denseINS_5BlockINS_6MatrixIdLin1ELin1ELi0ELin1ELin1EEELin1ELin1ELb0EEELi1ELin1ELb0ELb1EEC2ERS5_l, symObjAddr: 0x18FD0, symBinAddr: 0x10001C388, symSize: 0xB8 }
  - { offset: 0x1E6754, size: 0x8, addend: 0x0, symName: __ZN5Eigen7MapBaseINS_5BlockINS1_INS_6MatrixIdLin1ELin1ELi0ELin1ELin1EEELin1ELin1ELb0EEELi1ELin1ELb0EEELi1EEC2EPdll, symObjAddr: 0x19088, symBinAddr: 0x10001C440, symSize: 0x44 }
  - { offset: 0x1E67AB, size: 0x8, addend: 0x0, symName: __ZN5Eigen8internal15BlockImpl_denseINS_5BlockINS_6MatrixIdLin1ELin1ELi0ELin1ELin1EEELin1ELin1ELb0EEELi1ELin1ELb0ELb1EE4initEv, symObjAddr: 0x190CC, symBinAddr: 0x10001C484, symSize: 0x34 }
  - { offset: 0x1E67D1, size: 0x8, addend: 0x0, symName: __ZN5Eigen7MapBaseINS_5BlockINS1_INS_6MatrixIdLin1ELin1ELi0ELin1ELin1EEELin1ELin1ELb0EEELi1ELin1ELb0EEELi0EEC2EPdll, symObjAddr: 0x19100, symBinAddr: 0x10001C4B8, symSize: 0x130 }
  - { offset: 0x1E6825, size: 0x8, addend: 0x0, symName: __ZN5Eigen10MatrixBaseINS_5BlockINS1_INS_6MatrixIdLin1ELin1ELi0ELin1ELin1EEELin1ELin1ELb0EEELi1ELin1ELb0EEEEC2Ev, symObjAddr: 0x19230, symBinAddr: 0x10001C5E8, symSize: 0x2C }
  - { offset: 0x1E684F, size: 0x8, addend: 0x0, symName: __ZNK5Eigen7MapBaseINS_5BlockINS1_INS_6MatrixIdLin1ELin1ELi0ELin1ELin1EEELin1ELin1ELb0EEELi1ELin1ELb0EEELi0EE11checkSanityIS5_EEvNS_8internal9enable_ifIXeqsr8internal6traitsIT_EE9AlignmentLi0EEPvE4typeE, symObjAddr: 0x1925C, symBinAddr: 0x10001C614, symSize: 0x14 }
  - { offset: 0x1E6889, size: 0x8, addend: 0x0, symName: __ZN5Eigen9DenseBaseINS_5BlockINS1_INS_6MatrixIdLin1ELin1ELi0ELin1ELin1EEELin1ELin1ELb0EEELi1ELin1ELb0EEEEC2Ev, symObjAddr: 0x19270, symBinAddr: 0x10001C628, symSize: 0x14 }
  - { offset: 0x1E68B3, size: 0x8, addend: 0x0, symName: __ZNK5Eigen9EigenBaseINS_5BlockINS1_INS_6MatrixIdLin1ELin1ELi0ELin1ELin1EEELin1ELin1ELb0EEELi1ELin1ELb0EEEE7derivedEv, symObjAddr: 0x192BC, symBinAddr: 0x10001C674, symSize: 0x14 }
  - { offset: 0x1E68D9, size: 0x8, addend: 0x0, symName: __ZN5Eigen8internal13add_assign_opIddEC1Ev, symObjAddr: 0x192D0, symBinAddr: 0x10001C688, symSize: 0x2C }
  - { offset: 0x1E6903, size: 0x8, addend: 0x0, symName: __ZN5Eigen8internal10AssignmentINS_3MapINS_6MatrixIdLi1ELin1ELi1ELi1ELin1EEELi0ENS_6StrideILi0ELi0EEEEENS_5BlockINS8_INS3_IdLin1ELin1ELi0ELin1ELin1EEELin1ELin1ELb0EEELi1ELin1ELb0EEENS0_13add_assign_opIddEENS0_11Dense2DenseEvE3runERS7_RKSB_RKSD_, symObjAddr: 0x19338, symBinAddr: 0x10001C6F0, symSize: 0x40 }
  - { offset: 0x1E6963, size: 0x8, addend: 0x0, symName: __ZN5Eigen8internal9evaluatorINS_5BlockINS2_INS_6MatrixIdLin1ELin1ELi0ELin1ELin1EEELin1ELin1ELb0EEELi1ELin1ELb0EEEEC1ERKS6_, symObjAddr: 0x19464, symBinAddr: 0x10001C81C, symSize: 0x34 }
  - { offset: 0x1E69C9, size: 0x8, addend: 0x0, symName: __ZN5Eigen8internal31generic_dense_assignment_kernelINS0_9evaluatorINS_3MapINS_6MatrixIdLi1ELin1ELi1ELi1ELin1EEELi0ENS_6StrideILi0ELi0EEEEEEENS2_INS_5BlockINSA_INS4_IdLin1ELin1ELi0ELin1ELin1EEELin1ELin1ELb0EEELi1ELin1ELb0EEEEENS0_13add_assign_opIddEELi0EEC1ERS9_RKSE_RKSG_RS8_, symObjAddr: 0x1954C, symBinAddr: 0x10001C904, symSize: 0x4C }
  - { offset: 0x1E6A34, size: 0x8, addend: 0x0, symName: __ZN5Eigen8internal21dense_assignment_loopINS0_31generic_dense_assignment_kernelINS0_9evaluatorINS_3MapINS_6MatrixIdLi1ELin1ELi1ELi1ELin1EEELi0ENS_6StrideILi0ELi0EEEEEEENS3_INS_5BlockINSB_INS5_IdLin1ELin1ELi0ELin1ELin1EEELin1ELin1ELb0EEELi1ELin1ELb0EEEEENS0_13add_assign_opIddEELi0EEELi1ELi0EE3runERSI_, symObjAddr: 0x19598, symBinAddr: 0x10001C950, symSize: 0x68 }
  - { offset: 0x1E6A84, size: 0x8, addend: 0x0, symName: __ZN5Eigen8internal9evaluatorINS_5BlockINS2_INS_6MatrixIdLin1ELin1ELi0ELin1ELin1EEELin1ELin1ELb0EEELi1ELin1ELb0EEEED1Ev, symObjAddr: 0x19600, symBinAddr: 0x10001C9B8, symSize: 0x2C }
  - { offset: 0x1E6AB1, size: 0x8, addend: 0x0, symName: __ZN5Eigen8internal9evaluatorINS_5BlockINS2_INS_6MatrixIdLin1ELin1ELi0ELin1ELin1EEELin1ELin1ELb0EEELi1ELin1ELb0EEEEC2ERKS6_, symObjAddr: 0x1962C, symBinAddr: 0x10001C9E4, symSize: 0x34 }
  - { offset: 0x1E6AEA, size: 0x8, addend: 0x0, symName: __ZN5Eigen8internal15block_evaluatorINS_5BlockINS_6MatrixIdLin1ELin1ELi0ELin1ELin1EEELin1ELin1ELb0EEELi1ELin1ELb0ELb1EEC2ERKNS2_IS5_Li1ELin1ELb0EEE, symObjAddr: 0x19660, symBinAddr: 0x10001CA18, symSize: 0xDC }
  - { offset: 0x1E6B23, size: 0x8, addend: 0x0, symName: __ZN5Eigen8internal17mapbase_evaluatorINS_5BlockINS2_INS_6MatrixIdLin1ELin1ELi0ELin1ELin1EEELin1ELin1ELb0EEELi1ELin1ELb0EEENS3_IdLi1ELin1ELi1ELi1ELin1EEEEC2ERKS6_, symObjAddr: 0x1973C, symBinAddr: 0x10001CAF4, symSize: 0xB0 }
  - { offset: 0x1E6B5C, size: 0x8, addend: 0x0, symName: __ZNK5Eigen7MapBaseINS_5BlockINS1_INS_6MatrixIdLin1ELin1ELi0ELin1ELin1EEELin1ELin1ELb0EEELi1ELin1ELb0EEELi1EE4dataEv, symObjAddr: 0x197EC, symBinAddr: 0x10001CBA4, symSize: 0x18 }
  - { offset: 0x1E6B82, size: 0x8, addend: 0x0, symName: __ZN5Eigen8internal17mapbase_evaluatorINS_5BlockINS2_INS_6MatrixIdLin1ELin1ELi0ELin1ELin1EEELin1ELin1ELb0EEELi1ELin1ELb0EEENS3_IdLi1ELin1ELi1ELi1ELin1EEEED2Ev, symObjAddr: 0x19804, symBinAddr: 0x10001CBBC, symSize: 0x2C }
  - { offset: 0x1E6BAF, size: 0x8, addend: 0x0, symName: __ZN5Eigen8internal14evaluator_baseINS_5BlockINS2_INS_6MatrixIdLin1ELin1ELi0ELin1ELin1EEELin1ELin1ELb0EEELi1ELin1ELb0EEEEC2Ev, symObjAddr: 0x19830, symBinAddr: 0x10001CBE8, symSize: 0x14 }
  - { offset: 0x1E6BD9, size: 0x8, addend: 0x0, symName: __ZNK5Eigen8internal15BlockImpl_denseINS_5BlockINS_6MatrixIdLin1ELin1ELi0ELin1ELin1EEELin1ELin1ELb0EEELi1ELin1ELb0ELb1EE11innerStrideEv, symObjAddr: 0x19844, symBinAddr: 0x10001CBFC, symSize: 0x28 }
  - { offset: 0x1E6BFF, size: 0x8, addend: 0x0, symName: __ZNK5Eigen8internal15BlockImpl_denseINS_5BlockINS_6MatrixIdLin1ELin1ELi0ELin1ELin1EEELin1ELin1ELb0EEELi1ELin1ELb0ELb1EE11outerStrideEv, symObjAddr: 0x1986C, symBinAddr: 0x10001CC24, symSize: 0x28 }
  - { offset: 0x1E6C25, size: 0x8, addend: 0x0, symName: __ZN5Eigen8internal14evaluator_baseINS_5BlockINS2_INS_6MatrixIdLin1ELin1ELi0ELin1ELin1EEELin1ELin1ELb0EEELi1ELin1ELb0EEEED2Ev, symObjAddr: 0x19894, symBinAddr: 0x10001CC4C, symSize: 0x14 }
  - { offset: 0x1E6C4F, size: 0x8, addend: 0x0, symName: __ZNK5Eigen7MapBaseINS_5BlockINS1_INS_6MatrixIdLin1ELin1ELi0ELin1ELin1EEELin1ELin1ELb0EEELi1ELin1ELb0EEELi0EE4rowsEv, symObjAddr: 0x198A8, symBinAddr: 0x10001CC60, symSize: 0x20 }
  - { offset: 0x1E6C75, size: 0x8, addend: 0x0, symName: __ZNK5Eigen7MapBaseINS_5BlockINS1_INS_6MatrixIdLin1ELin1ELi0ELin1ELin1EEELin1ELin1ELb0EEELi1ELin1ELb0EEELi0EE4colsEv, symObjAddr: 0x198C8, symBinAddr: 0x10001CC80, symSize: 0x28 }
  - { offset: 0x1E6C9B, size: 0x8, addend: 0x0, symName: __ZN5Eigen8internal31generic_dense_assignment_kernelINS0_9evaluatorINS_3MapINS_6MatrixIdLi1ELin1ELi1ELi1ELin1EEELi0ENS_6StrideILi0ELi0EEEEEEENS2_INS_5BlockINSA_INS4_IdLin1ELin1ELi0ELin1ELin1EEELin1ELin1ELb0EEELi1ELin1ELb0EEEEENS0_13add_assign_opIddEELi0EEC2ERS9_RKSE_RKSG_RS8_, symObjAddr: 0x198F0, symBinAddr: 0x10001CCA8, symSize: 0x44 }
  - { offset: 0x1E6D01, size: 0x8, addend: 0x0, symName: __ZNK5Eigen8internal31generic_dense_assignment_kernelINS0_9evaluatorINS_3MapINS_6MatrixIdLi1ELin1ELi1ELi1ELin1EEELi0ENS_6StrideILi0ELi0EEEEEEENS2_INS_5BlockINSA_INS4_IdLin1ELin1ELi0ELin1ELin1EEELin1ELin1ELb0EEELi1ELin1ELb0EEEEENS0_13add_assign_opIddEELi0EE4sizeEv, symObjAddr: 0x19934, symBinAddr: 0x10001CCEC, symSize: 0x28 }
  - { offset: 0x1E6D27, size: 0x8, addend: 0x0, symName: __ZN5Eigen8internal31generic_dense_assignment_kernelINS0_9evaluatorINS_3MapINS_6MatrixIdLi1ELin1ELi1ELi1ELin1EEELi0ENS_6StrideILi0ELi0EEEEEEENS2_INS_5BlockINSA_INS4_IdLin1ELin1ELi0ELin1ELin1EEELin1ELin1ELb0EEELi1ELin1ELb0EEEEENS0_13add_assign_opIddEELi0EE11assignCoeffEl, symObjAddr: 0x1995C, symBinAddr: 0x10001CD14, symSize: 0x60 }
  - { offset: 0x1E6D5C, size: 0x8, addend: 0x0, symName: __ZNK5Eigen8internal13add_assign_opIddE11assignCoeffERdRKd, symObjAddr: 0x199BC, symBinAddr: 0x10001CD74, symSize: 0x30 }
  - { offset: 0x1E6D9E, size: 0x8, addend: 0x0, symName: __ZNK5Eigen8internal17mapbase_evaluatorINS_5BlockINS2_INS_6MatrixIdLin1ELin1ELi0ELin1ELin1EEELin1ELin1ELb0EEELi1ELin1ELb0EEENS3_IdLi1ELin1ELi1ELi1ELin1EEEE5coeffEl, symObjAddr: 0x199EC, symBinAddr: 0x10001CDA4, symSize: 0x4C }
  - { offset: 0x1E6DD3, size: 0x8, addend: 0x0, symName: __ZN5Eigen8internal9evaluatorINS_5BlockINS2_INS_6MatrixIdLin1ELin1ELi0ELin1ELin1EEELin1ELin1ELb0EEELi1ELin1ELb0EEEED2Ev, symObjAddr: 0x19A38, symBinAddr: 0x10001CDF0, symSize: 0x2C }
  - { offset: 0x1E6E00, size: 0x8, addend: 0x0, symName: __ZN5Eigen8internal15block_evaluatorINS_5BlockINS_6MatrixIdLin1ELin1ELi0ELin1ELin1EEELin1ELin1ELb0EEELi1ELin1ELb0ELb1EED2Ev, symObjAddr: 0x19A64, symBinAddr: 0x10001CE1C, symSize: 0x2C }
  - { offset: 0x1E6E2D, size: 0x8, addend: 0x0, symName: __ZN5Eigen8internal13add_assign_opIddEC2Ev, symObjAddr: 0x19A90, symBinAddr: 0x10001CE48, symSize: 0x14 }
  - { offset: 0x1E6E57, size: 0x8, addend: 0x0, symName: __ZN5Eigen14CwiseNullaryOpINS_8internal18scalar_constant_opIdEEKNS_6MatrixIdLi1ELin1ELi1ELi1ELin1EEEEC1EllRKS3_, symObjAddr: 0x19AA4, symBinAddr: 0x10001CE5C, symSize: 0x44 }
  - { offset: 0x1E6EAB, size: 0x8, addend: 0x0, symName: __ZN5Eigen8internal17scalar_product_opIddEC1Ev, symObjAddr: 0x19AE8, symBinAddr: 0x10001CEA0, symSize: 0x2C }
  - { offset: 0x1E6ED5, size: 0x8, addend: 0x0, symName: __ZN5Eigen13CwiseBinaryOpINS_8internal17scalar_product_opIddEEKNS_14CwiseNullaryOpINS1_18scalar_constant_opIdEEKNS_6MatrixIdLi1ELin1ELi1ELi1ELin1EEEEEKNS_3MapIS8_Li0ENS_6StrideILi0ELi0EEEEEEC1ERSB_RSG_RKS3_, symObjAddr: 0x19B14, symBinAddr: 0x10001CECC, symSize: 0x44 }
  - { offset: 0x1E6F29, size: 0x8, addend: 0x0, symName: __ZN5Eigen14CwiseNullaryOpINS_8internal18scalar_constant_opIdEEKNS_6MatrixIdLi1ELin1ELi1ELi1ELin1EEEEC2EllRKS3_, symObjAddr: 0x19B58, symBinAddr: 0x10001CF10, symSize: 0xFC }
  - { offset: 0x1E6F7D, size: 0x8, addend: 0x0, symName: __ZN5Eigen10MatrixBaseINS_14CwiseNullaryOpINS_8internal18scalar_constant_opIdEEKNS_6MatrixIdLi1ELin1ELi1ELi1ELin1EEEEEEC2Ev, symObjAddr: 0x19C54, symBinAddr: 0x10001D00C, symSize: 0x2C }
  - { offset: 0x1E6FA7, size: 0x8, addend: 0x0, symName: __ZN5Eigen9DenseBaseINS_14CwiseNullaryOpINS_8internal18scalar_constant_opIdEEKNS_6MatrixIdLi1ELin1ELi1ELi1ELin1EEEEEEC2Ev, symObjAddr: 0x19C80, symBinAddr: 0x10001D038, symSize: 0x14 }
  - { offset: 0x1E6FD1, size: 0x8, addend: 0x0, symName: __ZN5Eigen8internal17scalar_product_opIddEC2Ev, symObjAddr: 0x19C94, symBinAddr: 0x10001D04C, symSize: 0x14 }
  - { offset: 0x1E6FFB, size: 0x8, addend: 0x0, symName: __ZN5Eigen13CwiseBinaryOpINS_8internal17scalar_product_opIddEEKNS_14CwiseNullaryOpINS1_18scalar_constant_opIdEEKNS_6MatrixIdLi1ELin1ELi1ELi1ELin1EEEEEKNS_3MapIS8_Li0ENS_6StrideILi0ELi0EEEEEEC2ERSB_RSG_RKS3_, symObjAddr: 0x19CA8, symBinAddr: 0x10001D060, symSize: 0xFC }
  - { offset: 0x1E7054, size: 0x8, addend: 0x0, symName: __ZN5Eigen17CwiseBinaryOpImplINS_8internal17scalar_product_opIddEEKNS_14CwiseNullaryOpINS1_18scalar_constant_opIdEEKNS_6MatrixIdLi1ELin1ELi1ELi1ELin1EEEEEKNS_3MapIS8_Li0ENS_6StrideILi0ELi0EEEEENS_5DenseEEC2Ev, symObjAddr: 0x19DA4, symBinAddr: 0x10001D15C, symSize: 0x2C }
  - { offset: 0x1E7080, size: 0x8, addend: 0x0, symName: __ZN5Eigen14CwiseNullaryOpINS_8internal18scalar_constant_opIdEEKNS_6MatrixIdLi1ELin1ELi1ELi1ELin1EEEEC1ERKS7_, symObjAddr: 0x19DD0, symBinAddr: 0x10001D188, symSize: 0x34 }
  - { offset: 0x1E70B5, size: 0x8, addend: 0x0, symName: __ZN5Eigen8internal17scalar_product_opIddEC1ERKS2_, symObjAddr: 0x19E04, symBinAddr: 0x10001D1BC, symSize: 0x34 }
  - { offset: 0x1E70EA, size: 0x8, addend: 0x0, symName: __ZNK5Eigen14CwiseNullaryOpINS_8internal18scalar_constant_opIdEEKNS_6MatrixIdLi1ELin1ELi1ELi1ELin1EEEE4rowsEv, symObjAddr: 0x19E38, symBinAddr: 0x10001D1F0, symSize: 0x20 }
  - { offset: 0x1E7110, size: 0x8, addend: 0x0, symName: __ZNK5Eigen14CwiseNullaryOpINS_8internal18scalar_constant_opIdEEKNS_6MatrixIdLi1ELin1ELi1ELi1ELin1EEEE4colsEv, symObjAddr: 0x19E58, symBinAddr: 0x10001D210, symSize: 0x28 }
  - { offset: 0x1E7136, size: 0x8, addend: 0x0, symName: __ZN5Eigen10MatrixBaseINS_13CwiseBinaryOpINS_8internal17scalar_product_opIddEEKNS_14CwiseNullaryOpINS2_18scalar_constant_opIdEEKNS_6MatrixIdLi1ELin1ELi1ELi1ELin1EEEEEKNS_3MapIS9_Li0ENS_6StrideILi0ELi0EEEEEEEEC2Ev, symObjAddr: 0x19E80, symBinAddr: 0x10001D238, symSize: 0x2C }
  - { offset: 0x1E7160, size: 0x8, addend: 0x0, symName: __ZN5Eigen9DenseBaseINS_13CwiseBinaryOpINS_8internal17scalar_product_opIddEEKNS_14CwiseNullaryOpINS2_18scalar_constant_opIdEEKNS_6MatrixIdLi1ELin1ELi1ELi1ELin1EEEEEKNS_3MapIS9_Li0ENS_6StrideILi0ELi0EEEEEEEEC2Ev, symObjAddr: 0x19EAC, symBinAddr: 0x10001D264, symSize: 0x14 }
  - { offset: 0x1E718A, size: 0x8, addend: 0x0, symName: __ZN5Eigen14CwiseNullaryOpINS_8internal18scalar_constant_opIdEEKNS_6MatrixIdLi1ELin1ELi1ELi1ELin1EEEEC2ERKS7_, symObjAddr: 0x19EC0, symBinAddr: 0x10001D278, symSize: 0x48 }
  - { offset: 0x1E71BF, size: 0x8, addend: 0x0, symName: __ZN5Eigen8internal17scalar_product_opIddEC2ERKS2_, symObjAddr: 0x19F08, symBinAddr: 0x10001D2C0, symSize: 0x18 }
  - { offset: 0x1E71F4, size: 0x8, addend: 0x0, symName: __ZN5Eigen9EigenBaseINS_5BlockINS1_INS_6MatrixIdLin1ELin1ELi0ELin1ELin1EEELin1ELin1ELb0EEELi1ELin1ELb0EEEE7derivedEv, symObjAddr: 0x19F58, symBinAddr: 0x10001D310, symSize: 0x14 }
  - { offset: 0x1E721A, size: 0x8, addend: 0x0, symName: __ZNK5Eigen9EigenBaseINS_13CwiseBinaryOpINS_8internal17scalar_product_opIddEEKNS_14CwiseNullaryOpINS2_18scalar_constant_opIdEEKNS_6MatrixIdLi1ELin1ELi1ELi1ELin1EEEEEKNS_3MapIS9_Li0ENS_6StrideILi0ELi0EEEEEEEE7derivedEv, symObjAddr: 0x19F6C, symBinAddr: 0x10001D324, symSize: 0x14 }
  - { offset: 0x1E7240, size: 0x8, addend: 0x0, symName: __ZN5Eigen8internal13sub_assign_opIddEC1Ev, symObjAddr: 0x19F80, symBinAddr: 0x10001D338, symSize: 0x2C }
  - { offset: 0x1E726A, size: 0x8, addend: 0x0, symName: __ZN5Eigen8internal10AssignmentINS_5BlockINS2_INS_6MatrixIdLin1ELin1ELi0ELin1ELin1EEELin1ELin1ELb0EEELi1ELin1ELb0EEENS_13CwiseBinaryOpINS0_17scalar_product_opIddEEKNS_14CwiseNullaryOpINS0_18scalar_constant_opIdEEKNS3_IdLi1ELin1ELi1ELi1ELin1EEEEEKNS_3MapISD_Li0ENS_6StrideILi0ELi0EEEEEEENS0_13sub_assign_opIddEENS0_11Dense2DenseEvE3runERS6_RKSM_RKSO_, symObjAddr: 0x19FE8, symBinAddr: 0x10001D3A0, symSize: 0x40 }
  - { offset: 0x1E72F7, size: 0x8, addend: 0x0, symName: __ZN5Eigen8internal9evaluatorINS_13CwiseBinaryOpINS0_17scalar_product_opIddEEKNS_14CwiseNullaryOpINS0_18scalar_constant_opIdEEKNS_6MatrixIdLi1ELin1ELi1ELi1ELin1EEEEEKNS_3MapIS9_Li0ENS_6StrideILi0ELi0EEEEEEEEC1ERKSI_, symObjAddr: 0x1A11C, symBinAddr: 0x10001D4D4, symSize: 0x34 }
  - { offset: 0x1E7330, size: 0x8, addend: 0x0, symName: __ZNK5Eigen9EigenBaseINS_5BlockINS1_INS_6MatrixIdLin1ELin1ELi0ELin1ELin1EEELin1ELin1ELb0EEELi1ELin1ELb0EEEE18const_cast_derivedEv, symObjAddr: 0x1A204, symBinAddr: 0x10001D5BC, symSize: 0x14 }
  - { offset: 0x1E7383, size: 0x8, addend: 0x0, symName: __ZN5Eigen8internal31generic_dense_assignment_kernelINS0_9evaluatorINS_5BlockINS3_INS_6MatrixIdLin1ELin1ELi0ELin1ELin1EEELin1ELin1ELb0EEELi1ELin1ELb0EEEEENS2_INS_13CwiseBinaryOpINS0_17scalar_product_opIddEEKNS_14CwiseNullaryOpINS0_18scalar_constant_opIdEEKNS4_IdLi1ELin1ELi1ELi1ELin1EEEEEKNS_3MapISF_Li0ENS_6StrideILi0ELi0EEEEEEEEENS0_13sub_assign_opIddEELi0EEC1ERS8_RKSP_RKSR_RS7_, symObjAddr: 0x1A218, symBinAddr: 0x10001D5D0, symSize: 0x4C }
  - { offset: 0x1E73EE, size: 0x8, addend: 0x0, symName: __ZN5Eigen8internal21dense_assignment_loopINS0_31generic_dense_assignment_kernelINS0_9evaluatorINS_5BlockINS4_INS_6MatrixIdLin1ELin1ELi0ELin1ELin1EEELin1ELin1ELb0EEELi1ELin1ELb0EEEEENS3_INS_13CwiseBinaryOpINS0_17scalar_product_opIddEEKNS_14CwiseNullaryOpINS0_18scalar_constant_opIdEEKNS5_IdLi1ELin1ELi1ELi1ELin1EEEEEKNS_3MapISG_Li0ENS_6StrideILi0ELi0EEEEEEEEENS0_13sub_assign_opIddEELi0EEELi1ELi0EE3runERST_, symObjAddr: 0x1A264, symBinAddr: 0x10001D61C, symSize: 0x68 }
  - { offset: 0x1E743E, size: 0x8, addend: 0x0, symName: __ZN5Eigen8internal9evaluatorINS_13CwiseBinaryOpINS0_17scalar_product_opIddEEKNS_14CwiseNullaryOpINS0_18scalar_constant_opIdEEKNS_6MatrixIdLi1ELin1ELi1ELi1ELin1EEEEEKNS_3MapIS9_Li0ENS_6StrideILi0ELi0EEEEEEEED1Ev, symObjAddr: 0x1A2CC, symBinAddr: 0x10001D684, symSize: 0x2C }
  - { offset: 0x1E746B, size: 0x8, addend: 0x0, symName: __ZN5Eigen8internal9evaluatorINS_13CwiseBinaryOpINS0_17scalar_product_opIddEEKNS_14CwiseNullaryOpINS0_18scalar_constant_opIdEEKNS_6MatrixIdLi1ELin1ELi1ELi1ELin1EEEEEKNS_3MapIS9_Li0ENS_6StrideILi0ELi0EEEEEEEEC2ERKSI_, symObjAddr: 0x1A2F8, symBinAddr: 0x10001D6B0, symSize: 0x34 }
  - { offset: 0x1E74A4, size: 0x8, addend: 0x0, symName: __ZN5Eigen8internal16binary_evaluatorINS_13CwiseBinaryOpINS0_17scalar_product_opIddEEKNS_14CwiseNullaryOpINS0_18scalar_constant_opIdEEKNS_6MatrixIdLi1ELin1ELi1ELi1ELin1EEEEEKNS_3MapIS9_Li0ENS_6StrideILi0ELi0EEEEEEENS0_10IndexBasedESJ_ddEC2ERKSI_, symObjAddr: 0x1A32C, symBinAddr: 0x10001D6E4, symSize: 0x64 }
  - { offset: 0x1E74DD, size: 0x8, addend: 0x0, symName: __ZN5Eigen8internal14evaluator_baseINS_13CwiseBinaryOpINS0_17scalar_product_opIddEEKNS_14CwiseNullaryOpINS0_18scalar_constant_opIdEEKNS_6MatrixIdLi1ELin1ELi1ELi1ELin1EEEEEKNS_3MapIS9_Li0ENS_6StrideILi0ELi0EEEEEEEEC2Ev, symObjAddr: 0x1A390, symBinAddr: 0x10001D748, symSize: 0x14 }
  - { offset: 0x1E7507, size: 0x8, addend: 0x0, symName: __ZN5Eigen8internal16binary_evaluatorINS_13CwiseBinaryOpINS0_17scalar_product_opIddEEKNS_14CwiseNullaryOpINS0_18scalar_constant_opIdEEKNS_6MatrixIdLi1ELin1ELi1ELi1ELin1EEEEEKNS_3MapIS9_Li0ENS_6StrideILi0ELi0EEEEEEENS0_10IndexBasedESJ_ddE4DataC1ERKSI_, symObjAddr: 0x1A3A4, symBinAddr: 0x10001D75C, symSize: 0x34 }
  - { offset: 0x1E7540, size: 0x8, addend: 0x0, symName: __ZN5Eigen8internal14evaluator_baseINS_13CwiseBinaryOpINS0_17scalar_product_opIddEEKNS_14CwiseNullaryOpINS0_18scalar_constant_opIdEEKNS_6MatrixIdLi1ELin1ELi1ELi1ELin1EEEEEKNS_3MapIS9_Li0ENS_6StrideILi0ELi0EEEEEEEED2Ev, symObjAddr: 0x1A3D8, symBinAddr: 0x10001D790, symSize: 0x14 }
  - { offset: 0x1E756A, size: 0x8, addend: 0x0, symName: __ZN5Eigen8internal16binary_evaluatorINS_13CwiseBinaryOpINS0_17scalar_product_opIddEEKNS_14CwiseNullaryOpINS0_18scalar_constant_opIdEEKNS_6MatrixIdLi1ELin1ELi1ELi1ELin1EEEEEKNS_3MapIS9_Li0ENS_6StrideILi0ELi0EEEEEEENS0_10IndexBasedESJ_ddE4DataC2ERKSI_, symObjAddr: 0x1A3EC, symBinAddr: 0x10001D7A4, symSize: 0xA0 }
  - { offset: 0x1E75A3, size: 0x8, addend: 0x0, symName: __ZNK5Eigen13CwiseBinaryOpINS_8internal17scalar_product_opIddEEKNS_14CwiseNullaryOpINS1_18scalar_constant_opIdEEKNS_6MatrixIdLi1ELin1ELi1ELi1ELin1EEEEEKNS_3MapIS8_Li0ENS_6StrideILi0ELi0EEEEEE7functorEv, symObjAddr: 0x1A48C, symBinAddr: 0x10001D844, symSize: 0x18 }
  - { offset: 0x1E75C9, size: 0x8, addend: 0x0, symName: __ZNK5Eigen13CwiseBinaryOpINS_8internal17scalar_product_opIddEEKNS_14CwiseNullaryOpINS1_18scalar_constant_opIdEEKNS_6MatrixIdLi1ELin1ELi1ELi1ELin1EEEEEKNS_3MapIS8_Li0ENS_6StrideILi0ELi0EEEEEE3lhsEv, symObjAddr: 0x1A4A4, symBinAddr: 0x10001D85C, symSize: 0x18 }
  - { offset: 0x1E75EF, size: 0x8, addend: 0x0, symName: __ZN5Eigen8internal9evaluatorIKNS_14CwiseNullaryOpINS0_18scalar_constant_opIdEEKNS_6MatrixIdLi1ELin1ELi1ELi1ELin1EEEEEEC1ERS9_, symObjAddr: 0x1A4BC, symBinAddr: 0x10001D874, symSize: 0x34 }
  - { offset: 0x1E7627, size: 0x8, addend: 0x0, symName: __ZNK5Eigen13CwiseBinaryOpINS_8internal17scalar_product_opIddEEKNS_14CwiseNullaryOpINS1_18scalar_constant_opIdEEKNS_6MatrixIdLi1ELin1ELi1ELi1ELin1EEEEEKNS_3MapIS8_Li0ENS_6StrideILi0ELi0EEEEEE3rhsEv, symObjAddr: 0x1A4F0, symBinAddr: 0x10001D8A8, symSize: 0x18 }
  - { offset: 0x1E764D, size: 0x8, addend: 0x0, symName: __ZN5Eigen8internal9evaluatorIKNS_3MapINS_6MatrixIdLi1ELin1ELi1ELi1ELin1EEELi0ENS_6StrideILi0ELi0EEEEEEC1ERS8_, symObjAddr: 0x1A508, symBinAddr: 0x10001D8C0, symSize: 0x34 }
  - { offset: 0x1E7685, size: 0x8, addend: 0x0, symName: __ZN5Eigen8internal9evaluatorIKNS_14CwiseNullaryOpINS0_18scalar_constant_opIdEEKNS_6MatrixIdLi1ELin1ELi1ELi1ELin1EEEEEED1Ev, symObjAddr: 0x1A53C, symBinAddr: 0x10001D8F4, symSize: 0x2C }
  - { offset: 0x1E76B1, size: 0x8, addend: 0x0, symName: __ZN5Eigen8internal9evaluatorIKNS_14CwiseNullaryOpINS0_18scalar_constant_opIdEEKNS_6MatrixIdLi1ELin1ELi1ELi1ELin1EEEEEEC2ERS9_, symObjAddr: 0x1A568, symBinAddr: 0x10001D920, symSize: 0x34 }
  - { offset: 0x1E76E9, size: 0x8, addend: 0x0, symName: __ZN5Eigen8internal9evaluatorINS_14CwiseNullaryOpINS0_18scalar_constant_opIdEEKNS_6MatrixIdLi1ELin1ELi1ELi1ELin1EEEEEEC2ERKS8_, symObjAddr: 0x1A59C, symBinAddr: 0x10001D954, symSize: 0x74 }
  - { offset: 0x1E7722, size: 0x8, addend: 0x0, symName: __ZN5Eigen8internal14evaluator_baseINS_14CwiseNullaryOpINS0_18scalar_constant_opIdEEKNS_6MatrixIdLi1ELin1ELi1ELi1ELin1EEEEEEC2Ev, symObjAddr: 0x1A610, symBinAddr: 0x10001D9C8, symSize: 0x14 }
  - { offset: 0x1E774C, size: 0x8, addend: 0x0, symName: __ZNK5Eigen14CwiseNullaryOpINS_8internal18scalar_constant_opIdEEKNS_6MatrixIdLi1ELin1ELi1ELi1ELin1EEEE7functorEv, symObjAddr: 0x1A624, symBinAddr: 0x10001D9DC, symSize: 0x18 }
  - { offset: 0x1E7772, size: 0x8, addend: 0x0, symName: __ZN5Eigen8internal14evaluator_baseINS_14CwiseNullaryOpINS0_18scalar_constant_opIdEEKNS_6MatrixIdLi1ELin1ELi1ELi1ELin1EEEEEED2Ev, symObjAddr: 0x1A63C, symBinAddr: 0x10001D9F4, symSize: 0x14 }
  - { offset: 0x1E779C, size: 0x8, addend: 0x0, symName: __ZN5Eigen8internal9evaluatorIKNS_3MapINS_6MatrixIdLi1ELin1ELi1ELi1ELin1EEELi0ENS_6StrideILi0ELi0EEEEEEC2ERS8_, symObjAddr: 0x1A650, symBinAddr: 0x10001DA08, symSize: 0x34 }
  - { offset: 0x1E77D4, size: 0x8, addend: 0x0, symName: __ZN5Eigen8internal9evaluatorIKNS_14CwiseNullaryOpINS0_18scalar_constant_opIdEEKNS_6MatrixIdLi1ELin1ELi1ELi1ELin1EEEEEED2Ev, symObjAddr: 0x1A684, symBinAddr: 0x10001DA3C, symSize: 0x2C }
  - { offset: 0x1E7800, size: 0x8, addend: 0x0, symName: __ZN5Eigen8internal9evaluatorINS_14CwiseNullaryOpINS0_18scalar_constant_opIdEEKNS_6MatrixIdLi1ELin1ELi1ELi1ELin1EEEEEED2Ev, symObjAddr: 0x1A6B0, symBinAddr: 0x10001DA68, symSize: 0x2C }
  - { offset: 0x1E782C, size: 0x8, addend: 0x0, symName: __ZNK5Eigen13CwiseBinaryOpINS_8internal17scalar_product_opIddEEKNS_14CwiseNullaryOpINS1_18scalar_constant_opIdEEKNS_6MatrixIdLi1ELin1ELi1ELi1ELin1EEEEEKNS_3MapIS8_Li0ENS_6StrideILi0ELi0EEEEEE4rowsEv, symObjAddr: 0x1A6DC, symBinAddr: 0x10001DA94, symSize: 0x28 }
  - { offset: 0x1E7852, size: 0x8, addend: 0x0, symName: __ZNK5Eigen13CwiseBinaryOpINS_8internal17scalar_product_opIddEEKNS_14CwiseNullaryOpINS1_18scalar_constant_opIdEEKNS_6MatrixIdLi1ELin1ELi1ELi1ELin1EEEEEKNS_3MapIS8_Li0ENS_6StrideILi0ELi0EEEEEE4colsEv, symObjAddr: 0x1A704, symBinAddr: 0x10001DABC, symSize: 0x28 }
  - { offset: 0x1E7878, size: 0x8, addend: 0x0, symName: __ZN5Eigen8internal31generic_dense_assignment_kernelINS0_9evaluatorINS_5BlockINS3_INS_6MatrixIdLin1ELin1ELi0ELin1ELin1EEELin1ELin1ELb0EEELi1ELin1ELb0EEEEENS2_INS_13CwiseBinaryOpINS0_17scalar_product_opIddEEKNS_14CwiseNullaryOpINS0_18scalar_constant_opIdEEKNS4_IdLi1ELin1ELi1ELi1ELin1EEEEEKNS_3MapISF_Li0ENS_6StrideILi0ELi0EEEEEEEEENS0_13sub_assign_opIddEELi0EEC2ERS8_RKSP_RKSR_RS7_, symObjAddr: 0x1A72C, symBinAddr: 0x10001DAE4, symSize: 0x44 }
  - { offset: 0x1E78DE, size: 0x8, addend: 0x0, symName: __ZNK5Eigen8internal31generic_dense_assignment_kernelINS0_9evaluatorINS_5BlockINS3_INS_6MatrixIdLin1ELin1ELi0ELin1ELin1EEELin1ELin1ELb0EEELi1ELin1ELb0EEEEENS2_INS_13CwiseBinaryOpINS0_17scalar_product_opIddEEKNS_14CwiseNullaryOpINS0_18scalar_constant_opIdEEKNS4_IdLi1ELin1ELi1ELi1ELin1EEEEEKNS_3MapISF_Li0ENS_6StrideILi0ELi0EEEEEEEEENS0_13sub_assign_opIddEELi0EE4sizeEv, symObjAddr: 0x1A770, symBinAddr: 0x10001DB28, symSize: 0x28 }
  - { offset: 0x1E7904, size: 0x8, addend: 0x0, symName: __ZN5Eigen8internal31generic_dense_assignment_kernelINS0_9evaluatorINS_5BlockINS3_INS_6MatrixIdLin1ELin1ELi0ELin1ELin1EEELin1ELin1ELb0EEELi1ELin1ELb0EEEEENS2_INS_13CwiseBinaryOpINS0_17scalar_product_opIddEEKNS_14CwiseNullaryOpINS0_18scalar_constant_opIdEEKNS4_IdLi1ELin1ELi1ELi1ELin1EEEEEKNS_3MapISF_Li0ENS_6StrideILi0ELi0EEEEEEEEENS0_13sub_assign_opIddEELi0EE11assignCoeffEl, symObjAddr: 0x1A798, symBinAddr: 0x10001DB50, symSize: 0x64 }
  - { offset: 0x1E7939, size: 0x8, addend: 0x0, symName: __ZNK5Eigen9EigenBaseINS_5BlockINS1_INS_6MatrixIdLin1ELin1ELi0ELin1ELin1EEELin1ELin1ELb0EEELi1ELin1ELb0EEEE4sizeEv, symObjAddr: 0x1A7FC, symBinAddr: 0x10001DBB4, symSize: 0x44 }
  - { offset: 0x1E795F, size: 0x8, addend: 0x0, symName: __ZNK5Eigen9EigenBaseINS_5BlockINS1_INS_6MatrixIdLin1ELin1ELi0ELin1ELin1EEELin1ELin1ELb0EEELi1ELin1ELb0EEEE4rowsEv, symObjAddr: 0x1A840, symBinAddr: 0x10001DBF8, symSize: 0x28 }
  - { offset: 0x1E7985, size: 0x8, addend: 0x0, symName: __ZNK5Eigen9EigenBaseINS_5BlockINS1_INS_6MatrixIdLin1ELin1ELi0ELin1ELin1EEELin1ELin1ELb0EEELi1ELin1ELb0EEEE4colsEv, symObjAddr: 0x1A868, symBinAddr: 0x10001DC20, symSize: 0x28 }
  - { offset: 0x1E79AB, size: 0x8, addend: 0x0, symName: __ZNK5Eigen8internal13sub_assign_opIddE11assignCoeffERdRKd, symObjAddr: 0x1A890, symBinAddr: 0x10001DC48, symSize: 0x30 }
  - { offset: 0x1E79ED, size: 0x8, addend: 0x0, symName: __ZN5Eigen8internal17mapbase_evaluatorINS_5BlockINS2_INS_6MatrixIdLin1ELin1ELi0ELin1ELin1EEELin1ELin1ELb0EEELi1ELin1ELb0EEENS3_IdLi1ELin1ELi1ELi1ELin1EEEE8coeffRefEl, symObjAddr: 0x1A8C0, symBinAddr: 0x10001DC78, symSize: 0x4C }
  - { offset: 0x1E7A22, size: 0x8, addend: 0x0, symName: __ZNK5Eigen8internal16binary_evaluatorINS_13CwiseBinaryOpINS0_17scalar_product_opIddEEKNS_14CwiseNullaryOpINS0_18scalar_constant_opIdEEKNS_6MatrixIdLi1ELin1ELi1ELi1ELin1EEEEEKNS_3MapIS9_Li0ENS_6StrideILi0ELi0EEEEEEENS0_10IndexBasedESJ_ddE5coeffEl, symObjAddr: 0x1A90C, symBinAddr: 0x10001DCC4, symSize: 0x6C }
  - { offset: 0x1E7A57, size: 0x8, addend: 0x0, symName: __ZNK5Eigen8internal16binary_evaluatorINS_13CwiseBinaryOpINS0_17scalar_product_opIddEEKNS_14CwiseNullaryOpINS0_18scalar_constant_opIdEEKNS_6MatrixIdLi1ELin1ELi1ELi1ELin1EEEEEKNS_3MapIS9_Li0ENS_6StrideILi0ELi0EEEEEEENS0_10IndexBasedESJ_ddE4Data4funcEv, symObjAddr: 0x1A978, symBinAddr: 0x10001DD30, symSize: 0x14 }
  - { offset: 0x1E7A7D, size: 0x8, addend: 0x0, symName: __ZNK5Eigen8internal17scalar_product_opIddEclERKdS4_, symObjAddr: 0x1A98C, symBinAddr: 0x10001DD44, symSize: 0x2C }
  - { offset: 0x1E7AC9, size: 0x8, addend: 0x0, symName: __ZNK5Eigen8internal9evaluatorINS_14CwiseNullaryOpINS0_18scalar_constant_opIdEEKNS_6MatrixIdLi1ELin1ELi1ELi1ELin1EEEEEE5coeffIlEEdT_, symObjAddr: 0x1A9B8, symBinAddr: 0x10001DD70, symSize: 0x38 }
  - { offset: 0x1E7B07, size: 0x8, addend: 0x0, symName: __ZNK5Eigen8internal17mapbase_evaluatorINS_3MapINS_6MatrixIdLi1ELin1ELi1ELi1ELin1EEELi0ENS_6StrideILi0ELi0EEEEES4_E5coeffEl, symObjAddr: 0x1A9F0, symBinAddr: 0x10001DDA8, symSize: 0x48 }
  - { offset: 0x1E7B3C, size: 0x8, addend: 0x0, symName: __ZN5Eigen8internal9evaluatorINS_13CwiseBinaryOpINS0_17scalar_product_opIddEEKNS_14CwiseNullaryOpINS0_18scalar_constant_opIdEEKNS_6MatrixIdLi1ELin1ELi1ELi1ELin1EEEEEKNS_3MapIS9_Li0ENS_6StrideILi0ELi0EEEEEEEED2Ev, symObjAddr: 0x1AA38, symBinAddr: 0x10001DDF0, symSize: 0x2C }
  - { offset: 0x1E7B69, size: 0x8, addend: 0x0, symName: __ZN5Eigen8internal16binary_evaluatorINS_13CwiseBinaryOpINS0_17scalar_product_opIddEEKNS_14CwiseNullaryOpINS0_18scalar_constant_opIdEEKNS_6MatrixIdLi1ELin1ELi1ELi1ELin1EEEEEKNS_3MapIS9_Li0ENS_6StrideILi0ELi0EEEEEEENS0_10IndexBasedESJ_ddED2Ev, symObjAddr: 0x1AA64, symBinAddr: 0x10001DE1C, symSize: 0x34 }
  - { offset: 0x1E7B95, size: 0x8, addend: 0x0, symName: __ZN5Eigen8internal16binary_evaluatorINS_13CwiseBinaryOpINS0_17scalar_product_opIddEEKNS_14CwiseNullaryOpINS0_18scalar_constant_opIdEEKNS_6MatrixIdLi1ELin1ELi1ELi1ELin1EEEEEKNS_3MapIS9_Li0ENS_6StrideILi0ELi0EEEEEEENS0_10IndexBasedESJ_ddE4DataD1Ev, symObjAddr: 0x1AA98, symBinAddr: 0x10001DE50, symSize: 0x2C }
  - { offset: 0x1E7BC2, size: 0x8, addend: 0x0, symName: __ZN5Eigen8internal16binary_evaluatorINS_13CwiseBinaryOpINS0_17scalar_product_opIddEEKNS_14CwiseNullaryOpINS0_18scalar_constant_opIdEEKNS_6MatrixIdLi1ELin1ELi1ELi1ELin1EEEEEKNS_3MapIS9_Li0ENS_6StrideILi0ELi0EEEEEEENS0_10IndexBasedESJ_ddE4DataD2Ev, symObjAddr: 0x1AAC4, symBinAddr: 0x10001DE7C, symSize: 0x3C }
  - { offset: 0x1E7BEF, size: 0x8, addend: 0x0, symName: __ZN5Eigen8internal9evaluatorIKNS_3MapINS_6MatrixIdLi1ELin1ELi1ELi1ELin1EEELi0ENS_6StrideILi0ELi0EEEEEED1Ev, symObjAddr: 0x1AB00, symBinAddr: 0x10001DEB8, symSize: 0x2C }
  - { offset: 0x1E7C1B, size: 0x8, addend: 0x0, symName: __ZN5Eigen8internal9evaluatorIKNS_3MapINS_6MatrixIdLi1ELin1ELi1ELi1ELin1EEELi0ENS_6StrideILi0ELi0EEEEEED2Ev, symObjAddr: 0x1AB2C, symBinAddr: 0x10001DEE4, symSize: 0x2C }
  - { offset: 0x1E7C47, size: 0x8, addend: 0x0, symName: __ZN5Eigen8internal13sub_assign_opIddEC2Ev, symObjAddr: 0x1AB58, symBinAddr: 0x10001DF10, symSize: 0x14 }
  - { offset: 0x1E7C71, size: 0x8, addend: 0x0, symName: __ZN5Eigen13CwiseBinaryOpINS_8internal17scalar_product_opIddEEKNS_14CwiseNullaryOpINS1_18scalar_constant_opIdEEKNS_6MatrixIdLin1ELi1ELi0ELin1ELi1EEEEEKNS_5BlockINSC_INS7_IdLin1ELin1ELi0ELin1ELin1EEELin1ELi1ELb1EEELin1ELi1ELb0EEEEC1ERSB_RSG_RKS3_, symObjAddr: 0x1AB6C, symBinAddr: 0x10001DF24, symSize: 0x44 }
  - { offset: 0x1E7CC5, size: 0x8, addend: 0x0, symName: __ZN5Eigen13CwiseBinaryOpINS_8internal17scalar_product_opIddEEKNS_14CwiseNullaryOpINS1_18scalar_constant_opIdEEKNS_6MatrixIdLin1ELi1ELi0ELin1ELi1EEEEEKNS_5BlockINSC_INS7_IdLin1ELin1ELi0ELin1ELin1EEELin1ELi1ELb1EEELin1ELi1ELb0EEEEC2ERSB_RSG_RKS3_, symObjAddr: 0x1ABB0, symBinAddr: 0x10001DF68, symSize: 0x100 }
  - { offset: 0x1E7D1E, size: 0x8, addend: 0x0, symName: __ZN5Eigen17CwiseBinaryOpImplINS_8internal17scalar_product_opIddEEKNS_14CwiseNullaryOpINS1_18scalar_constant_opIdEEKNS_6MatrixIdLin1ELi1ELi0ELin1ELi1EEEEEKNS_5BlockINSC_INS7_IdLin1ELin1ELi0ELin1ELin1EEELin1ELi1ELb1EEELin1ELi1ELb0EEENS_5DenseEEC2Ev, symObjAddr: 0x1ACB0, symBinAddr: 0x10001E068, symSize: 0x2C }
  - { offset: 0x1E7D4A, size: 0x8, addend: 0x0, symName: __ZN5Eigen10MatrixBaseINS_13CwiseBinaryOpINS_8internal17scalar_product_opIddEEKNS_14CwiseNullaryOpINS2_18scalar_constant_opIdEEKNS_6MatrixIdLin1ELi1ELi0ELin1ELi1EEEEEKNS_5BlockINSD_INS8_IdLin1ELin1ELi0ELin1ELin1EEELin1ELi1ELb1EEELin1ELi1ELb0EEEEEEC2Ev, symObjAddr: 0x1ACDC, symBinAddr: 0x10001E094, symSize: 0x2C }
  - { offset: 0x1E7D74, size: 0x8, addend: 0x0, symName: __ZN5Eigen9DenseBaseINS_13CwiseBinaryOpINS_8internal17scalar_product_opIddEEKNS_14CwiseNullaryOpINS2_18scalar_constant_opIdEEKNS_6MatrixIdLin1ELi1ELi0ELin1ELi1EEEEEKNS_5BlockINSD_INS8_IdLin1ELin1ELi0ELin1ELin1EEELin1ELi1ELb1EEELin1ELi1ELb0EEEEEEC2Ev, symObjAddr: 0x1AD08, symBinAddr: 0x10001E0C0, symSize: 0x14 }
  - { offset: 0x1E7D9E, size: 0x8, addend: 0x0, symName: __ZNK5Eigen9EigenBaseINS_13CwiseBinaryOpINS_8internal17scalar_product_opIddEEKNS_14CwiseNullaryOpINS2_18scalar_constant_opIdEEKNS_6MatrixIdLin1ELi1ELi0ELin1ELi1EEEEEKNS_5BlockINSD_INS8_IdLin1ELin1ELi0ELin1ELin1EEELin1ELi1ELb1EEELin1ELi1ELb0EEEEEE7derivedEv, symObjAddr: 0x1AD1C, symBinAddr: 0x10001E0D4, symSize: 0x14 }
  - { offset: 0x1E7DC4, size: 0x8, addend: 0x0, symName: __ZN5Eigen7ProductINS_13CwiseBinaryOpINS_8internal17scalar_product_opIddEEKNS_14CwiseNullaryOpINS2_18scalar_constant_opIdEEKNS_6MatrixIdLin1ELi1ELi0ELin1ELi1EEEEEKNS_5BlockINSD_INS8_IdLin1ELin1ELi0ELin1ELin1EEELin1ELi1ELb1EEELin1ELi1ELb0EEEEENS_3MapINS8_IdLi1ELin1ELi1ELi1ELin1EEELi0ENS_6StrideILi0ELi0EEEEELi0EEC1ERKSI_RKSN_, symObjAddr: 0x1AD30, symBinAddr: 0x10001E0E8, symSize: 0x3C }
  - { offset: 0x1E7E0A, size: 0x8, addend: 0x0, symName: __ZN5Eigen7ProductINS_13CwiseBinaryOpINS_8internal17scalar_product_opIddEEKNS_14CwiseNullaryOpINS2_18scalar_constant_opIdEEKNS_6MatrixIdLin1ELi1ELi0ELin1ELi1EEEEEKNS_5BlockINSD_INS8_IdLin1ELin1ELi0ELin1ELin1EEELin1ELi1ELb1EEELin1ELi1ELb0EEEEENS_3MapINS8_IdLi1ELin1ELi1ELi1ELin1EEELi0ENS_6StrideILi0ELi0EEEEELi0EEC2ERKSI_RKSN_, symObjAddr: 0x1AD6C, symBinAddr: 0x10001E124, symSize: 0xC4 }
  - { offset: 0x1E7E55, size: 0x8, addend: 0x0, symName: __ZN5Eigen11ProductImplINS_13CwiseBinaryOpINS_8internal17scalar_product_opIddEEKNS_14CwiseNullaryOpINS2_18scalar_constant_opIdEEKNS_6MatrixIdLin1ELi1ELi0ELin1ELi1EEEEEKNS_5BlockINSD_INS8_IdLin1ELin1ELi0ELin1ELin1EEELin1ELi1ELb1EEELin1ELi1ELb0EEEEENS_3MapINS8_IdLi1ELin1ELi1ELi1ELin1EEELi0ENS_6StrideILi0ELi0EEEEELi0ENS_5DenseEEC2Ev, symObjAddr: 0x1AE30, symBinAddr: 0x10001E1E8, symSize: 0x2C }
  - { offset: 0x1E7E81, size: 0x8, addend: 0x0, symName: __ZN5Eigen13CwiseBinaryOpINS_8internal17scalar_product_opIddEEKNS_14CwiseNullaryOpINS1_18scalar_constant_opIdEEKNS_6MatrixIdLin1ELi1ELi0ELin1ELi1EEEEEKNS_5BlockINSC_INS7_IdLin1ELin1ELi0ELin1ELin1EEELin1ELi1ELb1EEELin1ELi1ELb0EEEEC1ERKSH_, symObjAddr: 0x1AE5C, symBinAddr: 0x10001E214, symSize: 0x34 }
  - { offset: 0x1E7EB6, size: 0x8, addend: 0x0, symName: __ZNK5Eigen13CwiseBinaryOpINS_8internal17scalar_product_opIddEEKNS_14CwiseNullaryOpINS1_18scalar_constant_opIdEEKNS_6MatrixIdLin1ELi1ELi0ELin1ELi1EEEEEKNS_5BlockINSC_INS7_IdLin1ELin1ELi0ELin1ELin1EEELin1ELi1ELb1EEELin1ELi1ELb0EEEE4colsEv, symObjAddr: 0x1AE90, symBinAddr: 0x10001E248, symSize: 0x28 }
  - { offset: 0x1E7EE1, size: 0x8, addend: 0x0, symName: __ZN5Eigen8internal18dense_product_baseINS_13CwiseBinaryOpINS0_17scalar_product_opIddEEKNS_14CwiseNullaryOpINS0_18scalar_constant_opIdEEKNS_6MatrixIdLin1ELi1ELi0ELin1ELi1EEEEEKNS_5BlockINSD_INS8_IdLin1ELin1ELi0ELin1ELin1EEELin1ELi1ELb1EEELin1ELi1ELb0EEEEENS_3MapINS8_IdLi1ELin1ELi1ELi1ELin1EEELi0ENS_6StrideILi0ELi0EEEEELi0ELi5EEC2Ev, symObjAddr: 0x1AEB8, symBinAddr: 0x10001E270, symSize: 0x2C }
  - { offset: 0x1E7F0D, size: 0x8, addend: 0x0, symName: __ZN5Eigen10MatrixBaseINS_7ProductINS_13CwiseBinaryOpINS_8internal17scalar_product_opIddEEKNS_14CwiseNullaryOpINS3_18scalar_constant_opIdEEKNS_6MatrixIdLin1ELi1ELi0ELin1ELi1EEEEEKNS_5BlockINSE_INS9_IdLin1ELin1ELi0ELin1ELin1EEELin1ELi1ELb1EEELin1ELi1ELb0EEEEENS_3MapINS9_IdLi1ELin1ELi1ELi1ELin1EEELi0ENS_6StrideILi0ELi0EEEEELi0EEEEC2Ev, symObjAddr: 0x1AEE4, symBinAddr: 0x10001E29C, symSize: 0x2C }
  - { offset: 0x1E7F37, size: 0x8, addend: 0x0, symName: __ZN5Eigen9DenseBaseINS_7ProductINS_13CwiseBinaryOpINS_8internal17scalar_product_opIddEEKNS_14CwiseNullaryOpINS3_18scalar_constant_opIdEEKNS_6MatrixIdLin1ELi1ELi0ELin1ELi1EEEEEKNS_5BlockINSE_INS9_IdLin1ELin1ELi0ELin1ELin1EEELin1ELi1ELb1EEELin1ELi1ELb0EEEEENS_3MapINS9_IdLi1ELin1ELi1ELi1ELin1EEELi0ENS_6StrideILi0ELi0EEEEELi0EEEEC2Ev, symObjAddr: 0x1AF10, symBinAddr: 0x10001E2C8, symSize: 0x14 }
  - { offset: 0x1E7F61, size: 0x8, addend: 0x0, symName: __ZN5Eigen13CwiseBinaryOpINS_8internal17scalar_product_opIddEEKNS_14CwiseNullaryOpINS1_18scalar_constant_opIdEEKNS_6MatrixIdLin1ELi1ELi0ELin1ELi1EEEEEKNS_5BlockINSC_INS7_IdLin1ELin1ELi0ELin1ELin1EEELin1ELi1ELb1EEELin1ELi1ELb0EEEEC2ERKSH_, symObjAddr: 0x1AF24, symBinAddr: 0x10001E2DC, symSize: 0x68 }
  - { offset: 0x1E7F96, size: 0x8, addend: 0x0, symName: __ZN5Eigen9EigenBaseINS_5BlockINS1_INS_6MatrixIdLin1ELin1ELi0ELin1ELin1EEELin1ELin1ELb0EEELin1ELin1ELb0EEEE7derivedEv, symObjAddr: 0x1AF8C, symBinAddr: 0x10001E344, symSize: 0x14 }
  - { offset: 0x1E7FBC, size: 0x8, addend: 0x0, symName: __ZN5Eigen7NoAliasINS_5BlockINS1_INS_6MatrixIdLin1ELin1ELi0ELin1ELin1EEELin1ELin1ELb0EEELin1ELin1ELb0EEENS_10MatrixBaseEEC1ERS5_, symObjAddr: 0x1AFA0, symBinAddr: 0x10001E358, symSize: 0x34 }
  - { offset: 0x1E7FF4, size: 0x8, addend: 0x0, symName: __ZN5Eigen7NoAliasINS_5BlockINS1_INS_6MatrixIdLin1ELin1ELi0ELin1ELin1EEELin1ELin1ELb0EEELin1ELin1ELb0EEENS_10MatrixBaseEEC2ERS5_, symObjAddr: 0x1AFD4, symBinAddr: 0x10001E38C, symSize: 0x20 }
  - { offset: 0x1E802C, size: 0x8, addend: 0x0, symName: __ZNK5Eigen9EigenBaseINS_7ProductINS_13CwiseBinaryOpINS_8internal17scalar_product_opIddEEKNS_14CwiseNullaryOpINS3_18scalar_constant_opIdEEKNS_6MatrixIdLin1ELi1ELi0ELin1ELi1EEEEEKNS_5BlockINSE_INS9_IdLin1ELin1ELi0ELin1ELin1EEELin1ELi1ELb1EEELin1ELi1ELb0EEEEENS_3MapINS9_IdLi1ELin1ELi1ELi1ELin1EEELi0ENS_6StrideILi0ELi0EEEEELi0EEEE7derivedEv, symObjAddr: 0x1B030, symBinAddr: 0x10001E3E8, symSize: 0x14 }
  - { offset: 0x1E805C, size: 0x8, addend: 0x0, symName: __ZN5Eigen8internal10AssignmentINS_5BlockINS2_INS_6MatrixIdLin1ELin1ELi0ELin1ELin1EEELin1ELin1ELb0EEELin1ELin1ELb0EEENS_7ProductINS_13CwiseBinaryOpINS0_17scalar_product_opIddEEKNS_14CwiseNullaryOpINS0_18scalar_constant_opIdEEKNS3_IdLin1ELi1ELi0ELin1ELi1EEEEEKNS2_INS2_IS4_Lin1ELi1ELb1EEELin1ELi1ELb0EEEEENS_3MapINS3_IdLi1ELin1ELi1ELi1ELin1EEELi0ENS_6StrideILi0ELi0EEEEELi0EEENS0_13sub_assign_opIddEENS0_11Dense2DenseEvE3runERS6_RKSR_RKST_, symObjAddr: 0x1B044, symBinAddr: 0x10001E3FC, symSize: 0xE0 }
  - { offset: 0x1E8098, size: 0x8, addend: 0x0, symName: __ZNK5Eigen7ProductINS_13CwiseBinaryOpINS_8internal17scalar_product_opIddEEKNS_14CwiseNullaryOpINS2_18scalar_constant_opIdEEKNS_6MatrixIdLin1ELi1ELi0ELin1ELi1EEEEEKNS_5BlockINSD_INS8_IdLin1ELin1ELi0ELin1ELin1EEELin1ELi1ELb1EEELin1ELi1ELb0EEEEENS_3MapINS8_IdLi1ELin1ELi1ELi1ELin1EEELi0ENS_6StrideILi0ELi0EEEEELi0EE4rowsEv, symObjAddr: 0x1B124, symBinAddr: 0x10001E4DC, symSize: 0x24 }
  - { offset: 0x1E80BE, size: 0x8, addend: 0x0, symName: __ZNK5Eigen7ProductINS_13CwiseBinaryOpINS_8internal17scalar_product_opIddEEKNS_14CwiseNullaryOpINS2_18scalar_constant_opIdEEKNS_6MatrixIdLin1ELi1ELi0ELin1ELi1EEEEEKNS_5BlockINSD_INS8_IdLin1ELin1ELi0ELin1ELin1EEELin1ELi1ELb1EEELin1ELi1ELb0EEEEENS_3MapINS8_IdLi1ELin1ELi1ELi1ELin1EEELi0ENS_6StrideILi0ELi0EEEEELi0EE4colsEv, symObjAddr: 0x1B148, symBinAddr: 0x10001E500, symSize: 0x28 }
